 Min Knapsack Voronoi Diagram

 Timestamp is 675ab3da (Thu Dec 12 10:58:50 2024)

 Preferred load address is 0000000140000000

 Start         Length     Name                   Class
 0001:00000000 0002df95H .textbss                DATA
 0002:00000000 00007df0H .text$di                CODE
 0002:00007df0 0005b160H .text$mn                CODE
 0002:00062f50 00001040H .text$mn$00             CODE
 0002:00063f90 000040a0H .text$x                 CODE
 0002:00068030 0000104cH .text$yd                CODE
 0003:00000000 00000110H .CRT$XCA                DATA
 0003:00000110 00000110H .CRT$XCAA               DATA
 0003:00000220 00000110H .CRT$XCL                DATA
 0003:00000330 00000110H .CRT$XCU                DATA
 0003:00000440 00000110H .CRT$XCZ                DATA
 0003:00000550 00000110H .CRT$XIA                DATA
 0003:00000660 00000110H .CRT$XIAA               DATA
 0003:00000770 00000110H .CRT$XIAC               DATA
 0003:00000880 00000110H .CRT$XIZ                DATA
 0003:00000990 00000008H .CRT$XLA                DATA
 0003:00000998 00000008H .CRT$XLZ                DATA
 0003:000009a0 00000110H .CRT$XPA                DATA
 0003:00000ab0 00000110H .CRT$XPZ                DATA
 0003:00000bc0 00000110H .CRT$XTA                DATA
 0003:00000cd0 00000110H .CRT$XTZ                DATA
 0003:00000de0 0000aca0H .rdata                  DATA
 0003:0000ba80 00000200H .rdata$CastGuardVftablesA DATA
 0003:0000bc80 000001a0H .rdata$CastGuardVftablesC DATA
 0003:0000be20 00000130H .rdata$T                DATA
 0003:0000bf50 00000f98H .rdata$r                DATA
 0003:0000cee8 000001b0H .rdata$zzzdbg           DATA
 0003:0000d098 00000110H .rtc$IAA                DATA
 0003:0000d1a8 00000130H .rtc$IMZ                DATA
 0003:0000d2d8 00000110H .rtc$IZZ                DATA
 0003:0000d3e8 00000110H .rtc$TAA                DATA
 0003:0000d4f8 00000130H .rtc$TMZ                DATA
 0003:0000d628 00000110H .rtc$TZZ                DATA
 0003:0000d738 0000ca68H .xdata                  DATA
 0003:0001a1a0 00000274H .xdata$x                DATA
 0003:0001a414 00000000H .edata                  DATA
 0004:00000000 00000208H .data                   DATA
 0004:00000208 000001c8H .data$r                 DATA
 0004:000003d0 00000740H .data$rs                DATA
 0004:00000b10 00000820H .bss                    DATA
 0005:00000000 00008d90H .pdata                  DATA
 0006:00000000 00000af0H .idata$5                DATA
 0006:00000af0 000000a0H .idata$2                DATA
 0006:00000b90 00000018H .idata$3                DATA
 0006:00000ba8 00000af0H .idata$4                DATA
 0006:00001698 0000248dH .idata$6                DATA
 0007:00000000 0000031fH .msvcjmc                DATA
 0008:00000000 00000104H .tls                    DATA
 0008:00000104 00000104H .tls$                   DATA
 0008:00000208 00000101H .tls$ZZZ                DATA
 0009:00000000 00000175H .00cfg                  DATA
 000a:00000000 00000170H .rsrc$01                DATA
 000a:00000170 000002ccH .rsrc$02                DATA

  Address         Publics by Value              Rva+Base               Lib:Object

 0000:00000000       __AbsoluteZero             0000000000000000     <absolute>
 0000:00000000       ___safe_se_handler_count   0000000000000000     <absolute>
 0000:00000000       ___safe_se_handler_table   0000000000000000     <absolute>
 0000:00000000       __arm64x_extra_rfe_table   0000000000000000     <absolute>
 0000:00000000       __arm64x_extra_rfe_table_size 0000000000000000     <absolute>
 0000:00000000       __arm64x_native_entrypoint 0000000000000000     <absolute>
 0000:00000000       __arm64x_redirection_metadata 0000000000000000     <absolute>
 0000:00000000       __arm64x_redirection_metadata_count 0000000000000000     <absolute>
 0000:00000000       __dynamic_value_reloc_table 0000000000000000     <absolute>
 0000:00000000       __enclave_config           0000000000000000     <absolute>
 0000:00000000       __guard_check_icall_a64n_fptr 0000000000000000     <absolute>
 0000:00000000       __guard_eh_cont_count      0000000000000000     <absolute>
 0000:00000000       __guard_eh_cont_table      0000000000000000     <absolute>
 0000:00000000       __guard_fids_count         0000000000000000     <absolute>
 0000:00000000       __guard_fids_table         0000000000000000     <absolute>
 0000:00000000       __guard_iat_count          0000000000000000     <absolute>
 0000:00000000       __guard_iat_table          0000000000000000     <absolute>
 0000:00000000       __guard_longjmp_count      0000000000000000     <absolute>
 0000:00000000       __guard_longjmp_table      0000000000000000     <absolute>
 0000:00000000       __hybrid_auxiliary_delayload_iat 0000000000000000     <absolute>
 0000:00000000       __hybrid_auxiliary_delayload_iat_copy 0000000000000000     <absolute>
 0000:00000000       __hybrid_auxiliary_iat     0000000000000000     <absolute>
 0000:00000000       __hybrid_auxiliary_iat_copy 0000000000000000     <absolute>
 0000:00000000       __hybrid_code_map          0000000000000000     <absolute>
 0000:00000000       __hybrid_code_map_count    0000000000000000     <absolute>
 0000:00000000       __hybrid_image_info_bitfield 0000000000000000     <absolute>
 0000:00000000       __volatile_metadata        0000000000000000     <absolute>
 0000:00000000       __x64_code_ranges_to_entry_points 0000000000000000     <absolute>
 0000:00000000       __x64_code_ranges_to_entry_points_count 0000000000000000     <absolute>
 0000:00000100       __guard_flags              0000000000000100     <absolute>
 0000:00000000       __ImageBase                0000000140000000     <linker-defined>
 0001:00000000       __enc$textbss$begin        0000000140001000     <linker-defined>
 0001:0002df95       __enc$textbss$end          000000014002ef95     <linker-defined>
 0002:00007df0       ??$?0$$V@?$_Compressed_pair@V?$allocator@D@std@@V?$_String_val@U?$_Simple_types@D@std@@@2@$00@std@@QEAA@U_Zero_then_variadic_args_t@1@@Z 0000000140036df0 f i Main.obj
 0002:00007e42       ??6?$basic_ostream@DU?$char_traits@D@std@@@std@@QEAAAEAV01@PEBX@Z 0000000140036e42 f   msvcprtd:MSVCP140D.dll
 0002:00007e48       ??6?$basic_ostream@DU?$char_traits@D@std@@@std@@QEAAAEAV01@_K@Z 0000000140036e48 f   msvcprtd:MSVCP140D.dll
 0002:00007e60       ??$?0$$V@?$_Compressed_pair@V?$allocator@U?$_List_node@UHalfEdge@?$Diagram@N@mygal@@PEAX@std@@@std@@V?$_List_val@U?$_List_simple_types@UHalfEdge@?$Diagram@N@mygal@@@std@@@2@$00@std@@QEAA@U_Zero_then_variadic_args_t@1@@Z 0000000140036e60 f i Main.obj
 0002:00007ed0       ??$?0$$V@?$_Compressed_pair@V?$allocator@U?$_List_node@UVertex@?$Diagram@N@mygal@@PEAX@std@@@std@@V?$_List_val@U?$_List_simple_types@UVertex@?$Diagram@N@mygal@@@std@@@2@$00@std@@QEAA@U_Zero_then_variadic_args_t@1@@Z 0000000140036ed0 f i Main.obj
 0002:00007f40       ??$?0$$V@?$_Compressed_pair@V?$allocator@U?$_List_node@V?$shared_ptr@UFace@NewDiagram@Voronoi@@@std@@PEAX@std@@@std@@V?$_List_val@U?$_List_simple_types@V?$shared_ptr@UFace@NewDiagram@Voronoi@@@std@@@std@@@2@$00@std@@QEAA@U_Zero_then_variadic_args_t@1@@Z 0000000140036f40 f i Main.obj
 0002:00007fb0       ??$?0$$V@?$_Compressed_pair@V?$allocator@U?$pair@VPoint2D@@N@std@@@std@@V?$_Vector_val@U?$_Simple_types@U?$pair@VPoint2D@@N@std@@@std@@@2@$00@std@@QEAA@U_Zero_then_variadic_args_t@1@@Z 0000000140036fb0 f i Main.obj
 0002:00008020       ??$?0$$V@?$_Compressed_pair@V?$allocator@UFace@?$Diagram@N@mygal@@@std@@V?$_Vector_val@U?$_Simple_types@UFace@?$Diagram@N@mygal@@@std@@@2@$00@std@@QEAA@U_Zero_then_variadic_args_t@1@@Z 0000000140037020 f i Main.obj
 0002:00008090       ??$?0$$V@?$_Compressed_pair@V?$allocator@USite@?$Diagram@N@mygal@@@std@@V?$_Vector_val@U?$_Simple_types@USite@?$Diagram@N@mygal@@@std@@@2@$00@std@@QEAA@U_Zero_then_variadic_args_t@1@@Z 0000000140037090 f i Main.obj
 0002:00008100       ??$?0$$V@?$_Compressed_pair@V?$allocator@V?$Vector2@N@mygal@@@std@@V?$_Vector_val@U?$_Simple_types@V?$Vector2@N@mygal@@@std@@@2@$00@std@@QEAA@U_Zero_then_variadic_args_t@1@@Z 0000000140037100 f i Main.obj
 0002:00008170       ??$?0$$V@?$_Compressed_pair@V?$allocator@V?$shared_ptr@USite@NewDiagram@Voronoi@@@std@@@std@@V?$_Vector_val@U?$_Simple_types@V?$shared_ptr@USite@NewDiagram@Voronoi@@@std@@@std@@@2@$00@std@@QEAA@U_Zero_then_variadic_args_t@1@@Z 0000000140037170 f i Main.obj
 0002:000081e0       ??$?0$$V@?$_Compressed_pair@V?$allocator@V?$unique_ptr@V?$Event@N@mygal@@U?$default_delete@V?$Event@N@mygal@@@std@@@std@@@std@@V?$_Vector_val@U?$_Simple_types@V?$unique_ptr@V?$Event@N@mygal@@U?$default_delete@V?$Event@N@mygal@@@std@@@std@@@std@@@2@$00@std@@QEAA@U_Zero_then_variadic_args_t@1@@Z 00000001400371e0 f i Main.obj
 0002:00008250       ??$?0$$V@?$_Compressed_pair@V?$allocator@VCircleShape@sf@@@std@@V?$_Vector_val@U?$_Simple_types@VCircleShape@sf@@@std@@@2@$00@std@@QEAA@U_Zero_then_variadic_args_t@1@@Z 0000000140037250 f i Main.obj
 0002:000082c0       ??$?0$$V@?$_List_node_emplace_op2@V?$allocator@U?$_List_node@UHalfEdge@?$Diagram@N@mygal@@PEAX@std@@@std@@@std@@QEAA@AEAV?$allocator@U?$_List_node@UHalfEdge@?$Diagram@N@mygal@@PEAX@std@@@1@@Z 00000001400372c0 f i Main.obj
 0002:00008380       ??$?0$$V@?$_List_node_emplace_op2@V?$allocator@U?$_List_node@UVertex@?$Diagram@N@mygal@@PEAX@std@@@std@@@std@@QEAA@AEAV?$allocator@U?$_List_node@UVertex@?$Diagram@N@mygal@@PEAX@std@@@1@@Z 0000000140037380 f i Main.obj
 0002:00008440       ??$?0$$V@?$_Ref_count_obj2@UFace@NewDiagram@Voronoi@@@std@@QEAA@XZ 0000000140037440 f i Main.obj
 0002:000084d0       ??$?0$$V@?$_Ref_count_obj2@UHalfEdge@NewDiagram@Voronoi@@@std@@QEAA@XZ 00000001400374d0 f i Main.obj
 0002:00008560       ??$?0$$V@?$_Ref_count_obj2@UVertex@NewDiagram@Voronoi@@@std@@QEAA@XZ 0000000140037560 f i Main.obj
 0002:000085f0       ??$?0AEAPEAU?$_List_node@U?$pair@QEAUFace@?$Diagram@N@mygal@@V?$shared_ptr@UFace@NewDiagram@Voronoi@@@std@@@std@@PEAX@std@@_N$0A@@?$pair@PEAU?$_List_node@U?$pair@QEAUFace@?$Diagram@N@mygal@@V?$shared_ptr@UFace@NewDiagram@Voronoi@@@std@@@std@@PEAX@std@@_N@std@@QEAA@AEAPEAU?$_List_node@U?$pair@QEAUFace@?$Diagram@N@mygal@@V?$shared_ptr@UFace@NewDiagram@Voronoi@@@std@@@std@@PEAX@1@$$QEA_N@Z 00000001400375f0 f i Main.obj
 0002:00008670       ??$?0AEAPEAU?$_List_node@U?$pair@QEAUHalfEdge@?$Diagram@N@mygal@@V?$shared_ptr@UHalfEdge@NewDiagram@Voronoi@@@std@@@std@@PEAX@std@@_N$0A@@?$pair@PEAU?$_List_node@U?$pair@QEAUHalfEdge@?$Diagram@N@mygal@@V?$shared_ptr@UHalfEdge@NewDiagram@Voronoi@@@std@@@std@@PEAX@std@@_N@std@@QEAA@AEAPEAU?$_List_node@U?$pair@QEAUHalfEdge@?$Diagram@N@mygal@@V?$shared_ptr@UHalfEdge@NewDiagram@Voronoi@@@std@@@std@@PEAX@1@$$QEA_N@Z 0000000140037670 f i Main.obj
 0002:000086f0       ??$?0AEAPEAU?$_List_node@U?$pair@QEAUVertex@?$Diagram@N@mygal@@V?$shared_ptr@UVertex@NewDiagram@Voronoi@@@std@@@std@@PEAX@std@@_N$0A@@?$pair@PEAU?$_List_node@U?$pair@QEAUVertex@?$Diagram@N@mygal@@V?$shared_ptr@UVertex@NewDiagram@Voronoi@@@std@@@std@@PEAX@std@@_N@std@@QEAA@AEAPEAU?$_List_node@U?$pair@QEAUVertex@?$Diagram@N@mygal@@V?$shared_ptr@UVertex@NewDiagram@Voronoi@@@std@@@std@@PEAX@1@$$QEA_N@Z 00000001400376f0 f i Main.obj
 0002:00008770       ??$?0AEAPEAV?$Event@N@mygal@@@?$_Compressed_pair@U?$default_delete@V?$Event@N@mygal@@@std@@PEAV?$Event@N@mygal@@$00@std@@QEAA@U_Zero_then_variadic_args_t@1@AEAPEAV?$Event@N@mygal@@@Z 0000000140037770 f i Main.obj
 0002:000087e0       ??$?0AEAPEAV_Facet_base@std@@@?$_Compressed_pair@U?$default_delete@V_Facet_base@std@@@std@@PEAV_Facet_base@2@$00@std@@QEAA@U_Zero_then_variadic_args_t@1@AEAPEAV_Facet_base@1@@Z 00000001400377e0 f i Main.obj
 0002:00008850       ??$?0AEA_KAEBVPoint2D@@AEBN@?$_Ref_count_obj2@USite@NewDiagram@Voronoi@@@std@@QEAA@AEA_KAEBVPoint2D@@AEBN@Z 0000000140037850 f i Main.obj
 0002:00008910       ??$?0AEBQEAUFace@?$Diagram@N@mygal@@$$Z$$V@?$pair@QEAUFace@?$Diagram@N@mygal@@V?$shared_ptr@UFace@NewDiagram@Voronoi@@@std@@@std@@QEAA@Upiecewise_construct_t@1@V?$tuple@AEBQEAUFace@?$Diagram@N@mygal@@@1@V?$tuple@$$V@1@@Z 0000000140037910 f i Main.obj
 0002:000089d0       ??$?0AEBQEAUFace@?$Diagram@N@mygal@@$0A@@?$tuple@AEBQEAUFace@?$Diagram@N@mygal@@@std@@QEAA@AEBQEAUFace@?$Diagram@N@mygal@@@Z 00000001400379d0 f i Main.obj
 0002:00008a40       ??$?0AEBQEAUFace@?$Diagram@N@mygal@@@?$_Tuple_val@AEBQEAUFace@?$Diagram@N@mygal@@@std@@QEAA@AEBQEAUFace@?$Diagram@N@mygal@@@Z 0000000140037a40 f i Main.obj
 0002:00008aa0       ??$?0AEBQEAUHalfEdge@?$Diagram@N@mygal@@$$Z$$V@?$pair@QEAUHalfEdge@?$Diagram@N@mygal@@V?$shared_ptr@UHalfEdge@NewDiagram@Voronoi@@@std@@@std@@QEAA@Upiecewise_construct_t@1@V?$tuple@AEBQEAUHalfEdge@?$Diagram@N@mygal@@@1@V?$tuple@$$V@1@@Z 0000000140037aa0 f i Main.obj
 0002:00008b60       ??$?0AEBQEAUHalfEdge@?$Diagram@N@mygal@@$0A@@?$tuple@AEBQEAUHalfEdge@?$Diagram@N@mygal@@@std@@QEAA@AEBQEAUHalfEdge@?$Diagram@N@mygal@@@Z 0000000140037b60 f i Main.obj
 0002:00008bd0       ??$?0AEBQEAUHalfEdge@?$Diagram@N@mygal@@@?$_Tuple_val@AEBQEAUHalfEdge@?$Diagram@N@mygal@@@std@@QEAA@AEBQEAUHalfEdge@?$Diagram@N@mygal@@@Z 0000000140037bd0 f i Main.obj
 0002:00008c30       ??$?0AEBQEAUVertex@?$Diagram@N@mygal@@$$Z$$V@?$pair@QEAUVertex@?$Diagram@N@mygal@@V?$shared_ptr@UVertex@NewDiagram@Voronoi@@@std@@@std@@QEAA@Upiecewise_construct_t@1@V?$tuple@AEBQEAUVertex@?$Diagram@N@mygal@@@1@V?$tuple@$$V@1@@Z 0000000140037c30 f i Main.obj
 0002:00008cf0       ??$?0AEBQEAUVertex@?$Diagram@N@mygal@@$0A@@?$tuple@AEBQEAUVertex@?$Diagram@N@mygal@@@std@@QEAA@AEBQEAUVertex@?$Diagram@N@mygal@@@Z 0000000140037cf0 f i Main.obj
 0002:00008d60       ??$?0AEBQEAUVertex@?$Diagram@N@mygal@@@?$_Tuple_val@AEBQEAUVertex@?$Diagram@N@mygal@@@std@@QEAA@AEBQEAUVertex@?$Diagram@N@mygal@@@Z 0000000140037d60 f i Main.obj
 0002:00008dc0       ??$?0AEBUpiecewise_construct_t@std@@V?$tuple@AEBQEAUFace@?$Diagram@N@mygal@@@1@V?$tuple@$$V@1@@?$_List_node_emplace_op2@V?$allocator@U?$_List_node@U?$pair@QEAUFace@?$Diagram@N@mygal@@V?$shared_ptr@UFace@NewDiagram@Voronoi@@@std@@@std@@PEAX@std@@@std@@@std@@QEAA@AEAV?$allocator@U?$_List_node@U?$pair@QEAUFace@?$Diagram@N@mygal@@V?$shared_ptr@UFace@NewDiagram@Voronoi@@@std@@@std@@PEAX@std@@@1@AEBUpiecewise_construct_t@1@$$QEAV?$tuple@AEBQEAUFace@?$Diagram@N@mygal@@@1@$$QEAV?$tuple@$$V@1@@Z 0000000140037dc0 f i Main.obj
 0002:00008eb0       ??$?0AEBUpiecewise_construct_t@std@@V?$tuple@AEBQEAUHalfEdge@?$Diagram@N@mygal@@@1@V?$tuple@$$V@1@@?$_List_node_emplace_op2@V?$allocator@U?$_List_node@U?$pair@QEAUHalfEdge@?$Diagram@N@mygal@@V?$shared_ptr@UHalfEdge@NewDiagram@Voronoi@@@std@@@std@@PEAX@std@@@std@@@std@@QEAA@AEAV?$allocator@U?$_List_node@U?$pair@QEAUHalfEdge@?$Diagram@N@mygal@@V?$shared_ptr@UHalfEdge@NewDiagram@Voronoi@@@std@@@std@@PEAX@std@@@1@AEBUpiecewise_construct_t@1@$$QEAV?$tuple@AEBQEAUHalfEdge@?$Diagram@N@mygal@@@1@$$QEAV?$tuple@$$V@1@@Z 0000000140037eb0 f i Main.obj
 0002:00008fa0       ??$?0AEBUpiecewise_construct_t@std@@V?$tuple@AEBQEAUVertex@?$Diagram@N@mygal@@@1@V?$tuple@$$V@1@@?$_List_node_emplace_op2@V?$allocator@U?$_List_node@U?$pair@QEAUVertex@?$Diagram@N@mygal@@V?$shared_ptr@UVertex@NewDiagram@Voronoi@@@std@@@std@@PEAX@std@@@std@@@std@@QEAA@AEAV?$allocator@U?$_List_node@U?$pair@QEAUVertex@?$Diagram@N@mygal@@V?$shared_ptr@UVertex@NewDiagram@Voronoi@@@std@@@std@@PEAX@std@@@1@AEBUpiecewise_construct_t@1@$$QEAV?$tuple@AEBQEAUVertex@?$Diagram@N@mygal@@@1@$$QEAV?$tuple@$$V@1@@Z 0000000140037fa0 f i Main.obj
 0002:00009090       ??$?0AEBV?$allocator@U?$pair@QEAUFace@?$Diagram@N@mygal@@V?$shared_ptr@UFace@NewDiagram@Voronoi@@@std@@@std@@@std@@$$V@?$_Compressed_pair@V?$allocator@U?$_List_node@U?$pair@QEAUFace@?$Diagram@N@mygal@@V?$shared_ptr@UFace@NewDiagram@Voronoi@@@std@@@std@@PEAX@std@@@std@@V?$_List_val@U?$_List_simple_types@U?$pair@QEAUFace@?$Diagram@N@mygal@@V?$shared_ptr@UFace@NewDiagram@Voronoi@@@std@@@std@@@std@@@2@$00@std@@QEAA@U_One_then_variadic_args_t@1@AEBV?$allocator@U?$pair@QEAUFace@?$Diagram@N@mygal@@V?$shared_ptr@UFace@NewDiagram@Voronoi@@@std@@@std@@@1@@Z 0000000140038090 f i Main.obj
 0002:00009110       ??$?0AEBV?$allocator@U?$pair@QEAUFace@?$Diagram@N@mygal@@V?$shared_ptr@UFace@NewDiagram@Voronoi@@@std@@@std@@@std@@$$V@?$_Compressed_pair@V?$allocator@V?$_List_unchecked_iterator@V?$_List_val@U?$_List_simple_types@U?$pair@QEAUFace@?$Diagram@N@mygal@@V?$shared_ptr@UFace@NewDiagram@Voronoi@@@std@@@std@@@std@@@std@@@std@@@std@@V?$_Vector_val@U?$_Simple_types@V?$_List_unchecked_iterator@V?$_List_val@U?$_List_simple_types@U?$pair@QEAUFace@?$Diagram@N@mygal@@V?$shared_ptr@UFace@NewDiagram@Voronoi@@@std@@@std@@@std@@@std@@@std@@@std@@@2@$00@std@@QEAA@U_One_then_variadic_args_t@1@AEBV?$allocator@U?$pair@QEAUFace@?$Diagram@N@mygal@@V?$shared_ptr@UFace@NewDiagram@Voronoi@@@std@@@std@@@1@@Z 0000000140038110 f i Main.obj
 0002:00009190       ??$?0AEBV?$allocator@U?$pair@QEAUFace@?$Diagram@N@mygal@@V?$shared_ptr@UFace@NewDiagram@Voronoi@@@std@@@std@@@std@@$0A@@?$_Hash_vec@V?$allocator@V?$_List_unchecked_iterator@V?$_List_val@U?$_List_simple_types@U?$pair@QEAUFace@?$Diagram@N@mygal@@V?$shared_ptr@UFace@NewDiagram@Voronoi@@@std@@@std@@@std@@@std@@@std@@@std@@@std@@QEAA@AEBV?$allocator@U?$pair@QEAUFace@?$Diagram@N@mygal@@V?$shared_ptr@UFace@NewDiagram@Voronoi@@@std@@@std@@@1@@Z 0000000140038190 f i Main.obj
 0002:00009260       ??$?0AEBV?$allocator@U?$pair@QEAUHalfEdge@?$Diagram@N@mygal@@V?$shared_ptr@UHalfEdge@NewDiagram@Voronoi@@@std@@@std@@@std@@$$V@?$_Compressed_pair@V?$allocator@U?$_List_node@U?$pair@QEAUHalfEdge@?$Diagram@N@mygal@@V?$shared_ptr@UHalfEdge@NewDiagram@Voronoi@@@std@@@std@@PEAX@std@@@std@@V?$_List_val@U?$_List_simple_types@U?$pair@QEAUHalfEdge@?$Diagram@N@mygal@@V?$shared_ptr@UHalfEdge@NewDiagram@Voronoi@@@std@@@std@@@std@@@2@$00@std@@QEAA@U_One_then_variadic_args_t@1@AEBV?$allocator@U?$pair@QEAUHalfEdge@?$Diagram@N@mygal@@V?$shared_ptr@UHalfEdge@NewDiagram@Voronoi@@@std@@@std@@@1@@Z 0000000140038260 f i Main.obj
 0002:000092e0       ??$?0AEBV?$allocator@U?$pair@QEAUHalfEdge@?$Diagram@N@mygal@@V?$shared_ptr@UHalfEdge@NewDiagram@Voronoi@@@std@@@std@@@std@@$$V@?$_Compressed_pair@V?$allocator@V?$_List_unchecked_iterator@V?$_List_val@U?$_List_simple_types@U?$pair@QEAUHalfEdge@?$Diagram@N@mygal@@V?$shared_ptr@UHalfEdge@NewDiagram@Voronoi@@@std@@@std@@@std@@@std@@@std@@@std@@V?$_Vector_val@U?$_Simple_types@V?$_List_unchecked_iterator@V?$_List_val@U?$_List_simple_types@U?$pair@QEAUHalfEdge@?$Diagram@N@mygal@@V?$shared_ptr@UHalfEdge@NewDiagram@Voronoi@@@std@@@std@@@std@@@std@@@std@@@std@@@2@$00@std@@QEAA@U_One_then_variadic_args_t@1@AEBV?$allocator@U?$pair@QEAUHalfEdge@?$Diagram@N@mygal@@V?$shared_ptr@UHalfEdge@NewDiagram@Voronoi@@@std@@@std@@@1@@Z 00000001400382e0 f i Main.obj
 0002:00009360       ??$?0AEBV?$allocator@U?$pair@QEAUHalfEdge@?$Diagram@N@mygal@@V?$shared_ptr@UHalfEdge@NewDiagram@Voronoi@@@std@@@std@@@std@@$0A@@?$_Hash_vec@V?$allocator@V?$_List_unchecked_iterator@V?$_List_val@U?$_List_simple_types@U?$pair@QEAUHalfEdge@?$Diagram@N@mygal@@V?$shared_ptr@UHalfEdge@NewDiagram@Voronoi@@@std@@@std@@@std@@@std@@@std@@@std@@@std@@QEAA@AEBV?$allocator@U?$pair@QEAUHalfEdge@?$Diagram@N@mygal@@V?$shared_ptr@UHalfEdge@NewDiagram@Voronoi@@@std@@@std@@@1@@Z 0000000140038360 f i Main.obj
 0002:00009430       ??$?0AEBV?$allocator@U?$pair@QEAUVertex@?$Diagram@N@mygal@@V?$shared_ptr@UVertex@NewDiagram@Voronoi@@@std@@@std@@@std@@$$V@?$_Compressed_pair@V?$allocator@U?$_List_node@U?$pair@QEAUVertex@?$Diagram@N@mygal@@V?$shared_ptr@UVertex@NewDiagram@Voronoi@@@std@@@std@@PEAX@std@@@std@@V?$_List_val@U?$_List_simple_types@U?$pair@QEAUVertex@?$Diagram@N@mygal@@V?$shared_ptr@UVertex@NewDiagram@Voronoi@@@std@@@std@@@std@@@2@$00@std@@QEAA@U_One_then_variadic_args_t@1@AEBV?$allocator@U?$pair@QEAUVertex@?$Diagram@N@mygal@@V?$shared_ptr@UVertex@NewDiagram@Voronoi@@@std@@@std@@@1@@Z 0000000140038430 f i Main.obj
 0002:000094b0       ??$?0AEBV?$allocator@U?$pair@QEAUVertex@?$Diagram@N@mygal@@V?$shared_ptr@UVertex@NewDiagram@Voronoi@@@std@@@std@@@std@@$$V@?$_Compressed_pair@V?$allocator@V?$_List_unchecked_iterator@V?$_List_val@U?$_List_simple_types@U?$pair@QEAUVertex@?$Diagram@N@mygal@@V?$shared_ptr@UVertex@NewDiagram@Voronoi@@@std@@@std@@@std@@@std@@@std@@@std@@V?$_Vector_val@U?$_Simple_types@V?$_List_unchecked_iterator@V?$_List_val@U?$_List_simple_types@U?$pair@QEAUVertex@?$Diagram@N@mygal@@V?$shared_ptr@UVertex@NewDiagram@Voronoi@@@std@@@std@@@std@@@std@@@std@@@std@@@2@$00@std@@QEAA@U_One_then_variadic_args_t@1@AEBV?$allocator@U?$pair@QEAUVertex@?$Diagram@N@mygal@@V?$shared_ptr@UVertex@NewDiagram@Voronoi@@@std@@@std@@@1@@Z 00000001400384b0 f i Main.obj
 0002:00009530       ??$?0AEBV?$allocator@U?$pair@QEAUVertex@?$Diagram@N@mygal@@V?$shared_ptr@UVertex@NewDiagram@Voronoi@@@std@@@std@@@std@@$0A@@?$_Hash_vec@V?$allocator@V?$_List_unchecked_iterator@V?$_List_val@U?$_List_simple_types@U?$pair@QEAUVertex@?$Diagram@N@mygal@@V?$shared_ptr@UVertex@NewDiagram@Voronoi@@@std@@@std@@@std@@@std@@@std@@@std@@@std@@QEAA@AEBV?$allocator@U?$pair@QEAUVertex@?$Diagram@N@mygal@@V?$shared_ptr@UVertex@NewDiagram@Voronoi@@@std@@@std@@@1@@Z 0000000140038530 f i Main.obj
 0002:00009600       ??$?0AEBV?$allocator@V?$shared_ptr@USite@NewDiagram@Voronoi@@@std@@@std@@$$V@?$_Compressed_pair@V?$allocator@V?$shared_ptr@USite@NewDiagram@Voronoi@@@std@@@std@@V?$_Vector_val@U?$_Simple_types@V?$shared_ptr@USite@NewDiagram@Voronoi@@@std@@@std@@@2@$00@std@@QEAA@U_One_then_variadic_args_t@1@AEBV?$allocator@V?$shared_ptr@USite@NewDiagram@Voronoi@@@std@@@1@@Z 0000000140038600 f i Main.obj
 0002:00009660       ??$?0D@?$allocator@U_Container_proxy@std@@@std@@QEAA@AEBV?$allocator@D@1@@Z 0000000140038660 f i Main.obj
 0002:000096b0       ??$?0M@?$_Compressed_pair@U?$equal_to@PEAUFace@?$Diagram@N@mygal@@@std@@M$00@std@@QEAA@U_Zero_then_variadic_args_t@1@$$QEAM@Z 00000001400386b0 f i Main.obj
 0002:00009720       ??$?0M@?$_Compressed_pair@U?$equal_to@PEAUHalfEdge@?$Diagram@N@mygal@@@std@@M$00@std@@QEAA@U_Zero_then_variadic_args_t@1@$$QEAM@Z 0000000140038720 f i Main.obj
 0002:00009790       ??$?0M@?$_Compressed_pair@U?$equal_to@PEAUVertex@?$Diagram@N@mygal@@@std@@M$00@std@@QEAA@U_Zero_then_variadic_args_t@1@$$QEAM@Z 0000000140038790 f i Main.obj
 0002:00009800       ??$?0PEAU?$_List_node@U?$pair@QEAUFace@?$Diagram@N@mygal@@V?$shared_ptr@UFace@NewDiagram@Voronoi@@@std@@@std@@PEAX@std@@_N$0A@@?$pair@PEAU?$_List_node@U?$pair@QEAUFace@?$Diagram@N@mygal@@V?$shared_ptr@UFace@NewDiagram@Voronoi@@@std@@@std@@PEAX@std@@_N@std@@QEAA@$$QEAPEAU?$_List_node@U?$pair@QEAUFace@?$Diagram@N@mygal@@V?$shared_ptr@UFace@NewDiagram@Voronoi@@@std@@@std@@PEAX@1@$$QEA_N@Z 0000000140038800 f i Main.obj
 0002:00009880       ??$?0PEAU?$_List_node@U?$pair@QEAUHalfEdge@?$Diagram@N@mygal@@V?$shared_ptr@UHalfEdge@NewDiagram@Voronoi@@@std@@@std@@PEAX@std@@_N$0A@@?$pair@PEAU?$_List_node@U?$pair@QEAUHalfEdge@?$Diagram@N@mygal@@V?$shared_ptr@UHalfEdge@NewDiagram@Voronoi@@@std@@@std@@PEAX@std@@_N@std@@QEAA@$$QEAPEAU?$_List_node@U?$pair@QEAUHalfEdge@?$Diagram@N@mygal@@V?$shared_ptr@UHalfEdge@NewDiagram@Voronoi@@@std@@@std@@PEAX@1@$$QEA_N@Z 0000000140038880 f i Main.obj
 0002:00009900       ??$?0PEAU?$_List_node@U?$pair@QEAUVertex@?$Diagram@N@mygal@@V?$shared_ptr@UVertex@NewDiagram@Voronoi@@@std@@@std@@PEAX@std@@_N$0A@@?$pair@PEAU?$_List_node@U?$pair@QEAUVertex@?$Diagram@N@mygal@@V?$shared_ptr@UVertex@NewDiagram@Voronoi@@@std@@@std@@PEAX@std@@_N@std@@QEAA@$$QEAPEAU?$_List_node@U?$pair@QEAUVertex@?$Diagram@N@mygal@@V?$shared_ptr@UVertex@NewDiagram@Voronoi@@@std@@@std@@PEAX@1@$$QEA_N@Z 0000000140038900 f i Main.obj
 0002:00009980       ??$?0U?$_List_node@U?$pair@QEAUFace@?$Diagram@N@mygal@@V?$shared_ptr@UFace@NewDiagram@Voronoi@@@std@@@std@@PEAX@std@@@?$allocator@U_Container_proxy@std@@@std@@QEAA@AEBV?$allocator@U?$_List_node@U?$pair@QEAUFace@?$Diagram@N@mygal@@V?$shared_ptr@UFace@NewDiagram@Voronoi@@@std@@@std@@PEAX@std@@@1@@Z 0000000140038980 f i Main.obj
 0002:000099d0       ??$?0U?$_List_node@U?$pair@QEAUHalfEdge@?$Diagram@N@mygal@@V?$shared_ptr@UHalfEdge@NewDiagram@Voronoi@@@std@@@std@@PEAX@std@@@?$allocator@U_Container_proxy@std@@@std@@QEAA@AEBV?$allocator@U?$_List_node@U?$pair@QEAUHalfEdge@?$Diagram@N@mygal@@V?$shared_ptr@UHalfEdge@NewDiagram@Voronoi@@@std@@@std@@PEAX@std@@@1@@Z 00000001400389d0 f i Main.obj
 0002:00009a20       ??$?0U?$_List_node@U?$pair@QEAUVertex@?$Diagram@N@mygal@@V?$shared_ptr@UVertex@NewDiagram@Voronoi@@@std@@@std@@PEAX@std@@@?$allocator@U_Container_proxy@std@@@std@@QEAA@AEBV?$allocator@U?$_List_node@U?$pair@QEAUVertex@?$Diagram@N@mygal@@V?$shared_ptr@UVertex@NewDiagram@Voronoi@@@std@@@std@@PEAX@std@@@1@@Z 0000000140038a20 f i Main.obj
 0002:00009a70       ??$?0U?$_List_node@UHalfEdge@?$Diagram@N@mygal@@PEAX@std@@@?$allocator@U_Container_proxy@std@@@std@@QEAA@AEBV?$allocator@U?$_List_node@UHalfEdge@?$Diagram@N@mygal@@PEAX@std@@@1@@Z 0000000140038a70 f i Main.obj
 0002:00009ac0       ??$?0U?$_List_node@UVertex@?$Diagram@N@mygal@@PEAX@std@@@?$allocator@U_Container_proxy@std@@@std@@QEAA@AEBV?$allocator@U?$_List_node@UVertex@?$Diagram@N@mygal@@PEAX@std@@@1@@Z 0000000140038ac0 f i Main.obj
 0002:00009b10       ??$?0U?$_List_node@V?$shared_ptr@UFace@NewDiagram@Voronoi@@@std@@PEAX@std@@@?$allocator@U_Container_proxy@std@@@std@@QEAA@AEBV?$allocator@U?$_List_node@V?$shared_ptr@UFace@NewDiagram@Voronoi@@@std@@PEAX@std@@@1@@Z 0000000140038b10 f i Main.obj
 0002:00009b60       ??$?0U?$default_delete@V?$Event@N@mygal@@@std@@$0A@@?$unique_ptr@V?$Event@N@mygal@@U?$default_delete@V?$Event@N@mygal@@@std@@@std@@QEAA@$$QEAV01@@Z 0000000140038b60 f i Main.obj
 0002:00009c20       ??$?0U?$default_delete@V?$Event@N@mygal@@@std@@$0A@@?$unique_ptr@V?$Event@N@mygal@@U?$default_delete@V?$Event@N@mygal@@@std@@@std@@QEAA@PEAV?$Event@N@mygal@@@Z 0000000140038c20 f i Main.obj
 0002:00009ca0       ??$?0U?$default_delete@V?$Event@N@mygal@@@std@@PEAV?$Event@N@mygal@@@?$_Compressed_pair@U?$default_delete@V?$Event@N@mygal@@@std@@PEAV?$Event@N@mygal@@$00@std@@QEAA@U_One_then_variadic_args_t@1@$$QEAU?$default_delete@V?$Event@N@mygal@@@1@$$QEAPEAV?$Event@N@mygal@@@Z 0000000140038ca0 f i Main.obj
 0002:00009d10       ??$?0U?$default_delete@V_Facet_base@std@@@std@@$0A@@?$unique_ptr@V_Facet_base@std@@U?$default_delete@V_Facet_base@std@@@2@@std@@QEAA@PEAV_Facet_base@1@@Z 0000000140038d10 f i Main.obj
 0002:00009d90       ??$?0U?$pair@QEAUFace@?$Diagram@N@mygal@@V?$shared_ptr@UFace@NewDiagram@Voronoi@@@std@@@std@@@?$allocator@U?$_List_node@U?$pair@QEAUFace@?$Diagram@N@mygal@@V?$shared_ptr@UFace@NewDiagram@Voronoi@@@std@@@std@@PEAX@std@@@std@@QEAA@AEBV?$allocator@U?$pair@QEAUFace@?$Diagram@N@mygal@@V?$shared_ptr@UFace@NewDiagram@Voronoi@@@std@@@std@@@1@@Z 0000000140038d90 f i Main.obj
 0002:00009de0       ??$?0U?$pair@QEAUFace@?$Diagram@N@mygal@@V?$shared_ptr@UFace@NewDiagram@Voronoi@@@std@@@std@@@?$allocator@V?$_List_unchecked_iterator@V?$_List_val@U?$_List_simple_types@U?$pair@QEAUFace@?$Diagram@N@mygal@@V?$shared_ptr@UFace@NewDiagram@Voronoi@@@std@@@std@@@std@@@std@@@std@@@std@@QEAA@AEBV?$allocator@U?$pair@QEAUFace@?$Diagram@N@mygal@@V?$shared_ptr@UFace@NewDiagram@Voronoi@@@std@@@std@@@1@@Z 0000000140038de0 f i Main.obj
 0002:00009e30       ??$?0U?$pair@QEAUHalfEdge@?$Diagram@N@mygal@@V?$shared_ptr@UHalfEdge@NewDiagram@Voronoi@@@std@@@std@@@?$allocator@U?$_List_node@U?$pair@QEAUHalfEdge@?$Diagram@N@mygal@@V?$shared_ptr@UHalfEdge@NewDiagram@Voronoi@@@std@@@std@@PEAX@std@@@std@@QEAA@AEBV?$allocator@U?$pair@QEAUHalfEdge@?$Diagram@N@mygal@@V?$shared_ptr@UHalfEdge@NewDiagram@Voronoi@@@std@@@std@@@1@@Z 0000000140038e30 f i Main.obj
 0002:00009e80       ??$?0U?$pair@QEAUHalfEdge@?$Diagram@N@mygal@@V?$shared_ptr@UHalfEdge@NewDiagram@Voronoi@@@std@@@std@@@?$allocator@V?$_List_unchecked_iterator@V?$_List_val@U?$_List_simple_types@U?$pair@QEAUHalfEdge@?$Diagram@N@mygal@@V?$shared_ptr@UHalfEdge@NewDiagram@Voronoi@@@std@@@std@@@std@@@std@@@std@@@std@@QEAA@AEBV?$allocator@U?$pair@QEAUHalfEdge@?$Diagram@N@mygal@@V?$shared_ptr@UHalfEdge@NewDiagram@Voronoi@@@std@@@std@@@1@@Z 0000000140038e80 f i Main.obj
 0002:00009ed0       ??$?0U?$pair@QEAUVertex@?$Diagram@N@mygal@@V?$shared_ptr@UVertex@NewDiagram@Voronoi@@@std@@@std@@@?$allocator@U?$_List_node@U?$pair@QEAUVertex@?$Diagram@N@mygal@@V?$shared_ptr@UVertex@NewDiagram@Voronoi@@@std@@@std@@PEAX@std@@@std@@QEAA@AEBV?$allocator@U?$pair@QEAUVertex@?$Diagram@N@mygal@@V?$shared_ptr@UVertex@NewDiagram@Voronoi@@@std@@@std@@@1@@Z 0000000140038ed0 f i Main.obj
 0002:00009f20       ??$?0U?$pair@QEAUVertex@?$Diagram@N@mygal@@V?$shared_ptr@UVertex@NewDiagram@Voronoi@@@std@@@std@@@?$allocator@V?$_List_unchecked_iterator@V?$_List_val@U?$_List_simple_types@U?$pair@QEAUVertex@?$Diagram@N@mygal@@V?$shared_ptr@UVertex@NewDiagram@Voronoi@@@std@@@std@@@std@@@std@@@std@@@std@@QEAA@AEBV?$allocator@U?$pair@QEAUVertex@?$Diagram@N@mygal@@V?$shared_ptr@UVertex@NewDiagram@Voronoi@@@std@@@std@@@1@@Z 0000000140038f20 f i Main.obj
 0002:00009f70       ??$?0U?$pair@VPoint2D@@N@std@@@?$allocator@U_Container_proxy@std@@@std@@QEAA@AEBV?$allocator@U?$pair@VPoint2D@@N@std@@@1@@Z 0000000140038f70 f i Main.obj
 0002:00009fc0       ??$?0UFace@?$Diagram@N@mygal@@@?$allocator@U_Container_proxy@std@@@std@@QEAA@AEBV?$allocator@UFace@?$Diagram@N@mygal@@@1@@Z 0000000140038fc0 f i Main.obj
 0002:0000a010       ??$?0USite@?$Diagram@N@mygal@@@?$allocator@U_Container_proxy@std@@@std@@QEAA@AEBV?$allocator@USite@?$Diagram@N@mygal@@@1@@Z 0000000140039010 f i Main.obj
 0002:0000a060       ??$?0U_Exact_args_t@std@@$0A@@?$tuple@$$V@std@@QEAA@U_Exact_args_t@1@@Z 0000000140039060 f i Main.obj
 0002:0000a0b0       ??$?0U_Exact_args_t@std@@AEBQEAUFace@?$Diagram@N@mygal@@$$V$0A@@?$tuple@AEBQEAUFace@?$Diagram@N@mygal@@@std@@QEAA@U_Exact_args_t@1@AEBQEAUFace@?$Diagram@N@mygal@@@Z 00000001400390b0 f i Main.obj
 0002:0000a140       ??$?0U_Exact_args_t@std@@AEBQEAUHalfEdge@?$Diagram@N@mygal@@$$V$0A@@?$tuple@AEBQEAUHalfEdge@?$Diagram@N@mygal@@@std@@QEAA@U_Exact_args_t@1@AEBQEAUHalfEdge@?$Diagram@N@mygal@@@Z 0000000140039140 f i Main.obj
 0002:0000a1d0       ??$?0U_Exact_args_t@std@@AEBQEAUVertex@?$Diagram@N@mygal@@$$V$0A@@?$tuple@AEBQEAUVertex@?$Diagram@N@mygal@@@std@@QEAA@U_Exact_args_t@1@AEBQEAUVertex@?$Diagram@N@mygal@@@Z 00000001400391d0 f i Main.obj
 0002:0000a260       ??$?0U_Zero_then_variadic_args_t@std@@M@?$_Compressed_pair@U?$hash@PEAUFace@?$Diagram@N@mygal@@@std@@V?$_Compressed_pair@U?$equal_to@PEAUFace@?$Diagram@N@mygal@@@std@@M$00@2@$00@std@@QEAA@U_Zero_then_variadic_args_t@1@$$QEAU21@$$QEAM@Z 0000000140039260 f i Main.obj
 0002:0000a2f0       ??$?0U_Zero_then_variadic_args_t@std@@M@?$_Compressed_pair@U?$hash@PEAUHalfEdge@?$Diagram@N@mygal@@@std@@V?$_Compressed_pair@U?$equal_to@PEAUHalfEdge@?$Diagram@N@mygal@@@std@@M$00@2@$00@std@@QEAA@U_Zero_then_variadic_args_t@1@$$QEAU21@$$QEAM@Z 00000001400392f0 f i Main.obj
 0002:0000a380       ??$?0U_Zero_then_variadic_args_t@std@@M@?$_Compressed_pair@U?$hash@PEAUVertex@?$Diagram@N@mygal@@@std@@V?$_Compressed_pair@U?$equal_to@PEAUVertex@?$Diagram@N@mygal@@@std@@M$00@2@$00@std@@QEAA@U_Zero_then_variadic_args_t@1@$$QEAU21@$$QEAM@Z 0000000140039380 f i Main.obj
 0002:0000a410       ??$?0V?$Vector2@N@mygal@@@?$allocator@U_Container_proxy@std@@@std@@QEAA@AEBV?$allocator@V?$Vector2@N@mygal@@@1@@Z 0000000140039410 f i Main.obj
 0002:0000a460       ??$?0V?$_List_unchecked_iterator@V?$_List_val@U?$_List_simple_types@U?$pair@QEAUFace@?$Diagram@N@mygal@@V?$shared_ptr@UFace@NewDiagram@Voronoi@@@std@@@std@@@std@@@std@@@std@@@?$allocator@U_Container_proxy@std@@@std@@QEAA@AEBV?$allocator@V?$_List_unchecked_iterator@V?$_List_val@U?$_List_simple_types@U?$pair@QEAUFace@?$Diagram@N@mygal@@V?$shared_ptr@UFace@NewDiagram@Voronoi@@@std@@@std@@@std@@@std@@@std@@@1@@Z 0000000140039460 f i Main.obj
 0002:0000a4b0       ??$?0V?$_List_unchecked_iterator@V?$_List_val@U?$_List_simple_types@U?$pair@QEAUHalfEdge@?$Diagram@N@mygal@@V?$shared_ptr@UHalfEdge@NewDiagram@Voronoi@@@std@@@std@@@std@@@std@@@std@@@?$allocator@U_Container_proxy@std@@@std@@QEAA@AEBV?$allocator@V?$_List_unchecked_iterator@V?$_List_val@U?$_List_simple_types@U?$pair@QEAUHalfEdge@?$Diagram@N@mygal@@V?$shared_ptr@UHalfEdge@NewDiagram@Voronoi@@@std@@@std@@@std@@@std@@@std@@@1@@Z 00000001400394b0 f i Main.obj
 0002:0000a500       ??$?0V?$_List_unchecked_iterator@V?$_List_val@U?$_List_simple_types@U?$pair@QEAUVertex@?$Diagram@N@mygal@@V?$shared_ptr@UVertex@NewDiagram@Voronoi@@@std@@@std@@@std@@@std@@@std@@@?$allocator@U_Container_proxy@std@@@std@@QEAA@AEBV?$allocator@V?$_List_unchecked_iterator@V?$_List_val@U?$_List_simple_types@U?$pair@QEAUVertex@?$Diagram@N@mygal@@V?$shared_ptr@UVertex@NewDiagram@Voronoi@@@std@@@std@@@std@@@std@@@std@@@1@@Z 0000000140039500 f i Main.obj
 0002:0000a550       ??$?0V?$allocator@U?$_List_node@UHalfEdge@?$Diagram@N@mygal@@PEAX@std@@@std@@$$V@?$_Compressed_pair@V?$allocator@U?$_List_node@UHalfEdge@?$Diagram@N@mygal@@PEAX@std@@@std@@V?$_List_val@U?$_List_simple_types@UHalfEdge@?$Diagram@N@mygal@@@std@@@2@$00@std@@QEAA@U_One_then_variadic_args_t@1@$$QEAV?$allocator@U?$_List_node@UHalfEdge@?$Diagram@N@mygal@@PEAX@std@@@1@@Z 0000000140039550 f i Main.obj
 0002:0000a5b0       ??$?0V?$allocator@U?$_List_node@UVertex@?$Diagram@N@mygal@@PEAX@std@@@std@@$$V@?$_Compressed_pair@V?$allocator@U?$_List_node@UVertex@?$Diagram@N@mygal@@PEAX@std@@@std@@V?$_List_val@U?$_List_simple_types@UVertex@?$Diagram@N@mygal@@@std@@@2@$00@std@@QEAA@U_One_then_variadic_args_t@1@$$QEAV?$allocator@U?$_List_node@UVertex@?$Diagram@N@mygal@@PEAX@std@@@1@@Z 00000001400395b0 f i Main.obj
 0002:0000a610       ??$?0V?$allocator@UFace@?$Diagram@N@mygal@@@std@@PEAUFace@?$Diagram@N@mygal@@PEAU234@PEAU234@@?$_Compressed_pair@V?$allocator@UFace@?$Diagram@N@mygal@@@std@@V?$_Vector_val@U?$_Simple_types@UFace@?$Diagram@N@mygal@@@std@@@2@$00@std@@QEAA@U_One_then_variadic_args_t@1@$$QEAV?$allocator@UFace@?$Diagram@N@mygal@@@1@$$QEAPEAUFace@?$Diagram@N@mygal@@22@Z 0000000140039610 f i Main.obj
 0002:0000a6b0       ??$?0V?$allocator@USite@?$Diagram@N@mygal@@@std@@PEAUSite@?$Diagram@N@mygal@@PEAU234@PEAU234@@?$_Compressed_pair@V?$allocator@USite@?$Diagram@N@mygal@@@std@@V?$_Vector_val@U?$_Simple_types@USite@?$Diagram@N@mygal@@@std@@@2@$00@std@@QEAA@U_One_then_variadic_args_t@1@$$QEAV?$allocator@USite@?$Diagram@N@mygal@@@1@$$QEAPEAUSite@?$Diagram@N@mygal@@22@Z 00000001400396b0 f i Main.obj
 0002:0000a750       ??$?0V?$allocator@V?$Vector2@N@mygal@@@std@@$$V@?$_Compressed_pair@V?$allocator@V?$Vector2@N@mygal@@@std@@V?$_Vector_val@U?$_Simple_types@V?$Vector2@N@mygal@@@std@@@2@$00@std@@QEAA@U_One_then_variadic_args_t@1@$$QEAV?$allocator@V?$Vector2@N@mygal@@@1@@Z 0000000140039750 f i Main.obj
 0002:0000a7b0       ??$?0V?$shared_ptr@UFace@NewDiagram@Voronoi@@@std@@@?$_List_node_emplace_op2@V?$allocator@U?$_List_node@V?$shared_ptr@UFace@NewDiagram@Voronoi@@@std@@PEAX@std@@@std@@@std@@QEAA@AEAV?$allocator@U?$_List_node@V?$shared_ptr@UFace@NewDiagram@Voronoi@@@std@@PEAX@std@@@1@$$QEAV?$shared_ptr@UFace@NewDiagram@Voronoi@@@1@@Z 00000001400397b0 f i Main.obj
 0002:0000a880       ??$?0V?$shared_ptr@USite@NewDiagram@Voronoi@@@std@@@?$allocator@U_Container_proxy@std@@@std@@QEAA@AEBV?$allocator@V?$shared_ptr@USite@NewDiagram@Voronoi@@@std@@@1@@Z 0000000140039880 f i Main.obj
 0002:0000a8d0       ??$?0V?$tuple@AEBQEAUFace@?$Diagram@N@mygal@@@std@@V?$tuple@$$V@1@$0A@$$Z$S@?$pair@QEAUFace@?$Diagram@N@mygal@@V?$shared_ptr@UFace@NewDiagram@Voronoi@@@std@@@std@@QEAA@AEAV?$tuple@AEBQEAUFace@?$Diagram@N@mygal@@@1@AEAV?$tuple@$$V@1@U?$integer_sequence@_K$0A@@1@U?$integer_sequence@_K$S@1@@Z 00000001400398d0 f i Main.obj
 0002:0000a980       ??$?0V?$tuple@AEBQEAUHalfEdge@?$Diagram@N@mygal@@@std@@V?$tuple@$$V@1@$0A@$$Z$S@?$pair@QEAUHalfEdge@?$Diagram@N@mygal@@V?$shared_ptr@UHalfEdge@NewDiagram@Voronoi@@@std@@@std@@QEAA@AEAV?$tuple@AEBQEAUHalfEdge@?$Diagram@N@mygal@@@1@AEAV?$tuple@$$V@1@U?$integer_sequence@_K$0A@@1@U?$integer_sequence@_K$S@1@@Z 0000000140039980 f i Main.obj
 0002:0000aa30       ??$?0V?$tuple@AEBQEAUVertex@?$Diagram@N@mygal@@@std@@V?$tuple@$$V@1@$0A@$$Z$S@?$pair@QEAUVertex@?$Diagram@N@mygal@@V?$shared_ptr@UVertex@NewDiagram@Voronoi@@@std@@@std@@QEAA@AEAV?$tuple@AEBQEAUVertex@?$Diagram@N@mygal@@@1@AEAV?$tuple@$$V@1@U?$integer_sequence@_K$0A@@1@U?$integer_sequence@_K$S@1@@Z 0000000140039a30 f i Main.obj
 0002:0000aae0       ??$?0V?$unique_ptr@V?$Event@N@mygal@@U?$default_delete@V?$Event@N@mygal@@@std@@@std@@@?$allocator@U_Container_proxy@std@@@std@@QEAA@AEBV?$allocator@V?$unique_ptr@V?$Event@N@mygal@@U?$default_delete@V?$Event@N@mygal@@@std@@@std@@@1@@Z 0000000140039ae0 f i Main.obj
 0002:0000ab30       ??$?0VCircleShape@sf@@@?$allocator@U_Container_proxy@std@@@std@@QEAA@AEBV?$allocator@VCircleShape@sf@@@1@@Z 0000000140039b30 f i Main.obj
 0002:0000ab80       ??$?0VPoint2D@@AEAN$0A@@?$pair@VPoint2D@@N@std@@QEAA@$$QEAVPoint2D@@AEAN@Z 0000000140039b80 f i Main.obj
 0002:0000ac20       ??$?6N@mygal@@YAAEAV?$basic_ostream@DU?$char_traits@D@std@@@std@@AEAV12@AEBV?$Vector2@N@0@@Z 0000000140039c20 f i Main.obj
 0002:0000ad20       ??$?6U?$char_traits@D@std@@@std@@YAAEAV?$basic_ostream@DU?$char_traits@D@std@@@0@AEAV10@PEBD@Z 0000000140039d20 f i Main.obj
 0002:0000b140       ??$?9USite@NewDiagram@Voronoi@@U012@@std@@YA_NAEBV?$shared_ptr@USite@NewDiagram@Voronoi@@@0@0@Z 000000014003a140 f i MinKnapsack.obj
 0002:0000b1c0       ??$_Freenode@V?$allocator@U?$_List_node@PEAUSpecial_vertex@@PEAX@std@@@std@@@?$_List_node@PEAUSpecial_vertex@@PEAX@std@@SAXAEAV?$allocator@U?$_List_node@PEAUSpecial_vertex@@PEAX@std@@@1@PEAU01@@Z 000000014003a1c0 f i MinKnapsack.obj
 0002:0000b240       ??$?8UHalfEdge@NewDiagram@Voronoi@@@std@@YA_NAEBV?$shared_ptr@UHalfEdge@NewDiagram@Voronoi@@@0@$$T@Z 000000014003a240 f i Main.obj
 0002:0000b2c0       ??$?9UHalfEdge@NewDiagram@Voronoi@@U012@@std@@YA_NAEBV?$shared_ptr@UHalfEdge@NewDiagram@Voronoi@@@0@0@Z 000000014003a2c0 f i Main.obj
 0002:0000b360       ??$?9UVertex@NewDiagram@Voronoi@@@std@@YA_NAEBV?$shared_ptr@UVertex@NewDiagram@Voronoi@@@0@$$T@Z 000000014003a360 f i Main.obj
 0002:0000b3e0       ??$?CUFace@NewDiagram@Voronoi@@$0A@@?$shared_ptr@UFace@NewDiagram@Voronoi@@@std@@QEBAPEAUFace@NewDiagram@Voronoi@@XZ 000000014003a3e0 f i Main.obj
 0002:0000b430       ??$?CUHalfEdge@NewDiagram@Voronoi@@$0A@@?$shared_ptr@UHalfEdge@NewDiagram@Voronoi@@@std@@QEBAPEAUHalfEdge@NewDiagram@Voronoi@@XZ 000000014003a430 f i Main.obj
 0002:0000b480       ??$?CUSite@NewDiagram@Voronoi@@$0A@@?$shared_ptr@USite@NewDiagram@Voronoi@@@std@@QEBAPEAUSite@NewDiagram@Voronoi@@XZ 000000014003a480 f i Main.obj
 0002:0000b4d0       ??$?CUVertex@NewDiagram@Voronoi@@$0A@@?$shared_ptr@UVertex@NewDiagram@Voronoi@@@std@@QEBAPEAUVertex@NewDiagram@Voronoi@@XZ 000000014003a4d0 f i Main.obj
 0002:0000b520       ??$?DN@mygal@@YA?AV?$Vector2@N@0@NV10@@Z 000000014003a520 f i Main.obj
 0002:0000b5b0       ??$?GN@mygal@@YA?AV?$Vector2@N@0@V10@AEBV10@@Z 000000014003a5b0 f i Main.obj
 0002:0000b630       ??$?HN@mygal@@YA?AV?$Vector2@N@0@V10@AEBV10@@Z 000000014003a630 f i Main.obj
 0002:0000b6b0       ??$?MN@mygal@@YA_NAEBV?$Event@N@0@0@Z 000000014003a6b0 f i Main.obj
 0002:0000b780       ??$?RPEAUFace@?$Diagram@N@mygal@@@?$_Uhash_compare@PEAUFace@?$Diagram@N@mygal@@U?$hash@PEAUFace@?$Diagram@N@mygal@@@std@@U?$equal_to@PEAUFace@?$Diagram@N@mygal@@@5@@std@@QEBA_KAEBQEAUFace@?$Diagram@N@mygal@@@Z 000000014003a780 f i Main.obj
 0002:0000b7f0       ??$?RPEAUFace@?$Diagram@N@mygal@@PEAU012@@?$_Uhash_compare@PEAUFace@?$Diagram@N@mygal@@U?$hash@PEAUFace@?$Diagram@N@mygal@@@std@@U?$equal_to@PEAUFace@?$Diagram@N@mygal@@@5@@std@@QEBA_NAEBQEAUFace@?$Diagram@N@mygal@@0@Z 000000014003a7f0 f i Main.obj
 0002:0000b8a0       ??$?RPEAUHalfEdge@?$Diagram@N@mygal@@@?$_Uhash_compare@PEAUHalfEdge@?$Diagram@N@mygal@@U?$hash@PEAUHalfEdge@?$Diagram@N@mygal@@@std@@U?$equal_to@PEAUHalfEdge@?$Diagram@N@mygal@@@5@@std@@QEBA_KAEBQEAUHalfEdge@?$Diagram@N@mygal@@@Z 000000014003a8a0 f i Main.obj
 0002:0000b910       ??$?RPEAUHalfEdge@?$Diagram@N@mygal@@PEAU012@@?$_Uhash_compare@PEAUHalfEdge@?$Diagram@N@mygal@@U?$hash@PEAUHalfEdge@?$Diagram@N@mygal@@@std@@U?$equal_to@PEAUHalfEdge@?$Diagram@N@mygal@@@5@@std@@QEBA_NAEBQEAUHalfEdge@?$Diagram@N@mygal@@0@Z 000000014003a910 f i Main.obj
 0002:0000b9c0       ??$?RPEAUVertex@?$Diagram@N@mygal@@@?$_Uhash_compare@PEAUVertex@?$Diagram@N@mygal@@U?$hash@PEAUVertex@?$Diagram@N@mygal@@@std@@U?$equal_to@PEAUVertex@?$Diagram@N@mygal@@@5@@std@@QEBA_KAEBQEAUVertex@?$Diagram@N@mygal@@@Z 000000014003a9c0 f i Main.obj
 0002:0000ba30       ??$?RPEAUVertex@?$Diagram@N@mygal@@PEAU012@@?$_Uhash_compare@PEAUVertex@?$Diagram@N@mygal@@U?$hash@PEAUVertex@?$Diagram@N@mygal@@@std@@U?$equal_to@PEAUVertex@?$Diagram@N@mygal@@@5@@std@@QEBA_NAEBQEAUVertex@?$Diagram@N@mygal@@0@Z 000000014003aa30 f i Main.obj
 0002:0000bae0       ??$_Adl_verify_range@PEAV?$_List_unchecked_iterator@V?$_List_val@U?$_List_simple_types@U?$pair@QEAUFace@?$Diagram@N@mygal@@V?$shared_ptr@UFace@NewDiagram@Voronoi@@@std@@@std@@@std@@@std@@@std@@PEAV12@@std@@YAXAEBQEAV?$_List_unchecked_iterator@V?$_List_val@U?$_List_simple_types@U?$pair@QEAUFace@?$Diagram@N@mygal@@V?$shared_ptr@UFace@NewDiagram@Voronoi@@@std@@@std@@@std@@@std@@@0@0@Z 000000014003aae0 f i Main.obj
 0002:0000bbd0       ??$_Adl_verify_range@PEAV?$_List_unchecked_iterator@V?$_List_val@U?$_List_simple_types@U?$pair@QEAUHalfEdge@?$Diagram@N@mygal@@V?$shared_ptr@UHalfEdge@NewDiagram@Voronoi@@@std@@@std@@@std@@@std@@@std@@PEAV12@@std@@YAXAEBQEAV?$_List_unchecked_iterator@V?$_List_val@U?$_List_simple_types@U?$pair@QEAUHalfEdge@?$Diagram@N@mygal@@V?$shared_ptr@UHalfEdge@NewDiagram@Voronoi@@@std@@@std@@@std@@@std@@@0@0@Z 000000014003abd0 f i Main.obj
 0002:0000bcc0       ??$_Adl_verify_range@PEAV?$_List_unchecked_iterator@V?$_List_val@U?$_List_simple_types@U?$pair@QEAUVertex@?$Diagram@N@mygal@@V?$shared_ptr@UVertex@NewDiagram@Voronoi@@@std@@@std@@@std@@@std@@@std@@PEAV12@@std@@YAXAEBQEAV?$_List_unchecked_iterator@V?$_List_val@U?$_List_simple_types@U?$pair@QEAUVertex@?$Diagram@N@mygal@@V?$shared_ptr@UVertex@NewDiagram@Voronoi@@@std@@@std@@@std@@@std@@@0@0@Z 000000014003acc0 f i Main.obj
 0002:0000bdb0       ??$_Alloc_proxy@V?$allocator@U_Container_proxy@std@@@std@@@_Container_base12@std@@QEAAX$$QEAV?$allocator@U_Container_proxy@std@@@1@@Z 000000014003adb0 f i Main.obj
 0002:0000be60       ??$_Allocate@$0BA@U_Default_allocate_traits@std@@@std@@YAPEAX_K@Z 000000014003ae60 f i Main.obj
 0002:0000bee0       ??$_Allocate_at_least_helper@V?$allocator@D@std@@@std@@YAPEADAEAV?$allocator@D@0@AEA_K@Z 000000014003aee0 f i Main.obj
 0002:0000bf40       ??$_Allocate_at_least_helper@V?$allocator@U?$pair@VPoint2D@@N@std@@@std@@@std@@YAPEAU?$pair@VPoint2D@@N@0@AEAV?$allocator@U?$pair@VPoint2D@@N@std@@@0@AEA_K@Z 000000014003af40 f i Main.obj
 0002:0000bfa0       ??$_Allocate_at_least_helper@V?$allocator@UFace@?$Diagram@N@mygal@@@std@@@std@@YAPEAUFace@?$Diagram@N@mygal@@AEAV?$allocator@UFace@?$Diagram@N@mygal@@@0@AEA_K@Z 000000014003afa0 f i Main.obj
 0002:0000c000       ??$_Allocate_at_least_helper@V?$allocator@USite@?$Diagram@N@mygal@@@std@@@std@@YAPEAUSite@?$Diagram@N@mygal@@AEAV?$allocator@USite@?$Diagram@N@mygal@@@0@AEA_K@Z 000000014003b000 f i Main.obj
 0002:0000c060       ??$_Allocate_at_least_helper@V?$allocator@V?$Vector2@N@mygal@@@std@@@std@@YAPEAV?$Vector2@N@mygal@@AEAV?$allocator@V?$Vector2@N@mygal@@@0@AEA_K@Z 000000014003b060 f i Main.obj
 0002:0000c0c0       ??$_Allocate_at_least_helper@V?$allocator@V?$shared_ptr@USite@NewDiagram@Voronoi@@@std@@@std@@@std@@YAPEAV?$shared_ptr@USite@NewDiagram@Voronoi@@@0@AEAV?$allocator@V?$shared_ptr@USite@NewDiagram@Voronoi@@@std@@@0@AEA_K@Z 000000014003b0c0 f i Main.obj
 0002:0000c120       ??$_Allocate_at_least_helper@V?$allocator@V?$unique_ptr@V?$Event@N@mygal@@U?$default_delete@V?$Event@N@mygal@@@std@@@std@@@std@@@std@@YAPEAV?$unique_ptr@V?$Event@N@mygal@@U?$default_delete@V?$Event@N@mygal@@@std@@@0@AEAV?$allocator@V?$unique_ptr@V?$Event@N@mygal@@U?$default_delete@V?$Event@N@mygal@@@std@@@std@@@0@AEA_K@Z 000000014003b120 f i Main.obj
 0002:0000c180       ??$_Allocate_at_least_helper@V?$allocator@VCircleShape@sf@@@std@@@std@@YAPEAVCircleShape@sf@@AEAV?$allocator@VCircleShape@sf@@@0@AEA_K@Z 000000014003b180 f i Main.obj
 0002:0000c1e0       ??$_Allocate_for_capacity@$0A@@?$basic_string@DU?$char_traits@D@std@@V?$allocator@D@2@@std@@CAPEADAEAV?$allocator@D@1@AEA_K@Z 000000014003b1e0 f i Main.obj
 0002:0000c280       ??$_Allocate_manually_vector_aligned@U_Default_allocate_traits@std@@@std@@YAPEAX_K@Z 000000014003b280 f i Main.obj
 0002:0000c3a0       ?size@?$list@PEAUSpecial_vertex@@V?$allocator@PEAUSpecial_vertex@@@std@@@std@@QEBA_KXZ 000000014003b3a0 f i MinKnapsack.obj
 0002:0000c3e0       ??$_Assign_counted_range@PEAV?$shared_ptr@USite@NewDiagram@Voronoi@@@std@@@?$vector@V?$shared_ptr@USite@NewDiagram@Voronoi@@@std@@V?$allocator@V?$shared_ptr@USite@NewDiagram@Voronoi@@@std@@@2@@std@@AEAAXPEAV?$shared_ptr@USite@NewDiagram@Voronoi@@@1@_K@Z 000000014003b3e0 f i Main.obj
 0002:0000c600       ??$_Move_construct_from@UHalfEdge@NewDiagram@Voronoi@@@?$_Ptr_base@UHalfEdge@NewDiagram@Voronoi@@@std@@IEAAX$$QEAV01@@Z 000000014003b600 f i MinKnapsack.obj
 0002:0000c690       ??$_Assign_counted_range@PEBV?$shared_ptr@USite@NewDiagram@Voronoi@@@std@@@?$vector@V?$shared_ptr@USite@NewDiagram@Voronoi@@@std@@V?$allocator@V?$shared_ptr@USite@NewDiagram@Voronoi@@@std@@@2@@std@@AEAAXPEBV?$shared_ptr@USite@NewDiagram@Voronoi@@@1@_K@Z 000000014003b690 f i Main.obj
 0002:0000c8b0       ??$construct@V?$shared_ptr@UHalfEdge@NewDiagram@Voronoi@@@std@@V12@@?$_Default_allocator_traits@V?$allocator@V?$shared_ptr@UHalfEdge@NewDiagram@Voronoi@@@std@@@std@@@std@@SAXAEAV?$allocator@V?$shared_ptr@UHalfEdge@NewDiagram@Voronoi@@@std@@@1@QEAV?$shared_ptr@UHalfEdge@NewDiagram@Voronoi@@@1@$$QEAV31@@Z 000000014003b8b0 f i MinKnapsack.obj
 0002:0000c940       ??$_Construct@$00PEBD@?$basic_string@DU?$char_traits@D@std@@V?$allocator@D@2@@std@@AEAAXQEBD_K@Z 000000014003b940 f i Main.obj
 0002:0000cb90       ??$next@V?$_List_iterator@V?$_List_val@U?$_List_simple_types@PEAUSpecial_vertex@@@std@@@std@@@std@@@std@@YA?AV?$_List_iterator@V?$_List_val@U?$_List_simple_types@PEAUSpecial_vertex@@@std@@@std@@@0@V10@_J@Z 000000014003bb90 f i MinKnapsack.obj
 0002:0000cc20       ??$_Construct_in_place@PEADAEBQEAD@std@@YAXAEAPEADAEBQEAD@Z 000000014003bc20 f i Main.obj
 0002:0000cca0       ??$_Construct_in_place@PEAU?$_List_node@U?$pair@QEAUFace@?$Diagram@N@mygal@@V?$shared_ptr@UFace@NewDiagram@Voronoi@@@std@@@std@@PEAX@std@@AEAPEAU12@@std@@YAXAEAPEAU?$_List_node@U?$pair@QEAUFace@?$Diagram@N@mygal@@V?$shared_ptr@UFace@NewDiagram@Voronoi@@@std@@@std@@PEAX@0@0@Z 000000014003bca0 f i Main.obj
 0002:0000cd20       ??$_Construct_in_place@PEAU?$_List_node@U?$pair@QEAUFace@?$Diagram@N@mygal@@V?$shared_ptr@UFace@NewDiagram@Voronoi@@@std@@@std@@PEAX@std@@AEBQEAU12@@std@@YAXAEAPEAU?$_List_node@U?$pair@QEAUFace@?$Diagram@N@mygal@@V?$shared_ptr@UFace@NewDiagram@Voronoi@@@std@@@std@@PEAX@0@AEBQEAU10@@Z 000000014003bd20 f i Main.obj
 0002:0000cda0       ??$_Construct_in_place@PEAU?$_List_node@U?$pair@QEAUHalfEdge@?$Diagram@N@mygal@@V?$shared_ptr@UHalfEdge@NewDiagram@Voronoi@@@std@@@std@@PEAX@std@@AEAPEAU12@@std@@YAXAEAPEAU?$_List_node@U?$pair@QEAUHalfEdge@?$Diagram@N@mygal@@V?$shared_ptr@UHalfEdge@NewDiagram@Voronoi@@@std@@@std@@PEAX@0@0@Z 000000014003bda0 f i Main.obj
 0002:0000ce20       ??$_Construct_in_place@PEAU?$_List_node@U?$pair@QEAUHalfEdge@?$Diagram@N@mygal@@V?$shared_ptr@UHalfEdge@NewDiagram@Voronoi@@@std@@@std@@PEAX@std@@AEBQEAU12@@std@@YAXAEAPEAU?$_List_node@U?$pair@QEAUHalfEdge@?$Diagram@N@mygal@@V?$shared_ptr@UHalfEdge@NewDiagram@Voronoi@@@std@@@std@@PEAX@0@AEBQEAU10@@Z 000000014003be20 f i Main.obj
 0002:0000cea0       ??$_Construct_in_place@PEAU?$_List_node@U?$pair@QEAUVertex@?$Diagram@N@mygal@@V?$shared_ptr@UVertex@NewDiagram@Voronoi@@@std@@@std@@PEAX@std@@AEAPEAU12@@std@@YAXAEAPEAU?$_List_node@U?$pair@QEAUVertex@?$Diagram@N@mygal@@V?$shared_ptr@UVertex@NewDiagram@Voronoi@@@std@@@std@@PEAX@0@0@Z 000000014003bea0 f i Main.obj
 0002:0000cf20       ??$_Construct_in_place@PEAU?$_List_node@U?$pair@QEAUVertex@?$Diagram@N@mygal@@V?$shared_ptr@UVertex@NewDiagram@Voronoi@@@std@@@std@@PEAX@std@@AEBQEAU12@@std@@YAXAEAPEAU?$_List_node@U?$pair@QEAUVertex@?$Diagram@N@mygal@@V?$shared_ptr@UVertex@NewDiagram@Voronoi@@@std@@@std@@PEAX@0@AEBQEAU10@@Z 000000014003bf20 f i Main.obj
 0002:0000cfa0       ??$_Construct_in_place@PEAU?$_List_node@UHalfEdge@?$Diagram@N@mygal@@PEAX@std@@AEAPEAU12@@std@@YAXAEAPEAU?$_List_node@UHalfEdge@?$Diagram@N@mygal@@PEAX@0@0@Z 000000014003bfa0 f i Main.obj
 0002:0000d020       ??$_Construct_in_place@PEAU?$_List_node@UHalfEdge@?$Diagram@N@mygal@@PEAX@std@@AEBQEAU12@@std@@YAXAEAPEAU?$_List_node@UHalfEdge@?$Diagram@N@mygal@@PEAX@0@AEBQEAU10@@Z 000000014003c020 f i Main.obj
 0002:0000d0a0       ??$_Construct_in_place@PEAU?$_List_node@UVertex@?$Diagram@N@mygal@@PEAX@std@@AEAPEAU12@@std@@YAXAEAPEAU?$_List_node@UVertex@?$Diagram@N@mygal@@PEAX@0@0@Z 000000014003c0a0 f i Main.obj
 0002:0000d120       ??$_Construct_in_place@PEAU?$_List_node@UVertex@?$Diagram@N@mygal@@PEAX@std@@AEBQEAU12@@std@@YAXAEAPEAU?$_List_node@UVertex@?$Diagram@N@mygal@@PEAX@0@AEBQEAU10@@Z 000000014003c120 f i Main.obj
 0002:0000d1a0       ??$_Construct_in_place@PEAU?$_List_node@V?$shared_ptr@UFace@NewDiagram@Voronoi@@@std@@PEAX@std@@AEAPEAU12@@std@@YAXAEAPEAU?$_List_node@V?$shared_ptr@UFace@NewDiagram@Voronoi@@@std@@PEAX@0@0@Z 000000014003c1a0 f i Main.obj
 0002:0000d220       ??$_Construct_in_place@PEAU?$_List_node@V?$shared_ptr@UFace@NewDiagram@Voronoi@@@std@@PEAX@std@@AEBQEAU12@@std@@YAXAEAPEAU?$_List_node@V?$shared_ptr@UFace@NewDiagram@Voronoi@@@std@@PEAX@0@AEBQEAU10@@Z 000000014003c220 f i Main.obj
 0002:0000d2a0       ??$_Construct_in_place@UFace@?$Diagram@N@mygal@@U123@@std@@YAXAEAUFace@?$Diagram@N@mygal@@$$QEAU123@@Z 000000014003c2a0 f i Main.obj
 0002:0000d320       ??$_Construct_in_place@UFace@NewDiagram@Voronoi@@$$V@std@@YAXAEAUFace@NewDiagram@Voronoi@@@Z 000000014003c320 f i Main.obj
 0002:0000d3a0       ??$_Construct_in_place@UHalfEdge@NewDiagram@Voronoi@@$$V@std@@YAXAEAUHalfEdge@NewDiagram@Voronoi@@@Z 000000014003c3a0 f i Main.obj
 0002:0000d420       ??$_Construct_in_place@USite@?$Diagram@N@mygal@@U123@@std@@YAXAEAUSite@?$Diagram@N@mygal@@$$QEAU123@@Z 000000014003c420 f i Main.obj
 0002:0000d4a0       ??$_Construct_in_place@USite@NewDiagram@Voronoi@@AEA_KAEBVPoint2D@@AEBN@std@@YAXAEAUSite@NewDiagram@Voronoi@@AEA_KAEBVPoint2D@@AEBN@Z 000000014003c4a0 f i Main.obj
 0002:0000d5a0       ??$_Construct_in_place@UVertex@NewDiagram@Voronoi@@$$V@std@@YAXAEAUVertex@NewDiagram@Voronoi@@@Z 000000014003c5a0 f i Main.obj
 0002:0000d620       ??$_Construct_in_place@U_Container_proxy@std@@PEAU_Container_base12@2@@std@@YAXAEAU_Container_proxy@0@$$QEAPEAU_Container_base12@0@@Z 000000014003c620 f i Main.obj
 0002:0000d6a0       ??$_Construct_in_place@V?$Vector2@N@mygal@@V12@@std@@YAXAEAV?$Vector2@N@mygal@@$$QEAV12@@Z 000000014003c6a0 f i Main.obj
 0002:0000d720       ??$_Construct_in_place@V?$_List_unchecked_iterator@V?$_List_val@U?$_List_simple_types@U?$pair@QEAUFace@?$Diagram@N@mygal@@V?$shared_ptr@UFace@NewDiagram@Voronoi@@@std@@@std@@@std@@@std@@@std@@AEBV12@@std@@YAXAEAV?$_List_unchecked_iterator@V?$_List_val@U?$_List_simple_types@U?$pair@QEAUFace@?$Diagram@N@mygal@@V?$shared_ptr@UFace@NewDiagram@Voronoi@@@std@@@std@@@std@@@std@@@0@AEBV10@@Z 000000014003c720 f i Main.obj
 0002:0000d7a0       ??$_Construct_in_place@V?$_List_unchecked_iterator@V?$_List_val@U?$_List_simple_types@U?$pair@QEAUHalfEdge@?$Diagram@N@mygal@@V?$shared_ptr@UHalfEdge@NewDiagram@Voronoi@@@std@@@std@@@std@@@std@@@std@@AEBV12@@std@@YAXAEAV?$_List_unchecked_iterator@V?$_List_val@U?$_List_simple_types@U?$pair@QEAUHalfEdge@?$Diagram@N@mygal@@V?$shared_ptr@UHalfEdge@NewDiagram@Voronoi@@@std@@@std@@@std@@@std@@@0@AEBV10@@Z 000000014003c7a0 f i Main.obj
 0002:0000d820       ??$_Construct_in_place@V?$_List_unchecked_iterator@V?$_List_val@U?$_List_simple_types@U?$pair@QEAUVertex@?$Diagram@N@mygal@@V?$shared_ptr@UVertex@NewDiagram@Voronoi@@@std@@@std@@@std@@@std@@@std@@AEBV12@@std@@YAXAEAV?$_List_unchecked_iterator@V?$_List_val@U?$_List_simple_types@U?$pair@QEAUVertex@?$Diagram@N@mygal@@V?$shared_ptr@UVertex@NewDiagram@Voronoi@@@std@@@std@@@std@@@std@@@0@AEBV10@@Z 000000014003c820 f i Main.obj
 0002:0000d8a0       ??$_Construct_in_place@V?$shared_ptr@USite@NewDiagram@Voronoi@@@std@@V12@@std@@YAXAEAV?$shared_ptr@USite@NewDiagram@Voronoi@@@0@$$QEAV10@@Z 000000014003c8a0 f i Main.obj
 0002:0000d920       ??$_Construct_in_place@V?$unique_ptr@V?$Event@N@mygal@@U?$default_delete@V?$Event@N@mygal@@@std@@@std@@V12@@std@@YAXAEAV?$unique_ptr@V?$Event@N@mygal@@U?$default_delete@V?$Event@N@mygal@@@std@@@0@$$QEAV10@@Z 000000014003c920 f i Main.obj
 0002:0000d9a0       ??$_Construct_n@$$V@?$vector@V?$shared_ptr@USite@NewDiagram@Voronoi@@@std@@V?$allocator@V?$shared_ptr@USite@NewDiagram@Voronoi@@@std@@@2@@std@@AEAAX_K@Z 000000014003c9a0 f i Main.obj
 0002:0000dae0       ??E?$_List_unchecked_const_iterator@V?$_List_val@U?$_List_simple_types@PEAUSpecial_vertex@@@std@@@std@@U_Iterator_base0@2@@std@@QEAAAEAV01@XZ 000000014003cae0 f i MinKnapsack.obj
 0002:0000db30       ??$_Construct_n@AEBQEAV?$Vector2@N@mygal@@AEBQEAV12@@?$vector@V?$Vector2@N@mygal@@V?$allocator@V?$Vector2@N@mygal@@@std@@@std@@AEAAX_KAEBQEAV?$Vector2@N@mygal@@1@Z 000000014003cb30 f i Main.obj
 0002:0000dc90       ?size@?$list@V?$shared_ptr@UFace@NewDiagram@Voronoi@@@std@@V?$allocator@V?$shared_ptr@UFace@NewDiagram@Voronoi@@@std@@@2@@std@@QEBA_KXZ 000000014003cc90 f i MinKnapsack.obj
 0002:0000dce0       ??$_Convert_size@_K_K@std@@YA_K_K@Z 000000014003cce0 f i Main.obj
 0002:0000dd20       ??$_Copy_construct_from@UFace@NewDiagram@Voronoi@@@?$_Ptr_base@UFace@NewDiagram@Voronoi@@@std@@IEAAXAEBV?$shared_ptr@UFace@NewDiagram@Voronoi@@@1@@Z 000000014003cd20 f i Main.obj
 0002:0000dda0       ??$_Copy_construct_from@UHalfEdge@NewDiagram@Voronoi@@@?$_Ptr_base@UHalfEdge@NewDiagram@Voronoi@@@std@@IEAAXAEBV?$shared_ptr@UHalfEdge@NewDiagram@Voronoi@@@1@@Z 000000014003cda0 f i Main.obj
 0002:0000de20       ??$_Copy_construct_from@USite@NewDiagram@Voronoi@@@?$_Ptr_base@USite@NewDiagram@Voronoi@@@std@@IEAAXAEBV?$shared_ptr@USite@NewDiagram@Voronoi@@@1@@Z 000000014003ce20 f i Main.obj
 0002:0000dea0       ??$_Copy_construct_from@UVertex@NewDiagram@Voronoi@@@?$_Ptr_base@UVertex@NewDiagram@Voronoi@@@std@@IEAAXAEBV?$shared_ptr@UVertex@NewDiagram@Voronoi@@@1@@Z 000000014003cea0 f i Main.obj
 0002:0000df20       ??$_Copy_memmove@PEAUFace@?$Diagram@N@mygal@@PEAU123@@std@@YAPEAUFace@?$Diagram@N@mygal@@PEAU123@00@Z 000000014003cf20 f i Main.obj
 0002:0000e020       ??$_Copy_memmove@PEAUSite@?$Diagram@N@mygal@@PEAU123@@std@@YAPEAUSite@?$Diagram@N@mygal@@PEAU123@00@Z 000000014003d020 f i Main.obj
 0002:0000e120       ??$_Copy_memmove@PEAV?$Vector2@N@mygal@@PEAV12@@std@@YAPEAV?$Vector2@N@mygal@@PEAV12@00@Z 000000014003d120 f i Main.obj
 0002:0000e220       ??$_Copy_n_unchecked4@PEAV?$shared_ptr@USite@NewDiagram@Voronoi@@@std@@_KPEAV12@@std@@YAPEAV?$shared_ptr@USite@NewDiagram@Voronoi@@@0@PEAV10@_K0@Z 000000014003d220 f i Main.obj
 0002:0000e2e0       ??$_Copy_n_unchecked4@PEBV?$shared_ptr@USite@NewDiagram@Voronoi@@@std@@_KPEAV12@@std@@YAPEAV?$shared_ptr@USite@NewDiagram@Voronoi@@@0@PEBV10@_KPEAV10@@Z 000000014003d2e0 f i Main.obj
 0002:0000e3a0       ??$_Deallocate@$0BA@@std@@YAXPEAX_K@Z 000000014003d3a0 f i Main.obj
 0002:0000e420       ??$_Deallocate_plain@V?$allocator@U_Container_proxy@std@@@std@@@std@@YAXAEAV?$allocator@U_Container_proxy@std@@@0@QEAU_Container_proxy@0@@Z 000000014003d420 f i Main.obj
 0002:0000e480       ??$_Delete_plain_internal@V?$allocator@U_Container_proxy@std@@@std@@@std@@YAXAEAV?$allocator@U_Container_proxy@std@@@0@QEAU_Container_proxy@0@@Z 000000014003d480 f i Main.obj
 0002:0000e4e0       ??$_Destroy_in_place@PEAD@std@@YAXAEAPEAD@Z 000000014003d4e0 f i Main.obj
 0002:0000e520       ??$_Destroy_in_place@PEAU?$_List_node@U?$pair@QEAUFace@?$Diagram@N@mygal@@V?$shared_ptr@UFace@NewDiagram@Voronoi@@@std@@@std@@PEAX@std@@@std@@YAXAEAPEAU?$_List_node@U?$pair@QEAUFace@?$Diagram@N@mygal@@V?$shared_ptr@UFace@NewDiagram@Voronoi@@@std@@@std@@PEAX@0@@Z 000000014003d520 f i Main.obj
 0002:0000e560       ??$_Destroy_in_place@PEAU?$_List_node@U?$pair@QEAUHalfEdge@?$Diagram@N@mygal@@V?$shared_ptr@UHalfEdge@NewDiagram@Voronoi@@@std@@@std@@PEAX@std@@@std@@YAXAEAPEAU?$_List_node@U?$pair@QEAUHalfEdge@?$Diagram@N@mygal@@V?$shared_ptr@UHalfEdge@NewDiagram@Voronoi@@@std@@@std@@PEAX@0@@Z 000000014003d560 f i Main.obj
 0002:0000e5a0       ??$_Destroy_in_place@PEAU?$_List_node@U?$pair@QEAUVertex@?$Diagram@N@mygal@@V?$shared_ptr@UVertex@NewDiagram@Voronoi@@@std@@@std@@PEAX@std@@@std@@YAXAEAPEAU?$_List_node@U?$pair@QEAUVertex@?$Diagram@N@mygal@@V?$shared_ptr@UVertex@NewDiagram@Voronoi@@@std@@@std@@PEAX@0@@Z 000000014003d5a0 f i Main.obj
 0002:0000e5e0       ??$_Destroy_in_place@PEAU?$_List_node@UHalfEdge@?$Diagram@N@mygal@@PEAX@std@@@std@@YAXAEAPEAU?$_List_node@UHalfEdge@?$Diagram@N@mygal@@PEAX@0@@Z 000000014003d5e0 f i Main.obj
 0002:0000e620       ??$_Destroy_in_place@PEAU?$_List_node@UVertex@?$Diagram@N@mygal@@PEAX@std@@@std@@YAXAEAPEAU?$_List_node@UVertex@?$Diagram@N@mygal@@PEAX@0@@Z 000000014003d620 f i Main.obj
 0002:0000e660       ??$_Destroy_in_place@PEAU?$_List_node@V?$shared_ptr@UFace@NewDiagram@Voronoi@@@std@@PEAX@std@@@std@@YAXAEAPEAU?$_List_node@V?$shared_ptr@UFace@NewDiagram@Voronoi@@@std@@PEAX@0@@Z 000000014003d660 f i Main.obj
 0002:0000e6a0       ??$_Destroy_in_place@UFace@NewDiagram@Voronoi@@@std@@YAXAEAUFace@NewDiagram@Voronoi@@@Z 000000014003d6a0 f i Main.obj
 0002:0000e6f0       ??$_Destroy_in_place@UHalfEdge@NewDiagram@Voronoi@@@std@@YAXAEAUHalfEdge@NewDiagram@Voronoi@@@Z 000000014003d6f0 f i Main.obj
 0002:0000e740       ??$_Destroy_in_place@USite@NewDiagram@Voronoi@@@std@@YAXAEAUSite@NewDiagram@Voronoi@@@Z 000000014003d740 f i Main.obj
 0002:0000e780       ??$_Destroy_in_place@UVertex@NewDiagram@Voronoi@@@std@@YAXAEAUVertex@NewDiagram@Voronoi@@@Z 000000014003d780 f i Main.obj
 0002:0000e7d0       ??$_Destroy_range@PEAV?$_List_unchecked_iterator@V?$_List_val@U?$_List_simple_types@U?$pair@QEAUFace@?$Diagram@N@mygal@@V?$shared_ptr@UFace@NewDiagram@Voronoi@@@std@@@std@@@std@@@std@@@std@@PEAV12@@std@@YAXPEAV?$_List_unchecked_iterator@V?$_List_val@U?$_List_simple_types@U?$pair@QEAUFace@?$Diagram@N@mygal@@V?$shared_ptr@UFace@NewDiagram@Voronoi@@@std@@@std@@@std@@@std@@@0@QEAV10@@Z 000000014003d7d0 f i Main.obj
 0002:0000e810       ??$_Destroy_range@PEAV?$_List_unchecked_iterator@V?$_List_val@U?$_List_simple_types@U?$pair@QEAUHalfEdge@?$Diagram@N@mygal@@V?$shared_ptr@UHalfEdge@NewDiagram@Voronoi@@@std@@@std@@@std@@@std@@@std@@PEAV12@@std@@YAXPEAV?$_List_unchecked_iterator@V?$_List_val@U?$_List_simple_types@U?$pair@QEAUHalfEdge@?$Diagram@N@mygal@@V?$shared_ptr@UHalfEdge@NewDiagram@Voronoi@@@std@@@std@@@std@@@std@@@0@QEAV10@@Z 000000014003d810 f i Main.obj
 0002:0000e850       ??$_Destroy_range@PEAV?$_List_unchecked_iterator@V?$_List_val@U?$_List_simple_types@U?$pair@QEAUVertex@?$Diagram@N@mygal@@V?$shared_ptr@UVertex@NewDiagram@Voronoi@@@std@@@std@@@std@@@std@@@std@@PEAV12@@std@@YAXPEAV?$_List_unchecked_iterator@V?$_List_val@U?$_List_simple_types@U?$pair@QEAUVertex@?$Diagram@N@mygal@@V?$shared_ptr@UVertex@NewDiagram@Voronoi@@@std@@@std@@@std@@@std@@@0@QEAV10@@Z 000000014003d850 f i Main.obj
 0002:0000e890       ??$_Destroy_range@V?$allocator@U?$pair@VPoint2D@@N@std@@@std@@@std@@YAXPEAU?$pair@VPoint2D@@N@0@QEAU10@AEAV?$allocator@U?$pair@VPoint2D@@N@std@@@0@@Z 000000014003d890 f i Main.obj
 0002:0000e8e0       ??$_Destroy_range@V?$allocator@UFace@?$Diagram@N@mygal@@@std@@@std@@YAXPEAUFace@?$Diagram@N@mygal@@QEAU123@AEAV?$allocator@UFace@?$Diagram@N@mygal@@@0@@Z 000000014003d8e0 f i Main.obj
 0002:0000e930       ??$_Destroy_range@V?$allocator@USite@?$Diagram@N@mygal@@@std@@@std@@YAXPEAUSite@?$Diagram@N@mygal@@QEAU123@AEAV?$allocator@USite@?$Diagram@N@mygal@@@0@@Z 000000014003d930 f i Main.obj
 0002:0000e980       ??$_Destroy_range@V?$allocator@V?$Vector2@N@mygal@@@std@@@std@@YAXPEAV?$Vector2@N@mygal@@QEAV12@AEAV?$allocator@V?$Vector2@N@mygal@@@0@@Z 000000014003d980 f i Main.obj
 0002:0000e9d0       ??$_Destroy_range@V?$allocator@V?$shared_ptr@USite@NewDiagram@Voronoi@@@std@@@std@@@std@@YAXPEAV?$shared_ptr@USite@NewDiagram@Voronoi@@@0@QEAV10@AEAV?$allocator@V?$shared_ptr@USite@NewDiagram@Voronoi@@@std@@@0@@Z 000000014003d9d0 f i Main.obj
 0002:0000ea70       ??$_Destroy_range@V?$allocator@V?$unique_ptr@V?$Event@N@mygal@@U?$default_delete@V?$Event@N@mygal@@@std@@@std@@@std@@@std@@YAXPEAV?$unique_ptr@V?$Event@N@mygal@@U?$default_delete@V?$Event@N@mygal@@@std@@@0@QEAV10@AEAV?$allocator@V?$unique_ptr@V?$Event@N@mygal@@U?$default_delete@V?$Event@N@mygal@@@std@@@std@@@0@@Z 000000014003da70 f i Main.obj
 0002:0000eb10       ??$_Destroy_range@V?$allocator@VCircleShape@sf@@@std@@@std@@YAXPEAVCircleShape@sf@@QEAV12@AEAV?$allocator@VCircleShape@sf@@@0@@Z 000000014003db10 f i Main.obj
 0002:0000ebb0       ??$_Emplace@$$V@?$list@UHalfEdge@?$Diagram@N@mygal@@V?$allocator@UHalfEdge@?$Diagram@N@mygal@@@std@@@std@@QEAAPEAU?$_List_node@UHalfEdge@?$Diagram@N@mygal@@PEAX@1@QEAU21@@Z 000000014003dbb0 f i Main.obj
 0002:0000ecf0       ??$_Emplace@$$V@?$list@UVertex@?$Diagram@N@mygal@@V?$allocator@UVertex@?$Diagram@N@mygal@@@std@@@std@@QEAAPEAU?$_List_node@UVertex@?$Diagram@N@mygal@@PEAX@1@QEAU21@@Z 000000014003dcf0 f i Main.obj
 0002:0000ee30       ??$_Emplace@V?$shared_ptr@UFace@NewDiagram@Voronoi@@@std@@@?$list@V?$shared_ptr@UFace@NewDiagram@Voronoi@@@std@@V?$allocator@V?$shared_ptr@UFace@NewDiagram@Voronoi@@@std@@@2@@std@@QEAAPEAU?$_List_node@V?$shared_ptr@UFace@NewDiagram@Voronoi@@@std@@PEAX@1@QEAU21@$$QEAV?$shared_ptr@UFace@NewDiagram@Voronoi@@@1@@Z 000000014003de30 f i Main.obj
 0002:0000ef80       ??$_Emplace_back@$$V@?$_Uninitialized_backout_al@V?$allocator@V?$shared_ptr@USite@NewDiagram@Voronoi@@@std@@@std@@@std@@QEAAXXZ 000000014003df80 f i Main.obj
 0002:0000f030       ??$_Emplace_back@AEAU?$pair@VPoint2D@@N@std@@@?$_Uninitialized_backout_al@V?$allocator@U?$pair@VPoint2D@@N@std@@@std@@@std@@QEAAXAEAU?$pair@VPoint2D@@N@1@@Z 000000014003e030 f i Main.obj
 0002:0000f0e0       ??$_Emplace_back@AEAV?$Vector2@N@mygal@@@?$_Uninitialized_backout_al@V?$allocator@V?$Vector2@N@mygal@@@std@@@std@@QEAAXAEAV?$Vector2@N@mygal@@@Z 000000014003e0e0 f i Main.obj
 0002:0000f190       ??$_Emplace_back@AEAV?$shared_ptr@USite@NewDiagram@Voronoi@@@std@@@?$_Uninitialized_backout_al@V?$allocator@V?$shared_ptr@USite@NewDiagram@Voronoi@@@std@@@std@@@std@@QEAAXAEAV?$shared_ptr@USite@NewDiagram@Voronoi@@@1@@Z 000000014003e190 f i Main.obj
 0002:0000f240       ??$_Emplace_back@AEAVCircleShape@sf@@@?$_Uninitialized_backout_al@V?$allocator@VCircleShape@sf@@@std@@@std@@QEAAXAEAVCircleShape@sf@@@Z 000000014003e240 f i Main.obj
 0002:0000f300       ??$_Emplace_back@AEBV?$_List_unchecked_iterator@V?$_List_val@U?$_List_simple_types@U?$pair@QEAUFace@?$Diagram@N@mygal@@V?$shared_ptr@UFace@NewDiagram@Voronoi@@@std@@@std@@@std@@@std@@@std@@@?$_Uninitialized_backout@PEAV?$_List_unchecked_iterator@V?$_List_val@U?$_List_simple_types@U?$pair@QEAUFace@?$Diagram@N@mygal@@V?$shared_ptr@UFace@NewDiagram@Voronoi@@@std@@@std@@@std@@@std@@@std@@@std@@QEAAXAEBV?$_List_unchecked_iterator@V?$_List_val@U?$_List_simple_types@U?$pair@QEAUFace@?$Diagram@N@mygal@@V?$shared_ptr@UFace@NewDiagram@Voronoi@@@std@@@std@@@std@@@std@@@1@@Z 000000014003e300 f i Main.obj
 0002:0000f380       ??$_Emplace_back@AEBV?$_List_unchecked_iterator@V?$_List_val@U?$_List_simple_types@U?$pair@QEAUHalfEdge@?$Diagram@N@mygal@@V?$shared_ptr@UHalfEdge@NewDiagram@Voronoi@@@std@@@std@@@std@@@std@@@std@@@?$_Uninitialized_backout@PEAV?$_List_unchecked_iterator@V?$_List_val@U?$_List_simple_types@U?$pair@QEAUHalfEdge@?$Diagram@N@mygal@@V?$shared_ptr@UHalfEdge@NewDiagram@Voronoi@@@std@@@std@@@std@@@std@@@std@@@std@@QEAAXAEBV?$_List_unchecked_iterator@V?$_List_val@U?$_List_simple_types@U?$pair@QEAUHalfEdge@?$Diagram@N@mygal@@V?$shared_ptr@UHalfEdge@NewDiagram@Voronoi@@@std@@@std@@@std@@@std@@@1@@Z 000000014003e380 f i Main.obj
 0002:0000f400       ??$_Emplace_back@AEBV?$_List_unchecked_iterator@V?$_List_val@U?$_List_simple_types@U?$pair@QEAUVertex@?$Diagram@N@mygal@@V?$shared_ptr@UVertex@NewDiagram@Voronoi@@@std@@@std@@@std@@@std@@@std@@@?$_Uninitialized_backout@PEAV?$_List_unchecked_iterator@V?$_List_val@U?$_List_simple_types@U?$pair@QEAUVertex@?$Diagram@N@mygal@@V?$shared_ptr@UVertex@NewDiagram@Voronoi@@@std@@@std@@@std@@@std@@@std@@@std@@QEAAXAEBV?$_List_unchecked_iterator@V?$_List_val@U?$_List_simple_types@U?$pair@QEAUVertex@?$Diagram@N@mygal@@V?$shared_ptr@UVertex@NewDiagram@Voronoi@@@std@@@std@@@std@@@std@@@1@@Z 000000014003e400 f i Main.obj
 0002:0000f480       ??$_Emplace_back@AEBV?$shared_ptr@USite@NewDiagram@Voronoi@@@std@@@?$_Uninitialized_backout_al@V?$allocator@V?$shared_ptr@USite@NewDiagram@Voronoi@@@std@@@std@@@std@@QEAAXAEBV?$shared_ptr@USite@NewDiagram@Voronoi@@@1@@Z 000000014003e480 f i Main.obj
 0002:0000f530       ??$_Emplace_back@U?$pair@VPoint2D@@N@std@@@?$_Uninitialized_backout_al@V?$allocator@U?$pair@VPoint2D@@N@std@@@std@@@std@@QEAAX$$QEAU?$pair@VPoint2D@@N@1@@Z 000000014003e530 f i Main.obj
 0002:0000f5e0       ??$_Emplace_back@UFace@?$Diagram@N@mygal@@@?$_Uninitialized_backout_al@V?$allocator@UFace@?$Diagram@N@mygal@@@std@@@std@@QEAAX$$QEAUFace@?$Diagram@N@mygal@@@Z 000000014003e5e0 f i Main.obj
 0002:0000f690       ??$_Emplace_back@USite@?$Diagram@N@mygal@@@?$_Uninitialized_backout_al@V?$allocator@USite@?$Diagram@N@mygal@@@std@@@std@@QEAAX$$QEAUSite@?$Diagram@N@mygal@@@Z 000000014003e690 f i Main.obj
 0002:0000f740       ??$_Emplace_back@V?$Vector2@N@mygal@@@?$_Uninitialized_backout_al@V?$allocator@V?$Vector2@N@mygal@@@std@@@std@@QEAAX$$QEAV?$Vector2@N@mygal@@@Z 000000014003e740 f i Main.obj
 0002:0000f7f0       ??$_Emplace_back@V?$shared_ptr@USite@NewDiagram@Voronoi@@@std@@@?$_Uninitialized_backout_al@V?$allocator@V?$shared_ptr@USite@NewDiagram@Voronoi@@@std@@@std@@@std@@QEAAX$$QEAV?$shared_ptr@USite@NewDiagram@Voronoi@@@1@@Z 000000014003e7f0 f i Main.obj
 0002:0000f8a0       ??$_Emplace_back@V?$unique_ptr@V?$Event@N@mygal@@U?$default_delete@V?$Event@N@mygal@@@std@@@std@@@?$_Uninitialized_backout_al@V?$allocator@V?$unique_ptr@V?$Event@N@mygal@@U?$default_delete@V?$Event@N@mygal@@@std@@@std@@@std@@@std@@QEAAX$$QEAV?$unique_ptr@V?$Event@N@mygal@@U?$default_delete@V?$Event@N@mygal@@@std@@@1@@Z 000000014003e8a0 f i Main.obj
 0002:0000f950       ??$_Emplace_back@VCircleShape@sf@@@?$_Uninitialized_backout_al@V?$allocator@VCircleShape@sf@@@std@@@std@@QEAAX$$QEAVCircleShape@sf@@@Z 000000014003e950 f i Main.obj
 0002:0000fa10       ??$_Emplace_back_with_unused_capacity@AEBVCircleShape@sf@@@?$vector@VCircleShape@sf@@V?$allocator@VCircleShape@sf@@@std@@@std@@AEAAAEAVCircleShape@sf@@AEBV23@@Z 000000014003ea10 f i Main.obj
 0002:0000fb10       ??$_Emplace_back_with_unused_capacity@U?$pair@VPoint2D@@N@std@@@?$vector@U?$pair@VPoint2D@@N@std@@V?$allocator@U?$pair@VPoint2D@@N@std@@@2@@std@@AEAAAEAU?$pair@VPoint2D@@N@1@$$QEAU21@@Z 000000014003eb10 f i Main.obj
 0002:0000fc10       ??$_Emplace_back_with_unused_capacity@UFace@?$Diagram@N@mygal@@@?$vector@UFace@?$Diagram@N@mygal@@V?$allocator@UFace@?$Diagram@N@mygal@@@std@@@std@@AEAAAEAUFace@?$Diagram@N@mygal@@$$QEAU234@@Z 000000014003ec10 f i Main.obj
 0002:0000fcd0       ??$_Emplace_back_with_unused_capacity@USite@?$Diagram@N@mygal@@@?$vector@USite@?$Diagram@N@mygal@@V?$allocator@USite@?$Diagram@N@mygal@@@std@@@std@@AEAAAEAUSite@?$Diagram@N@mygal@@$$QEAU234@@Z 000000014003ecd0 f i Main.obj
 0002:0000fd90       ??$_Emplace_back_with_unused_capacity@V?$Vector2@N@mygal@@@?$vector@V?$Vector2@N@mygal@@V?$allocator@V?$Vector2@N@mygal@@@std@@@std@@AEAAAEAV?$Vector2@N@mygal@@$$QEAV23@@Z 000000014003ed90 f i Main.obj
 0002:0000fe50       ??$_Emplace_back_with_unused_capacity@V?$shared_ptr@USite@NewDiagram@Voronoi@@@std@@@?$vector@V?$shared_ptr@USite@NewDiagram@Voronoi@@@std@@V?$allocator@V?$shared_ptr@USite@NewDiagram@Voronoi@@@std@@@2@@std@@AEAAAEAV?$shared_ptr@USite@NewDiagram@Voronoi@@@1@$$QEAV21@@Z 000000014003ee50 f i Main.obj
 0002:0000ff10       ??$_Emplace_back_with_unused_capacity@V?$unique_ptr@V?$Event@N@mygal@@U?$default_delete@V?$Event@N@mygal@@@std@@@std@@@?$vector@V?$unique_ptr@V?$Event@N@mygal@@U?$default_delete@V?$Event@N@mygal@@@std@@@std@@V?$allocator@V?$unique_ptr@V?$Event@N@mygal@@U?$default_delete@V?$Event@N@mygal@@@std@@@std@@@2@@std@@AEAAAEAV?$unique_ptr@V?$Event@N@mygal@@U?$default_delete@V?$Event@N@mygal@@@std@@@1@$$QEAV21@@Z 000000014003ef10 f i Main.obj
 0002:0000ffd0       ??$_Emplace_one_at_back@AEBVCircleShape@sf@@@?$vector@VCircleShape@sf@@V?$allocator@VCircleShape@sf@@@std@@@std@@AEAAAEAVCircleShape@sf@@AEBV23@@Z 000000014003efd0 f i Main.obj
 0002:00010080       ??$_Emplace_one_at_back@U?$pair@VPoint2D@@N@std@@@?$vector@U?$pair@VPoint2D@@N@std@@V?$allocator@U?$pair@VPoint2D@@N@std@@@2@@std@@AEAAAEAU?$pair@VPoint2D@@N@1@$$QEAU21@@Z 000000014003f080 f i Main.obj
 0002:00010130       ??$_Emplace_one_at_back@UFace@?$Diagram@N@mygal@@@?$vector@UFace@?$Diagram@N@mygal@@V?$allocator@UFace@?$Diagram@N@mygal@@@std@@@std@@AEAAAEAUFace@?$Diagram@N@mygal@@$$QEAU234@@Z 000000014003f130 f i Main.obj
 0002:000101e0       ??$_Emplace_one_at_back@USite@?$Diagram@N@mygal@@@?$vector@USite@?$Diagram@N@mygal@@V?$allocator@USite@?$Diagram@N@mygal@@@std@@@std@@AEAAAEAUSite@?$Diagram@N@mygal@@$$QEAU234@@Z 000000014003f1e0 f i Main.obj
 0002:00010290       ??$_Emplace_one_at_back@V?$Vector2@N@mygal@@@?$vector@V?$Vector2@N@mygal@@V?$allocator@V?$Vector2@N@mygal@@@std@@@std@@AEAAAEAV?$Vector2@N@mygal@@$$QEAV23@@Z 000000014003f290 f i Main.obj
 0002:00010340       ??$_Emplace_one_at_back@V?$shared_ptr@USite@NewDiagram@Voronoi@@@std@@@?$vector@V?$shared_ptr@USite@NewDiagram@Voronoi@@@std@@V?$allocator@V?$shared_ptr@USite@NewDiagram@Voronoi@@@std@@@2@@std@@AEAAAEAV?$shared_ptr@USite@NewDiagram@Voronoi@@@1@$$QEAV21@@Z 000000014003f340 f i Main.obj
 0002:000103f0       ??$_Emplace_one_at_back@V?$unique_ptr@V?$Event@N@mygal@@U?$default_delete@V?$Event@N@mygal@@@std@@@std@@@?$vector@V?$unique_ptr@V?$Event@N@mygal@@U?$default_delete@V?$Event@N@mygal@@@std@@@std@@V?$allocator@V?$unique_ptr@V?$Event@N@mygal@@U?$default_delete@V?$Event@N@mygal@@@std@@@std@@@2@@std@@AEAAAEAV?$unique_ptr@V?$Event@N@mygal@@U?$default_delete@V?$Event@N@mygal@@@std@@@1@$$QEAV21@@Z 000000014003f3f0 f i Main.obj
 0002:000104a0       ??$_Emplace_reallocate@AEBVCircleShape@sf@@@?$vector@VCircleShape@sf@@V?$allocator@VCircleShape@sf@@@std@@@std@@AEAAPEAVCircleShape@sf@@QEAV23@AEBV23@@Z 000000014003f4a0 f i Main.obj
 0002:00010750       ??$advance@V?$_List_iterator@V?$_List_val@U?$_List_simple_types@PEAUSpecial_vertex@@@std@@@std@@@std@@_J@std@@YAXAEAV?$_List_iterator@V?$_List_val@U?$_List_simple_types@PEAUSpecial_vertex@@@std@@@std@@@0@_J@Z 000000014003f750 f i MinKnapsack.obj
 0002:00010800       ??$_Emplace_reallocate@U?$pair@VPoint2D@@N@std@@@?$vector@U?$pair@VPoint2D@@N@std@@V?$allocator@U?$pair@VPoint2D@@N@std@@@2@@std@@AEAAPEAU?$pair@VPoint2D@@N@1@QEAU21@$$QEAU21@@Z 000000014003f800 f i Main.obj
 0002:00010aa0       ??$prev@V?$_List_iterator@V?$_List_val@U?$_List_simple_types@PEAUSpecial_vertex@@@std@@@std@@@std@@@std@@YA?AV?$_List_iterator@V?$_List_val@U?$_List_simple_types@PEAUSpecial_vertex@@@std@@@std@@@0@V10@_J@Z 000000014003faa0 f i MinKnapsack.obj
 0002:00010b40       ??$_Emplace_reallocate@UFace@?$Diagram@N@mygal@@@?$vector@UFace@?$Diagram@N@mygal@@V?$allocator@UFace@?$Diagram@N@mygal@@@std@@@std@@AEAAPEAUFace@?$Diagram@N@mygal@@QEAU234@$$QEAU234@@Z 000000014003fb40 f i Main.obj
 0002:00010dd0       ??0?$_Alloc_construct_ptr@V?$allocator@U?$_List_node@PEAUSpecial_vertex@@PEAX@std@@@std@@@std@@QEAA@AEAV?$allocator@U?$_List_node@PEAUSpecial_vertex@@PEAX@std@@@1@@Z 000000014003fdd0 f i MinKnapsack.obj
 0002:00010e70       ??$_Emplace_reallocate@USite@?$Diagram@N@mygal@@@?$vector@USite@?$Diagram@N@mygal@@V?$allocator@USite@?$Diagram@N@mygal@@@std@@@std@@AEAAPEAUSite@?$Diagram@N@mygal@@QEAU234@$$QEAU234@@Z 000000014003fe70 f i Main.obj
 0002:00011100       ??0?$_List_unchecked_const_iterator@V?$_List_val@U?$_List_simple_types@V?$shared_ptr@UFace@NewDiagram@Voronoi@@@std@@@std@@@std@@U_Iterator_base12@2@@std@@QEAA@PEAU?$_List_node@V?$shared_ptr@UFace@NewDiagram@Voronoi@@@std@@PEAX@1@PEBV?$_List_val@U?$_List_simple_types@V?$shared_ptr@UFace@NewDiagram@Voronoi@@@std@@@std@@@1@@Z 0000000140040100 f i MinKnapsack.obj
 0002:000111a0       ??$_Emplace_reallocate@V?$Vector2@N@mygal@@@?$vector@V?$Vector2@N@mygal@@V?$allocator@V?$Vector2@N@mygal@@@std@@@std@@AEAAPEAV?$Vector2@N@mygal@@QEAV23@$$QEAV23@@Z 00000001400401a0 f i Main.obj
 0002:00011430       ??0?$_Vector_val@U?$_Simple_types@V?$shared_ptr@UHalfEdge@NewDiagram@Voronoi@@@std@@@std@@@std@@QEAA@XZ 0000000140040430 f i MinKnapsack.obj
 0002:000114d0       ??$_Emplace_reallocate@V?$shared_ptr@USite@NewDiagram@Voronoi@@@std@@@?$vector@V?$shared_ptr@USite@NewDiagram@Voronoi@@@std@@V?$allocator@V?$shared_ptr@USite@NewDiagram@Voronoi@@@std@@@2@@std@@AEAAPEAV?$shared_ptr@USite@NewDiagram@Voronoi@@@1@QEAV21@$$QEAV21@@Z 00000001400404d0 f i Main.obj
 0002:00011760       ??1?$_Alloc_construct_ptr@V?$allocator@U?$_List_node@PEAUSpecial_vertex@@PEAX@std@@@std@@@std@@QEAA@XZ 0000000140040760 f i MinKnapsack.obj
 0002:00011800       ??$_Emplace_reallocate@V?$unique_ptr@V?$Event@N@mygal@@U?$default_delete@V?$Event@N@mygal@@@std@@@std@@@?$vector@V?$unique_ptr@V?$Event@N@mygal@@U?$default_delete@V?$Event@N@mygal@@@std@@@std@@V?$allocator@V?$unique_ptr@V?$Event@N@mygal@@U?$default_delete@V?$Event@N@mygal@@@std@@@std@@@2@@std@@AEAAPEAV?$unique_ptr@V?$Event@N@mygal@@U?$default_delete@V?$Event@N@mygal@@@std@@@1@QEAV21@$$QEAV21@@Z 0000000140040800 f i Main.obj
 0002:00011a80       ??1?$_List_node_emplace_op2@V?$allocator@U?$_List_node@PEAUSpecial_vertex@@PEAX@std@@@std@@@std@@QEAA@XZ 0000000140040a80 f i MinKnapsack.obj
 0002:00011b20       ??$_Fgetc@D@std@@YA_NAEADPEAU_iobuf@@@Z 0000000140040b20 f i Main.obj
 0002:00011b90       ??$_Find@PEAUFace@?$Diagram@N@mygal@@@?$_Hash@V?$_Umap_traits@PEAUFace@?$Diagram@N@mygal@@V?$shared_ptr@UFace@NewDiagram@Voronoi@@@std@@V?$_Uhash_compare@PEAUFace@?$Diagram@N@mygal@@U?$hash@PEAUFace@?$Diagram@N@mygal@@@std@@U?$equal_to@PEAUFace@?$Diagram@N@mygal@@@5@@5@V?$allocator@U?$pair@QEAUFace@?$Diagram@N@mygal@@V?$shared_ptr@UFace@NewDiagram@Voronoi@@@std@@@std@@@5@$0A@@std@@@std@@AEBAPEAU?$_List_node@U?$pair@QEAUFace@?$Diagram@N@mygal@@V?$shared_ptr@UFace@NewDiagram@Voronoi@@@std@@@std@@PEAX@1@AEBQEAUFace@?$Diagram@N@mygal@@_K@Z 0000000140040b90 f i Main.obj
 0002:00011c30       ??$_Find@PEAUHalfEdge@?$Diagram@N@mygal@@@?$_Hash@V?$_Umap_traits@PEAUHalfEdge@?$Diagram@N@mygal@@V?$shared_ptr@UHalfEdge@NewDiagram@Voronoi@@@std@@V?$_Uhash_compare@PEAUHalfEdge@?$Diagram@N@mygal@@U?$hash@PEAUHalfEdge@?$Diagram@N@mygal@@@std@@U?$equal_to@PEAUHalfEdge@?$Diagram@N@mygal@@@5@@5@V?$allocator@U?$pair@QEAUHalfEdge@?$Diagram@N@mygal@@V?$shared_ptr@UHalfEdge@NewDiagram@Voronoi@@@std@@@std@@@5@$0A@@std@@@std@@AEBAPEAU?$_List_node@U?$pair@QEAUHalfEdge@?$Diagram@N@mygal@@V?$shared_ptr@UHalfEdge@NewDiagram@Voronoi@@@std@@@std@@PEAX@1@AEBQEAUHalfEdge@?$Diagram@N@mygal@@_K@Z 0000000140040c30 f i Main.obj
 0002:00011cd0       ??$_Find@PEAUVertex@?$Diagram@N@mygal@@@?$_Hash@V?$_Umap_traits@PEAUVertex@?$Diagram@N@mygal@@V?$shared_ptr@UVertex@NewDiagram@Voronoi@@@std@@V?$_Uhash_compare@PEAUVertex@?$Diagram@N@mygal@@U?$hash@PEAUVertex@?$Diagram@N@mygal@@@std@@U?$equal_to@PEAUVertex@?$Diagram@N@mygal@@@5@@5@V?$allocator@U?$pair@QEAUVertex@?$Diagram@N@mygal@@V?$shared_ptr@UVertex@NewDiagram@Voronoi@@@std@@@std@@@5@$0A@@std@@@std@@AEBAPEAU?$_List_node@U?$pair@QEAUVertex@?$Diagram@N@mygal@@V?$shared_ptr@UVertex@NewDiagram@Voronoi@@@std@@@std@@PEAX@1@AEBQEAUVertex@?$Diagram@N@mygal@@_K@Z 0000000140040cd0 f i Main.obj
 0002:00011d70       ??$_Find_last@PEAUFace@?$Diagram@N@mygal@@@?$_Hash@V?$_Umap_traits@PEAUFace@?$Diagram@N@mygal@@V?$shared_ptr@UFace@NewDiagram@Voronoi@@@std@@V?$_Uhash_compare@PEAUFace@?$Diagram@N@mygal@@U?$hash@PEAUFace@?$Diagram@N@mygal@@@std@@U?$equal_to@PEAUFace@?$Diagram@N@mygal@@@5@@5@V?$allocator@U?$pair@QEAUFace@?$Diagram@N@mygal@@V?$shared_ptr@UFace@NewDiagram@Voronoi@@@std@@@std@@@5@$0A@@std@@@std@@IEBA?AU?$_Hash_find_last_result@PEAU?$_List_node@U?$pair@QEAUFace@?$Diagram@N@mygal@@V?$shared_ptr@UFace@NewDiagram@Voronoi@@@std@@@std@@PEAX@std@@@1@AEBQEAUFace@?$Diagram@N@mygal@@_K@Z 0000000140040d70 f i Main.obj
 0002:00011f40       ??$_Find_last@PEAUHalfEdge@?$Diagram@N@mygal@@@?$_Hash@V?$_Umap_traits@PEAUHalfEdge@?$Diagram@N@mygal@@V?$shared_ptr@UHalfEdge@NewDiagram@Voronoi@@@std@@V?$_Uhash_compare@PEAUHalfEdge@?$Diagram@N@mygal@@U?$hash@PEAUHalfEdge@?$Diagram@N@mygal@@@std@@U?$equal_to@PEAUHalfEdge@?$Diagram@N@mygal@@@5@@5@V?$allocator@U?$pair@QEAUHalfEdge@?$Diagram@N@mygal@@V?$shared_ptr@UHalfEdge@NewDiagram@Voronoi@@@std@@@std@@@5@$0A@@std@@@std@@IEBA?AU?$_Hash_find_last_result@PEAU?$_List_node@U?$pair@QEAUHalfEdge@?$Diagram@N@mygal@@V?$shared_ptr@UHalfEdge@NewDiagram@Voronoi@@@std@@@std@@PEAX@std@@@1@AEBQEAUHalfEdge@?$Diagram@N@mygal@@_K@Z 0000000140040f40 f i Main.obj
 0002:00012110       ??$_Find_last@PEAUVertex@?$Diagram@N@mygal@@@?$_Hash@V?$_Umap_traits@PEAUVertex@?$Diagram@N@mygal@@V?$shared_ptr@UVertex@NewDiagram@Voronoi@@@std@@V?$_Uhash_compare@PEAUVertex@?$Diagram@N@mygal@@U?$hash@PEAUVertex@?$Diagram@N@mygal@@@std@@U?$equal_to@PEAUVertex@?$Diagram@N@mygal@@@5@@5@V?$allocator@U?$pair@QEAUVertex@?$Diagram@N@mygal@@V?$shared_ptr@UVertex@NewDiagram@Voronoi@@@std@@@std@@@5@$0A@@std@@@std@@IEBA?AU?$_Hash_find_last_result@PEAU?$_List_node@U?$pair@QEAUVertex@?$Diagram@N@mygal@@V?$shared_ptr@UVertex@NewDiagram@Voronoi@@@std@@@std@@PEAX@std@@@1@AEBQEAUVertex@?$Diagram@N@mygal@@_K@Z 0000000140041110 f i Main.obj
 0002:000122e0       ??$_Fnv1a_append_value@PEAUFace@?$Diagram@N@mygal@@@std@@YA_K_KAEBQEAUFace@?$Diagram@N@mygal@@@Z 00000001400412e0 f i Main.obj
 0002:00012340       ??$_Fnv1a_append_value@PEAUHalfEdge@?$Diagram@N@mygal@@@std@@YA_K_KAEBQEAUHalfEdge@?$Diagram@N@mygal@@@Z 0000000140041340 f i Main.obj
 0002:000123a0       ??$_Fnv1a_append_value@PEAUVertex@?$Diagram@N@mygal@@@std@@YA_K_KAEBQEAUVertex@?$Diagram@N@mygal@@@Z 00000001400413a0 f i Main.obj
 0002:00012400       ??$_Fputc@D@std@@YA_NDPEAU_iobuf@@@Z 0000000140041400 f i Main.obj
 0002:00012480       ??$_Free_non_head@V?$allocator@U?$_List_node@U?$pair@QEAUFace@?$Diagram@N@mygal@@V?$shared_ptr@UFace@NewDiagram@Voronoi@@@std@@@std@@PEAX@std@@@std@@@?$_List_node@U?$pair@QEAUFace@?$Diagram@N@mygal@@V?$shared_ptr@UFace@NewDiagram@Voronoi@@@std@@@std@@PEAX@std@@SAXAEAV?$allocator@U?$_List_node@U?$pair@QEAUFace@?$Diagram@N@mygal@@V?$shared_ptr@UFace@NewDiagram@Voronoi@@@std@@@std@@PEAX@std@@@1@PEAU01@@Z 0000000140041480 f i Main.obj
 0002:00012520       ??$_Free_non_head@V?$allocator@U?$_List_node@U?$pair@QEAUHalfEdge@?$Diagram@N@mygal@@V?$shared_ptr@UHalfEdge@NewDiagram@Voronoi@@@std@@@std@@PEAX@std@@@std@@@?$_List_node@U?$pair@QEAUHalfEdge@?$Diagram@N@mygal@@V?$shared_ptr@UHalfEdge@NewDiagram@Voronoi@@@std@@@std@@PEAX@std@@SAXAEAV?$allocator@U?$_List_node@U?$pair@QEAUHalfEdge@?$Diagram@N@mygal@@V?$shared_ptr@UHalfEdge@NewDiagram@Voronoi@@@std@@@std@@PEAX@std@@@1@PEAU01@@Z 0000000140041520 f i Main.obj
 0002:000125c0       ??$_Free_non_head@V?$allocator@U?$_List_node@U?$pair@QEAUVertex@?$Diagram@N@mygal@@V?$shared_ptr@UVertex@NewDiagram@Voronoi@@@std@@@std@@PEAX@std@@@std@@@?$_List_node@U?$pair@QEAUVertex@?$Diagram@N@mygal@@V?$shared_ptr@UVertex@NewDiagram@Voronoi@@@std@@@std@@PEAX@std@@SAXAEAV?$allocator@U?$_List_node@U?$pair@QEAUVertex@?$Diagram@N@mygal@@V?$shared_ptr@UVertex@NewDiagram@Voronoi@@@std@@@std@@PEAX@std@@@1@PEAU01@@Z 00000001400415c0 f i Main.obj
 0002:00012660       ??$_Free_non_head@V?$allocator@U?$_List_node@UHalfEdge@?$Diagram@N@mygal@@PEAX@std@@@std@@@?$_List_node@UHalfEdge@?$Diagram@N@mygal@@PEAX@std@@SAXAEAV?$allocator@U?$_List_node@UHalfEdge@?$Diagram@N@mygal@@PEAX@std@@@1@PEAU01@@Z 0000000140041660 f i Main.obj
 0002:00012700       ??$_Free_non_head@V?$allocator@U?$_List_node@UVertex@?$Diagram@N@mygal@@PEAX@std@@@std@@@?$_List_node@UVertex@?$Diagram@N@mygal@@PEAX@std@@SAXAEAV?$allocator@U?$_List_node@UVertex@?$Diagram@N@mygal@@PEAX@std@@@1@PEAU01@@Z 0000000140041700 f i Main.obj
 0002:000127a0       ??$_Free_non_head@V?$allocator@U?$_List_node@V?$shared_ptr@UFace@NewDiagram@Voronoi@@@std@@PEAX@std@@@std@@@?$_List_node@V?$shared_ptr@UFace@NewDiagram@Voronoi@@@std@@PEAX@std@@SAXAEAV?$allocator@U?$_List_node@V?$shared_ptr@UFace@NewDiagram@Voronoi@@@std@@PEAX@std@@@1@PEAU01@@Z 00000001400417a0 f i Main.obj
 0002:00012840       ??$_Freenode0@V?$allocator@U?$_List_node@U?$pair@QEAUFace@?$Diagram@N@mygal@@V?$shared_ptr@UFace@NewDiagram@Voronoi@@@std@@@std@@PEAX@std@@@std@@@?$_List_node@U?$pair@QEAUFace@?$Diagram@N@mygal@@V?$shared_ptr@UFace@NewDiagram@Voronoi@@@std@@@std@@PEAX@std@@SAXAEAV?$allocator@U?$_List_node@U?$pair@QEAUFace@?$Diagram@N@mygal@@V?$shared_ptr@UFace@NewDiagram@Voronoi@@@std@@@std@@PEAX@std@@@1@PEAU01@@Z 0000000140041840 f i Main.obj
 0002:000128d0       ??$_Freenode0@V?$allocator@U?$_List_node@U?$pair@QEAUHalfEdge@?$Diagram@N@mygal@@V?$shared_ptr@UHalfEdge@NewDiagram@Voronoi@@@std@@@std@@PEAX@std@@@std@@@?$_List_node@U?$pair@QEAUHalfEdge@?$Diagram@N@mygal@@V?$shared_ptr@UHalfEdge@NewDiagram@Voronoi@@@std@@@std@@PEAX@std@@SAXAEAV?$allocator@U?$_List_node@U?$pair@QEAUHalfEdge@?$Diagram@N@mygal@@V?$shared_ptr@UHalfEdge@NewDiagram@Voronoi@@@std@@@std@@PEAX@std@@@1@PEAU01@@Z 00000001400418d0 f i Main.obj
 0002:00012960       ??$_Freenode0@V?$allocator@U?$_List_node@U?$pair@QEAUVertex@?$Diagram@N@mygal@@V?$shared_ptr@UVertex@NewDiagram@Voronoi@@@std@@@std@@PEAX@std@@@std@@@?$_List_node@U?$pair@QEAUVertex@?$Diagram@N@mygal@@V?$shared_ptr@UVertex@NewDiagram@Voronoi@@@std@@@std@@PEAX@std@@SAXAEAV?$allocator@U?$_List_node@U?$pair@QEAUVertex@?$Diagram@N@mygal@@V?$shared_ptr@UVertex@NewDiagram@Voronoi@@@std@@@std@@PEAX@std@@@1@PEAU01@@Z 0000000140041960 f i Main.obj
 0002:000129f0       ??$_Freenode0@V?$allocator@U?$_List_node@UHalfEdge@?$Diagram@N@mygal@@PEAX@std@@@std@@@?$_List_node@UHalfEdge@?$Diagram@N@mygal@@PEAX@std@@SAXAEAV?$allocator@U?$_List_node@UHalfEdge@?$Diagram@N@mygal@@PEAX@std@@@1@PEAU01@@Z 00000001400419f0 f i Main.obj
 0002:00012a80       ??$_Freenode0@V?$allocator@U?$_List_node@UVertex@?$Diagram@N@mygal@@PEAX@std@@@std@@@?$_List_node@UVertex@?$Diagram@N@mygal@@PEAX@std@@SAXAEAV?$allocator@U?$_List_node@UVertex@?$Diagram@N@mygal@@PEAX@std@@@1@PEAU01@@Z 0000000140041a80 f i Main.obj
 0002:00012b10       ??$_Freenode0@V?$allocator@U?$_List_node@V?$shared_ptr@UFace@NewDiagram@Voronoi@@@std@@PEAX@std@@@std@@@?$_List_node@V?$shared_ptr@UFace@NewDiagram@Voronoi@@@std@@PEAX@std@@SAXAEAV?$allocator@U?$_List_node@V?$shared_ptr@UFace@NewDiagram@Voronoi@@@std@@PEAX@std@@@1@PEAU01@@Z 0000000140041b10 f i Main.obj
 0002:00012ba0       ??$_Freenode@V?$allocator@U?$_List_node@U?$pair@QEAUFace@?$Diagram@N@mygal@@V?$shared_ptr@UFace@NewDiagram@Voronoi@@@std@@@std@@PEAX@std@@@std@@@?$_List_node@U?$pair@QEAUFace@?$Diagram@N@mygal@@V?$shared_ptr@UFace@NewDiagram@Voronoi@@@std@@@std@@PEAX@std@@SAXAEAV?$allocator@U?$_List_node@U?$pair@QEAUFace@?$Diagram@N@mygal@@V?$shared_ptr@UFace@NewDiagram@Voronoi@@@std@@@std@@PEAX@std@@@1@PEAU01@@Z 0000000140041ba0 f i Main.obj
 0002:00012c20       ??$_Freenode@V?$allocator@U?$_List_node@U?$pair@QEAUHalfEdge@?$Diagram@N@mygal@@V?$shared_ptr@UHalfEdge@NewDiagram@Voronoi@@@std@@@std@@PEAX@std@@@std@@@?$_List_node@U?$pair@QEAUHalfEdge@?$Diagram@N@mygal@@V?$shared_ptr@UHalfEdge@NewDiagram@Voronoi@@@std@@@std@@PEAX@std@@SAXAEAV?$allocator@U?$_List_node@U?$pair@QEAUHalfEdge@?$Diagram@N@mygal@@V?$shared_ptr@UHalfEdge@NewDiagram@Voronoi@@@std@@@std@@PEAX@std@@@1@PEAU01@@Z 0000000140041c20 f i Main.obj
 0002:00012ca0       ??$_Freenode@V?$allocator@U?$_List_node@U?$pair@QEAUVertex@?$Diagram@N@mygal@@V?$shared_ptr@UVertex@NewDiagram@Voronoi@@@std@@@std@@PEAX@std@@@std@@@?$_List_node@U?$pair@QEAUVertex@?$Diagram@N@mygal@@V?$shared_ptr@UVertex@NewDiagram@Voronoi@@@std@@@std@@PEAX@std@@SAXAEAV?$allocator@U?$_List_node@U?$pair@QEAUVertex@?$Diagram@N@mygal@@V?$shared_ptr@UVertex@NewDiagram@Voronoi@@@std@@@std@@PEAX@std@@@1@PEAU01@@Z 0000000140041ca0 f i Main.obj
 0002:00012d20       ??$_Freenode@V?$allocator@U?$_List_node@UHalfEdge@?$Diagram@N@mygal@@PEAX@std@@@std@@@?$_List_node@UHalfEdge@?$Diagram@N@mygal@@PEAX@std@@SAXAEAV?$allocator@U?$_List_node@UHalfEdge@?$Diagram@N@mygal@@PEAX@std@@@1@PEAU01@@Z 0000000140041d20 f i Main.obj
 0002:00012da0       ??$_Freenode@V?$allocator@U?$_List_node@UVertex@?$Diagram@N@mygal@@PEAX@std@@@std@@@?$_List_node@UVertex@?$Diagram@N@mygal@@PEAX@std@@SAXAEAV?$allocator@U?$_List_node@UVertex@?$Diagram@N@mygal@@PEAX@std@@@1@PEAU01@@Z 0000000140041da0 f i Main.obj
 0002:00012e20       ??$_Freenode@V?$allocator@U?$_List_node@V?$shared_ptr@UFace@NewDiagram@Voronoi@@@std@@PEAX@std@@@std@@@?$_List_node@V?$shared_ptr@UFace@NewDiagram@Voronoi@@@std@@PEAX@std@@SAXAEAV?$allocator@U?$_List_node@V?$shared_ptr@UFace@NewDiagram@Voronoi@@@std@@PEAX@std@@@1@PEAU01@@Z 0000000140041e20 f i Main.obj
 0002:00012ea0       ??$_Get_size_of_n@$00@std@@YA_K_K@Z 0000000140041ea0 f i Main.obj
 0002:00012ef0       ??$_Get_size_of_n@$07@std@@YA_K_K@Z 0000000140041ef0 f i Main.obj
 0002:00012f70       ??$_Get_size_of_n@$0BA@@std@@YA_K_K@Z 0000000140041f70 f i Main.obj
 0002:00012ff0       ??$_Get_size_of_n@$0BHA@@std@@YA_K_K@Z 0000000140041ff0 f i Main.obj
 0002:00013070       ??$_Get_size_of_n@$0BI@@std@@YA_K_K@Z 0000000140042070 f i Main.obj
 0002:000130f0       ??$_Get_size_of_n@$0CA@@std@@YA_K_K@Z 00000001400420f0 f i Main.obj
 0002:00013170       ??$_Get_size_of_n@$0CI@@std@@YA_K_K@Z 0000000140042170 f i Main.obj
 0002:000131f0       ??$_Get_size_of_n@$0DI@@std@@YA_K_K@Z 00000001400421f0 f i Main.obj
 0002:00013270       ??$_Get_size_of_n@$0FI@@std@@YA_K_K@Z 0000000140042270 f i Main.obj
 0002:000132f0       ??$_Get_unwrapped@AEBQEAU?$pair@VPoint2D@@N@std@@@std@@YA?A_TAEBQEAU?$pair@VPoint2D@@N@0@@Z 00000001400422f0 f i Main.obj
 0002:00013340       ??$_Get_unwrapped@AEBQEAUFace@?$Diagram@N@mygal@@@std@@YA?A_TAEBQEAUFace@?$Diagram@N@mygal@@@Z 0000000140042340 f i Main.obj
 0002:00013390       ??$_Get_unwrapped@AEBQEAUSite@?$Diagram@N@mygal@@@std@@YA?A_TAEBQEAUSite@?$Diagram@N@mygal@@@Z 0000000140042390 f i Main.obj
 0002:000133e0       ??$_Get_unwrapped@AEBQEAV?$Vector2@N@mygal@@@std@@YA?A_TAEBQEAV?$Vector2@N@mygal@@@Z 00000001400423e0 f i Main.obj
 0002:00013430       ??$_Get_unwrapped@AEBQEAV?$_List_unchecked_iterator@V?$_List_val@U?$_List_simple_types@U?$pair@QEAUFace@?$Diagram@N@mygal@@V?$shared_ptr@UFace@NewDiagram@Voronoi@@@std@@@std@@@std@@@std@@@std@@@std@@YA?A_TAEBQEAV?$_List_unchecked_iterator@V?$_List_val@U?$_List_simple_types@U?$pair@QEAUFace@?$Diagram@N@mygal@@V?$shared_ptr@UFace@NewDiagram@Voronoi@@@std@@@std@@@std@@@std@@@0@@Z 0000000140042430 f i Main.obj
 0002:00013480       ??$_Get_unwrapped@AEBQEAV?$_List_unchecked_iterator@V?$_List_val@U?$_List_simple_types@U?$pair@QEAUHalfEdge@?$Diagram@N@mygal@@V?$shared_ptr@UHalfEdge@NewDiagram@Voronoi@@@std@@@std@@@std@@@std@@@std@@@std@@YA?A_TAEBQEAV?$_List_unchecked_iterator@V?$_List_val@U?$_List_simple_types@U?$pair@QEAUHalfEdge@?$Diagram@N@mygal@@V?$shared_ptr@UHalfEdge@NewDiagram@Voronoi@@@std@@@std@@@std@@@std@@@0@@Z 0000000140042480 f i Main.obj
 0002:000134d0       ??$_Get_unwrapped@AEBQEAV?$_List_unchecked_iterator@V?$_List_val@U?$_List_simple_types@U?$pair@QEAUVertex@?$Diagram@N@mygal@@V?$shared_ptr@UVertex@NewDiagram@Voronoi@@@std@@@std@@@std@@@std@@@std@@@std@@YA?A_TAEBQEAV?$_List_unchecked_iterator@V?$_List_val@U?$_List_simple_types@U?$pair@QEAUVertex@?$Diagram@N@mygal@@V?$shared_ptr@UVertex@NewDiagram@Voronoi@@@std@@@std@@@std@@@std@@@0@@Z 00000001400424d0 f i Main.obj
 0002:00013520       ??$_Get_unwrapped@AEBQEAV?$shared_ptr@USite@NewDiagram@Voronoi@@@std@@@std@@YA?A_TAEBQEAV?$shared_ptr@USite@NewDiagram@Voronoi@@@0@@Z 0000000140042520 f i Main.obj
 0002:00013570       ??$_Get_unwrapped@AEBQEAV?$unique_ptr@V?$Event@N@mygal@@U?$default_delete@V?$Event@N@mygal@@@std@@@std@@@std@@YA?A_TAEBQEAV?$unique_ptr@V?$Event@N@mygal@@U?$default_delete@V?$Event@N@mygal@@@std@@@0@@Z 0000000140042570 f i Main.obj
 0002:000135c0       ??$_Get_unwrapped@AEBQEAVCircleShape@sf@@@std@@YA?A_TAEBQEAVCircleShape@sf@@@Z 00000001400425c0 f i Main.obj
 0002:00013610       ??$_Get_unwrapped@PEAU?$pair@VPoint2D@@N@std@@@std@@YA?A_T$$QEAPEAU?$pair@VPoint2D@@N@0@@Z 0000000140042610 f i Main.obj
 0002:00013660       ??$_Get_unwrapped@PEAV?$Vector2@N@mygal@@@std@@YA?A_T$$QEAPEAV?$Vector2@N@mygal@@@Z 0000000140042660 f i Main.obj
 0002:000136b0       ??$_Get_unwrapped@PEAV?$shared_ptr@USite@NewDiagram@Voronoi@@@std@@@std@@YA?A_T$$QEAPEAV?$shared_ptr@USite@NewDiagram@Voronoi@@@0@@Z 00000001400426b0 f i Main.obj
 0002:00013700       ??$_Get_unwrapped@PEAVCircleShape@sf@@@std@@YA?A_T$$QEAPEAVCircleShape@sf@@@Z 0000000140042700 f i Main.obj
 0002:00013750       ??$_Get_unwrapped@PEBV?$shared_ptr@USite@NewDiagram@Voronoi@@@std@@@std@@YA?A_T$$QEAPEBV?$shared_ptr@USite@NewDiagram@Voronoi@@@0@@Z 0000000140042750 f i Main.obj
 0002:000137a0       ??$_Get_unwrapped_n@V?$_List_iterator@V?$_List_val@U?$_List_simple_types@UHalfEdge@?$Diagram@N@mygal@@@std@@@std@@@std@@_J@std@@YA?A_T$$QEAV?$_List_iterator@V?$_List_val@U?$_List_simple_types@UHalfEdge@?$Diagram@N@mygal@@@std@@@std@@@0@_J@Z 00000001400427a0 f i Main.obj
 0002:000137f0       ??$_Get_unwrapped_n@V?$_List_iterator@V?$_List_val@U?$_List_simple_types@UVertex@?$Diagram@N@mygal@@@std@@@std@@@std@@_J@std@@YA?A_T$$QEAV?$_List_iterator@V?$_List_val@U?$_List_simple_types@UVertex@?$Diagram@N@mygal@@@std@@@std@@@0@_J@Z 00000001400427f0 f i Main.obj
 0002:00013840       ??$_Getvals@_W@?$time_get@DV?$istreambuf_iterator@DU?$char_traits@D@std@@@std@@@std@@IEAAX_WAEBV_Locinfo@1@@Z 0000000140042840 f i Main.obj
 0002:00013a00       ??$_Getvals@_W@?$time_get@_WV?$istreambuf_iterator@_WU?$char_traits@_W@std@@@std@@@std@@IEAAX_WAEBV_Locinfo@1@@Z 0000000140042a00 f i Main.obj
 0002:00013bc0       ??$_Hash_representation@PEAUFace@?$Diagram@N@mygal@@@std@@YA_KAEBQEAUFace@?$Diagram@N@mygal@@@Z 0000000140042bc0 f i Main.obj
 0002:00013c10       ??$_Hash_representation@PEAUHalfEdge@?$Diagram@N@mygal@@@std@@YA_KAEBQEAUHalfEdge@?$Diagram@N@mygal@@@Z 0000000140042c10 f i Main.obj
 0002:00013c60       ??$_Hash_representation@PEAUVertex@?$Diagram@N@mygal@@@std@@YA_KAEBQEAUVertex@?$Diagram@N@mygal@@@Z 0000000140042c60 f i Main.obj
 0002:00013cb0       ??$_Kfn@QEAUFace@?$Diagram@N@mygal@@V?$shared_ptr@UFace@NewDiagram@Voronoi@@@std@@@?$_Umap_traits@PEAUFace@?$Diagram@N@mygal@@V?$shared_ptr@UFace@NewDiagram@Voronoi@@@std@@V?$_Uhash_compare@PEAUFace@?$Diagram@N@mygal@@U?$hash@PEAUFace@?$Diagram@N@mygal@@@std@@U?$equal_to@PEAUFace@?$Diagram@N@mygal@@@5@@5@V?$allocator@U?$pair@QEAUFace@?$Diagram@N@mygal@@V?$shared_ptr@UFace@NewDiagram@Voronoi@@@std@@@std@@@5@$0A@@std@@SAAEBQEAUFace@?$Diagram@N@mygal@@AEBU?$pair@QEAUFace@?$Diagram@N@mygal@@V?$shared_ptr@UFace@NewDiagram@Voronoi@@@std@@@1@@Z 0000000140042cb0 f i Main.obj
 0002:00013cf0       ??$_Kfn@QEAUHalfEdge@?$Diagram@N@mygal@@V?$shared_ptr@UHalfEdge@NewDiagram@Voronoi@@@std@@@?$_Umap_traits@PEAUHalfEdge@?$Diagram@N@mygal@@V?$shared_ptr@UHalfEdge@NewDiagram@Voronoi@@@std@@V?$_Uhash_compare@PEAUHalfEdge@?$Diagram@N@mygal@@U?$hash@PEAUHalfEdge@?$Diagram@N@mygal@@@std@@U?$equal_to@PEAUHalfEdge@?$Diagram@N@mygal@@@5@@5@V?$allocator@U?$pair@QEAUHalfEdge@?$Diagram@N@mygal@@V?$shared_ptr@UHalfEdge@NewDiagram@Voronoi@@@std@@@std@@@5@$0A@@std@@SAAEBQEAUHalfEdge@?$Diagram@N@mygal@@AEBU?$pair@QEAUHalfEdge@?$Diagram@N@mygal@@V?$shared_ptr@UHalfEdge@NewDiagram@Voronoi@@@std@@@1@@Z 0000000140042cf0 f i Main.obj
 0002:00013d30       ??$_Kfn@QEAUVertex@?$Diagram@N@mygal@@V?$shared_ptr@UVertex@NewDiagram@Voronoi@@@std@@@?$_Umap_traits@PEAUVertex@?$Diagram@N@mygal@@V?$shared_ptr@UVertex@NewDiagram@Voronoi@@@std@@V?$_Uhash_compare@PEAUVertex@?$Diagram@N@mygal@@U?$hash@PEAUVertex@?$Diagram@N@mygal@@@std@@U?$equal_to@PEAUVertex@?$Diagram@N@mygal@@@5@@5@V?$allocator@U?$pair@QEAUVertex@?$Diagram@N@mygal@@V?$shared_ptr@UVertex@NewDiagram@Voronoi@@@std@@@std@@@5@$0A@@std@@SAAEBQEAUVertex@?$Diagram@N@mygal@@AEBU?$pair@QEAUVertex@?$Diagram@N@mygal@@V?$shared_ptr@UVertex@NewDiagram@Voronoi@@@std@@@1@@Z 0000000140042d30 f i Main.obj
 0002:00013d70       ??$_Maklocstr@D@std@@YAPEADPEBDPEADAEBU_Cvtvec@@@Z 0000000140042d70 f i Main.obj
 0002:00013e70       ??$_Maklocstr@_W@std@@YAPEA_WPEBDPEA_WAEBU_Cvtvec@@@Z 0000000140042e70 f i Main.obj
 0002:000140c0       ??1Special_vertex@@QEAA@XZ 00000001400430c0 f i MinKnapsack.obj
 0002:00014150       ??$_Max_limit@_J@std@@YA_JXZ 0000000140043150 f i Main.obj
 0002:000141a0       ??$_Move_construct_from@UFace@NewDiagram@Voronoi@@@?$_Ptr_base@UFace@NewDiagram@Voronoi@@@std@@IEAAX$$QEAV01@@Z 00000001400431a0 f i Main.obj
 0002:00014240       ??$_Move_construct_from@USite@NewDiagram@Voronoi@@@?$_Ptr_base@USite@NewDiagram@Voronoi@@@std@@IEAAX$$QEAV01@@Z 0000000140043240 f i Main.obj
 0002:000142e0       ??$_Move_construct_from@UVertex@NewDiagram@Voronoi@@@?$_Ptr_base@UVertex@NewDiagram@Voronoi@@@std@@IEAAX$$QEAV01@@Z 00000001400432e0 f i Main.obj
 0002:00014380       ??$_Pocca@V?$allocator@V?$shared_ptr@USite@NewDiagram@Voronoi@@@std@@@std@@@std@@YAXAEAV?$allocator@V?$shared_ptr@USite@NewDiagram@Voronoi@@@std@@@0@AEBV10@@Z 0000000140043380 f i Main.obj
 0002:000143c0       ??$_Reallocate@$0A@@?$vector@UFace@?$Diagram@N@mygal@@V?$allocator@UFace@?$Diagram@N@mygal@@@std@@@std@@AEAAXAEA_K@Z 00000001400433c0 f i Main.obj
 0002:000144e0       ??$_Reallocate@$0A@@?$vector@USite@?$Diagram@N@mygal@@V?$allocator@USite@?$Diagram@N@mygal@@@std@@@std@@AEAAXAEA_K@Z 00000001400434e0 f i Main.obj
 0002:00014600       ??$_Reallocate@$0A@@?$vector@V?$shared_ptr@USite@NewDiagram@Voronoi@@@std@@V?$allocator@V?$shared_ptr@USite@NewDiagram@Voronoi@@@std@@@2@@std@@AEAAXAEA_K@Z 0000000140043600 f i Main.obj
 0002:00014720       ??$_Reallocate_grow_by@V<lambda_1>@?1??push_back@?$basic_string@DU?$char_traits@D@std@@V?$allocator@D@2@@std@@QEAAXD@Z@D@?$basic_string@DU?$char_traits@D@std@@V?$allocator@D@2@@std@@AEAAAEAV01@_KV<lambda_1>@?1??push_back@01@QEAAXD@Z@D@Z 0000000140043720 f i Main.obj
 0002:000149c0       ??$_Set_ptr_rep_and_enable_shared@UFace@NewDiagram@Voronoi@@@?$shared_ptr@UFace@NewDiagram@Voronoi@@@std@@AEAAXQEAUFace@NewDiagram@Voronoi@@QEAV_Ref_count_base@1@@Z 00000001400439c0 f i Main.obj
 0002:00014a30       ??$_Set_ptr_rep_and_enable_shared@UHalfEdge@NewDiagram@Voronoi@@@?$shared_ptr@UHalfEdge@NewDiagram@Voronoi@@@std@@AEAAXQEAUHalfEdge@NewDiagram@Voronoi@@QEAV_Ref_count_base@1@@Z 0000000140043a30 f i Main.obj
 0002:00014aa0       ??$_Set_ptr_rep_and_enable_shared@USite@NewDiagram@Voronoi@@@?$shared_ptr@USite@NewDiagram@Voronoi@@@std@@AEAAXQEAUSite@NewDiagram@Voronoi@@QEAV_Ref_count_base@1@@Z 0000000140043aa0 f i Main.obj
 0002:00014b10       ??$_Set_ptr_rep_and_enable_shared@UVertex@NewDiagram@Voronoi@@@?$shared_ptr@UVertex@NewDiagram@Voronoi@@@std@@AEAAXQEAUVertex@NewDiagram@Voronoi@@QEAV_Ref_count_base@1@@Z 0000000140043b10 f i Main.obj
 0002:00014b80       ??$_To_address@PEAUFace@?$Diagram@N@mygal@@@std@@YA?A_PAEBQEAUFace@?$Diagram@N@mygal@@@Z 0000000140043b80 f i Main.obj
 0002:00014bd0       ??$_To_address@PEAUSite@?$Diagram@N@mygal@@@std@@YA?A_PAEBQEAUSite@?$Diagram@N@mygal@@@Z 0000000140043bd0 f i Main.obj
 0002:00014c20       ??$_To_address@PEAV?$Vector2@N@mygal@@@std@@YA?A_PAEBQEAV?$Vector2@N@mygal@@@Z 0000000140043c20 f i Main.obj
 0002:00014c70       ??$_Try_emplace@AEBQEAUFace@?$Diagram@N@mygal@@$$V@?$_Hash@V?$_Umap_traits@PEAUFace@?$Diagram@N@mygal@@V?$shared_ptr@UFace@NewDiagram@Voronoi@@@std@@V?$_Uhash_compare@PEAUFace@?$Diagram@N@mygal@@U?$hash@PEAUFace@?$Diagram@N@mygal@@@std@@U?$equal_to@PEAUFace@?$Diagram@N@mygal@@@5@@5@V?$allocator@U?$pair@QEAUFace@?$Diagram@N@mygal@@V?$shared_ptr@UFace@NewDiagram@Voronoi@@@std@@@std@@@5@$0A@@std@@@std@@IEAA?AU?$pair@PEAU?$_List_node@U?$pair@QEAUFace@?$Diagram@N@mygal@@V?$shared_ptr@UFace@NewDiagram@Voronoi@@@std@@@std@@PEAX@std@@_N@1@AEBQEAUFace@?$Diagram@N@mygal@@@Z 0000000140043c70 f i Main.obj
 0002:00014f40       ??$_Try_emplace@AEBQEAUHalfEdge@?$Diagram@N@mygal@@$$V@?$_Hash@V?$_Umap_traits@PEAUHalfEdge@?$Diagram@N@mygal@@V?$shared_ptr@UHalfEdge@NewDiagram@Voronoi@@@std@@V?$_Uhash_compare@PEAUHalfEdge@?$Diagram@N@mygal@@U?$hash@PEAUHalfEdge@?$Diagram@N@mygal@@@std@@U?$equal_to@PEAUHalfEdge@?$Diagram@N@mygal@@@5@@5@V?$allocator@U?$pair@QEAUHalfEdge@?$Diagram@N@mygal@@V?$shared_ptr@UHalfEdge@NewDiagram@Voronoi@@@std@@@std@@@5@$0A@@std@@@std@@IEAA?AU?$pair@PEAU?$_List_node@U?$pair@QEAUHalfEdge@?$Diagram@N@mygal@@V?$shared_ptr@UHalfEdge@NewDiagram@Voronoi@@@std@@@std@@PEAX@std@@_N@1@AEBQEAUHalfEdge@?$Diagram@N@mygal@@@Z 0000000140043f40 f i Main.obj
 0002:00015210       ??$_Try_emplace@AEBQEAUVertex@?$Diagram@N@mygal@@$$V@?$_Hash@V?$_Umap_traits@PEAUVertex@?$Diagram@N@mygal@@V?$shared_ptr@UVertex@NewDiagram@Voronoi@@@std@@V?$_Uhash_compare@PEAUVertex@?$Diagram@N@mygal@@U?$hash@PEAUVertex@?$Diagram@N@mygal@@@std@@U?$equal_to@PEAUVertex@?$Diagram@N@mygal@@@5@@5@V?$allocator@U?$pair@QEAUVertex@?$Diagram@N@mygal@@V?$shared_ptr@UVertex@NewDiagram@Voronoi@@@std@@@std@@@5@$0A@@std@@@std@@IEAA?AU?$pair@PEAU?$_List_node@U?$pair@QEAUVertex@?$Diagram@N@mygal@@V?$shared_ptr@UVertex@NewDiagram@Voronoi@@@std@@@std@@PEAX@std@@_N@1@AEBQEAUVertex@?$Diagram@N@mygal@@@Z 0000000140044210 f i Main.obj
 0002:000154e0       ??$_Tuple_get@$0A@AEBQEAUFace@?$Diagram@N@mygal@@@std@@YA$$QEA_P$$QEAV?$tuple@AEBQEAUFace@?$Diagram@N@mygal@@@0@@Z 00000001400444e0 f i Main.obj
 0002:00015530       ??$_Tuple_get@$0A@AEBQEAUHalfEdge@?$Diagram@N@mygal@@@std@@YA$$QEA_P$$QEAV?$tuple@AEBQEAUHalfEdge@?$Diagram@N@mygal@@@0@@Z 0000000140044530 f i Main.obj
 0002:00015580       ??$_Tuple_get@$0A@AEBQEAUVertex@?$Diagram@N@mygal@@@std@@YA$$QEA_P$$QEAV?$tuple@AEBQEAUVertex@?$Diagram@N@mygal@@@0@@Z 0000000140044580 f i Main.obj
 0002:000155d0       ??$_Unfancy@D@std@@YAPEADPEAD@Z 00000001400445d0 f i Main.obj
 0002:00015610       ??$_Unfancy@U?$pair@VPoint2D@@N@std@@@std@@YAPEAU?$pair@VPoint2D@@N@0@PEAU10@@Z 0000000140044610 f i Main.obj
 0002:00015650       ??$_Unfancy@UFace@?$Diagram@N@mygal@@@std@@YAPEAUFace@?$Diagram@N@mygal@@PEAU123@@Z 0000000140044650 f i Main.obj
 0002:00015690       ??$_Unfancy@USite@?$Diagram@N@mygal@@@std@@YAPEAUSite@?$Diagram@N@mygal@@PEAU123@@Z 0000000140044690 f i Main.obj
 0002:000156d0       ??$_Unfancy@U_Container_proxy@std@@@std@@YAPEAU_Container_proxy@0@PEAU10@@Z 00000001400446d0 f i Main.obj
 0002:00015710       ??$_Unfancy@V?$Vector2@N@mygal@@@std@@YAPEAV?$Vector2@N@mygal@@PEAV12@@Z 0000000140044710 f i Main.obj
 0002:00015750       ??$_Unfancy@V?$shared_ptr@USite@NewDiagram@Voronoi@@@std@@@std@@YAPEAV?$shared_ptr@USite@NewDiagram@Voronoi@@@0@PEAV10@@Z 0000000140044750 f i Main.obj
 0002:00015790       ??$_Unfancy@V?$unique_ptr@V?$Event@N@mygal@@U?$default_delete@V?$Event@N@mygal@@@std@@@std@@@std@@YAPEAV?$unique_ptr@V?$Event@N@mygal@@U?$default_delete@V?$Event@N@mygal@@@std@@@0@PEAV10@@Z 0000000140044790 f i Main.obj
 0002:000157d0       ??$_Unfancy@VCircleShape@sf@@@std@@YAPEAVCircleShape@sf@@PEAV12@@Z 00000001400447d0 f i Main.obj
 0002:00015810       ??$_Unfancy_maybe_null@U?$pair@VPoint2D@@N@std@@@std@@YAPEAU?$pair@VPoint2D@@N@0@PEAU10@@Z 0000000140044810 f i Main.obj
 0002:00015850       ??$_Unfancy_maybe_null@VCircleShape@sf@@@std@@YAPEAVCircleShape@sf@@PEAV12@@Z 0000000140044850 f i Main.obj
 0002:00015890       ??$_Ungetc@D@std@@YA_NAEBDPEAU_iobuf@@@Z 0000000140044890 f i Main.obj
 0002:00015920       ??$_Uninitialized_copy@PEAU?$pair@VPoint2D@@N@std@@PEAU12@V?$allocator@U?$pair@VPoint2D@@N@std@@@2@@std@@YAPEAU?$pair@VPoint2D@@N@0@PEAU10@00AEAV?$allocator@U?$pair@VPoint2D@@N@std@@@0@@Z 0000000140044920 f i Main.obj
 0002:00015a80       ??$_Uninitialized_copy@PEAV?$Vector2@N@mygal@@PEAV12@V?$allocator@V?$Vector2@N@mygal@@@std@@@std@@YAPEAV?$Vector2@N@mygal@@PEAV12@00AEAV?$allocator@V?$Vector2@N@mygal@@@0@@Z 0000000140044a80 f i Main.obj
 0002:00015c80       ??$_Uninitialized_copy@PEAVCircleShape@sf@@PEAV12@V?$allocator@VCircleShape@sf@@@std@@@std@@YAPEAVCircleShape@sf@@PEAV12@00AEAV?$allocator@VCircleShape@sf@@@0@@Z 0000000140044c80 f i Main.obj
 0002:00015df0       ??$_Uninitialized_copy_n@PEAV?$shared_ptr@USite@NewDiagram@Voronoi@@@std@@V?$allocator@V?$shared_ptr@USite@NewDiagram@Voronoi@@@std@@@2@@std@@YAPEAV?$shared_ptr@USite@NewDiagram@Voronoi@@@0@PEAV10@_K0AEAV?$allocator@V?$shared_ptr@USite@NewDiagram@Voronoi@@@std@@@0@@Z 0000000140044df0 f i Main.obj
 0002:00015f60       ??$_Uninitialized_copy_n@PEBV?$shared_ptr@USite@NewDiagram@Voronoi@@@std@@V?$allocator@V?$shared_ptr@USite@NewDiagram@Voronoi@@@std@@@2@@std@@YAPEAV?$shared_ptr@USite@NewDiagram@Voronoi@@@0@PEBV10@_KPEAV10@AEAV?$allocator@V?$shared_ptr@USite@NewDiagram@Voronoi@@@std@@@0@@Z 0000000140044f60 f i Main.obj
 0002:000160d0       ??$_Uninitialized_move@PEAU?$pair@VPoint2D@@N@std@@V?$allocator@U?$pair@VPoint2D@@N@std@@@2@@std@@YAPEAU?$pair@VPoint2D@@N@0@QEAU10@0PEAU10@AEAV?$allocator@U?$pair@VPoint2D@@N@std@@@0@@Z 00000001400450d0 f i Main.obj
 0002:00016230       ??$_Uninitialized_move@PEAUFace@?$Diagram@N@mygal@@V?$allocator@UFace@?$Diagram@N@mygal@@@std@@@std@@YAPEAUFace@?$Diagram@N@mygal@@QEAU123@0PEAU123@AEAV?$allocator@UFace@?$Diagram@N@mygal@@@0@@Z 0000000140045230 f i Main.obj
 0002:000163e0       ??$_Uninitialized_move@PEAUSite@?$Diagram@N@mygal@@V?$allocator@USite@?$Diagram@N@mygal@@@std@@@std@@YAPEAUSite@?$Diagram@N@mygal@@QEAU123@0PEAU123@AEAV?$allocator@USite@?$Diagram@N@mygal@@@0@@Z 00000001400453e0 f i Main.obj
 0002:00016590       ??$_Uninitialized_move@PEAV?$Vector2@N@mygal@@V?$allocator@V?$Vector2@N@mygal@@@std@@@std@@YAPEAV?$Vector2@N@mygal@@QEAV12@0PEAV12@AEAV?$allocator@V?$Vector2@N@mygal@@@0@@Z 0000000140045590 f i Main.obj
 0002:00016740       ??$_Uninitialized_move@PEAV?$shared_ptr@USite@NewDiagram@Voronoi@@@std@@V?$allocator@V?$shared_ptr@USite@NewDiagram@Voronoi@@@std@@@2@@std@@YAPEAV?$shared_ptr@USite@NewDiagram@Voronoi@@@0@QEAV10@0PEAV10@AEAV?$allocator@V?$shared_ptr@USite@NewDiagram@Voronoi@@@std@@@0@@Z 0000000140045740 f i Main.obj
 0002:000168a0       ??$_Uninitialized_move@PEAV?$unique_ptr@V?$Event@N@mygal@@U?$default_delete@V?$Event@N@mygal@@@std@@@std@@V?$allocator@V?$unique_ptr@V?$Event@N@mygal@@U?$default_delete@V?$Event@N@mygal@@@std@@@std@@@2@@std@@YAPEAV?$unique_ptr@V?$Event@N@mygal@@U?$default_delete@V?$Event@N@mygal@@@std@@@0@QEAV10@0PEAV10@AEAV?$allocator@V?$unique_ptr@V?$Event@N@mygal@@U?$default_delete@V?$Event@N@mygal@@@std@@@std@@@0@@Z 00000001400458a0 f i Main.obj
 0002:00016a00       ??$_Uninitialized_move@PEAVCircleShape@sf@@V?$allocator@VCircleShape@sf@@@std@@@std@@YAPEAVCircleShape@sf@@QEAV12@0PEAV12@AEAV?$allocator@VCircleShape@sf@@@0@@Z 0000000140045a00 f i Main.obj
 0002:00016b60       ??$_Uninitialized_value_construct_n@V?$allocator@V?$shared_ptr@USite@NewDiagram@Voronoi@@@std@@@std@@@std@@YAPEAV?$shared_ptr@USite@NewDiagram@Voronoi@@@0@PEAV10@_KAEAV?$allocator@V?$shared_ptr@USite@NewDiagram@Voronoi@@@std@@@0@@Z 0000000140045b60 f i Main.obj
 0002:00016c90       ??$addressof@$$CBV?$_List_val@U?$_List_simple_types@U?$pair@QEAUFace@?$Diagram@N@mygal@@V?$shared_ptr@UFace@NewDiagram@Voronoi@@@std@@@std@@@std@@@std@@@std@@YAPEBV?$_List_val@U?$_List_simple_types@U?$pair@QEAUFace@?$Diagram@N@mygal@@V?$shared_ptr@UFace@NewDiagram@Voronoi@@@std@@@std@@@std@@@0@AEBV10@@Z 0000000140045c90 f i Main.obj
 0002:00016cd0       ??$addressof@$$CBV?$_List_val@U?$_List_simple_types@U?$pair@QEAUHalfEdge@?$Diagram@N@mygal@@V?$shared_ptr@UHalfEdge@NewDiagram@Voronoi@@@std@@@std@@@std@@@std@@@std@@YAPEBV?$_List_val@U?$_List_simple_types@U?$pair@QEAUHalfEdge@?$Diagram@N@mygal@@V?$shared_ptr@UHalfEdge@NewDiagram@Voronoi@@@std@@@std@@@std@@@0@AEBV10@@Z 0000000140045cd0 f i Main.obj
 0002:00016d10       ??$addressof@$$CBV?$_List_val@U?$_List_simple_types@U?$pair@QEAUVertex@?$Diagram@N@mygal@@V?$shared_ptr@UVertex@NewDiagram@Voronoi@@@std@@@std@@@std@@@std@@@std@@YAPEBV?$_List_val@U?$_List_simple_types@U?$pair@QEAUVertex@?$Diagram@N@mygal@@V?$shared_ptr@UVertex@NewDiagram@Voronoi@@@std@@@std@@@std@@@0@AEBV10@@Z 0000000140045d10 f i Main.obj
 0002:00016d50       ??$addressof@$$CBV?$codecvt@DDU_Mbstatet@@@std@@@std@@YAPEBV?$codecvt@DDU_Mbstatet@@@0@AEBV10@@Z 0000000140045d50 f i Main.obj
 0002:00016d90       ??$addressof@$$CBV?$vector@V?$shared_ptr@USite@NewDiagram@Voronoi@@@std@@V?$allocator@V?$shared_ptr@USite@NewDiagram@Voronoi@@@std@@@2@@std@@@std@@YAPEBV?$vector@V?$shared_ptr@USite@NewDiagram@Voronoi@@@std@@V?$allocator@V?$shared_ptr@USite@NewDiagram@Voronoi@@@std@@@2@@0@AEBV10@@Z 0000000140045d90 f i Main.obj
 0002:00016dd0       ??$addressof@PEAD@std@@YAPEAPEADAEAPEAD@Z 0000000140045dd0 f i Main.obj
 0002:00016e10       ??$addressof@PEAU?$_List_node@U?$pair@QEAUFace@?$Diagram@N@mygal@@V?$shared_ptr@UFace@NewDiagram@Voronoi@@@std@@@std@@PEAX@std@@@std@@YAPEAPEAU?$_List_node@U?$pair@QEAUFace@?$Diagram@N@mygal@@V?$shared_ptr@UFace@NewDiagram@Voronoi@@@std@@@std@@PEAX@0@AEAPEAU10@@Z 0000000140045e10 f i Main.obj
 0002:00016e50       ??$addressof@PEAU?$_List_node@U?$pair@QEAUHalfEdge@?$Diagram@N@mygal@@V?$shared_ptr@UHalfEdge@NewDiagram@Voronoi@@@std@@@std@@PEAX@std@@@std@@YAPEAPEAU?$_List_node@U?$pair@QEAUHalfEdge@?$Diagram@N@mygal@@V?$shared_ptr@UHalfEdge@NewDiagram@Voronoi@@@std@@@std@@PEAX@0@AEAPEAU10@@Z 0000000140045e50 f i Main.obj
 0002:00016e90       ??$addressof@PEAU?$_List_node@U?$pair@QEAUVertex@?$Diagram@N@mygal@@V?$shared_ptr@UVertex@NewDiagram@Voronoi@@@std@@@std@@PEAX@std@@@std@@YAPEAPEAU?$_List_node@U?$pair@QEAUVertex@?$Diagram@N@mygal@@V?$shared_ptr@UVertex@NewDiagram@Voronoi@@@std@@@std@@PEAX@0@AEAPEAU10@@Z 0000000140045e90 f i Main.obj
 0002:00016ed0       ??$addressof@PEAU?$_List_node@UHalfEdge@?$Diagram@N@mygal@@PEAX@std@@@std@@YAPEAPEAU?$_List_node@UHalfEdge@?$Diagram@N@mygal@@PEAX@0@AEAPEAU10@@Z 0000000140045ed0 f i Main.obj
 0002:00016f10       ??$addressof@PEAU?$_List_node@UVertex@?$Diagram@N@mygal@@PEAX@std@@@std@@YAPEAPEAU?$_List_node@UVertex@?$Diagram@N@mygal@@PEAX@0@AEAPEAU10@@Z 0000000140045f10 f i Main.obj
 0002:00016f50       ??$addressof@PEAU?$_List_node@V?$shared_ptr@UFace@NewDiagram@Voronoi@@@std@@PEAX@std@@@std@@YAPEAPEAU?$_List_node@V?$shared_ptr@UFace@NewDiagram@Voronoi@@@std@@PEAX@0@AEAPEAU10@@Z 0000000140045f50 f i Main.obj
 0002:00016f90       ??$addressof@U?$pair@QEAUFace@?$Diagram@N@mygal@@V?$shared_ptr@UFace@NewDiagram@Voronoi@@@std@@@std@@@std@@YAPEAU?$pair@QEAUFace@?$Diagram@N@mygal@@V?$shared_ptr@UFace@NewDiagram@Voronoi@@@std@@@0@AEAU10@@Z 0000000140045f90 f i Main.obj
 0002:00016fd0       ??$addressof@U?$pair@QEAUHalfEdge@?$Diagram@N@mygal@@V?$shared_ptr@UHalfEdge@NewDiagram@Voronoi@@@std@@@std@@@std@@YAPEAU?$pair@QEAUHalfEdge@?$Diagram@N@mygal@@V?$shared_ptr@UHalfEdge@NewDiagram@Voronoi@@@std@@@0@AEAU10@@Z 0000000140045fd0 f i Main.obj
 0002:00017010       ??$addressof@U?$pair@QEAUVertex@?$Diagram@N@mygal@@V?$shared_ptr@UVertex@NewDiagram@Voronoi@@@std@@@std@@@std@@YAPEAU?$pair@QEAUVertex@?$Diagram@N@mygal@@V?$shared_ptr@UVertex@NewDiagram@Voronoi@@@std@@@0@AEAU10@@Z 0000000140046010 f i Main.obj
 0002:00017050       ??$addressof@UFace@?$Diagram@N@mygal@@@std@@YAPEAUFace@?$Diagram@N@mygal@@AEAU123@@Z 0000000140046050 f i Main.obj
 0002:00017090       ??$addressof@UFace@NewDiagram@Voronoi@@@std@@YAPEAUFace@NewDiagram@Voronoi@@AEAU123@@Z 0000000140046090 f i Main.obj
 0002:000170d0       ??$addressof@UHalfEdge@?$Diagram@N@mygal@@@std@@YAPEAUHalfEdge@?$Diagram@N@mygal@@AEAU123@@Z 00000001400460d0 f i Main.obj
 0002:00017110       ??$addressof@UHalfEdge@NewDiagram@Voronoi@@@std@@YAPEAUHalfEdge@NewDiagram@Voronoi@@AEAU123@@Z 0000000140046110 f i Main.obj
 0002:00017150       ??$addressof@USite@?$Diagram@N@mygal@@@std@@YAPEAUSite@?$Diagram@N@mygal@@AEAU123@@Z 0000000140046150 f i Main.obj
 0002:00017190       ??$addressof@USite@NewDiagram@Voronoi@@@std@@YAPEAUSite@NewDiagram@Voronoi@@AEAU123@@Z 0000000140046190 f i Main.obj
 0002:000171d0       ??$addressof@UVertex@?$Diagram@N@mygal@@@std@@YAPEAUVertex@?$Diagram@N@mygal@@AEAU123@@Z 00000001400461d0 f i Main.obj
 0002:00017210       ??$addressof@UVertex@NewDiagram@Voronoi@@@std@@YAPEAUVertex@NewDiagram@Voronoi@@AEAU123@@Z 0000000140046210 f i Main.obj
 0002:00017250       ??$addressof@U_Container_base12@std@@@std@@YAPEAU_Container_base12@0@AEAU10@@Z 0000000140046250 f i Main.obj
 0002:00017290       ??$addressof@U_Container_proxy@std@@@std@@YAPEAU_Container_proxy@0@AEAU10@@Z 0000000140046290 f i Main.obj
 0002:000172d0       ??$addressof@V?$Vector2@N@mygal@@@std@@YAPEAV?$Vector2@N@mygal@@AEAV12@@Z 00000001400462d0 f i Main.obj
 0002:00017310       ??$addressof@V?$_List_unchecked_iterator@V?$_List_val@U?$_List_simple_types@U?$pair@QEAUFace@?$Diagram@N@mygal@@V?$shared_ptr@UFace@NewDiagram@Voronoi@@@std@@@std@@@std@@@std@@@std@@@std@@YAPEAV?$_List_unchecked_iterator@V?$_List_val@U?$_List_simple_types@U?$pair@QEAUFace@?$Diagram@N@mygal@@V?$shared_ptr@UFace@NewDiagram@Voronoi@@@std@@@std@@@std@@@std@@@0@AEAV10@@Z 0000000140046310 f i Main.obj
 0002:00017350       ??$addressof@V?$_List_unchecked_iterator@V?$_List_val@U?$_List_simple_types@U?$pair@QEAUHalfEdge@?$Diagram@N@mygal@@V?$shared_ptr@UHalfEdge@NewDiagram@Voronoi@@@std@@@std@@@std@@@std@@@std@@@std@@YAPEAV?$_List_unchecked_iterator@V?$_List_val@U?$_List_simple_types@U?$pair@QEAUHalfEdge@?$Diagram@N@mygal@@V?$shared_ptr@UHalfEdge@NewDiagram@Voronoi@@@std@@@std@@@std@@@std@@@0@AEAV10@@Z 0000000140046350 f i Main.obj
 0002:00017390       ??$addressof@V?$_List_unchecked_iterator@V?$_List_val@U?$_List_simple_types@U?$pair@QEAUVertex@?$Diagram@N@mygal@@V?$shared_ptr@UVertex@NewDiagram@Voronoi@@@std@@@std@@@std@@@std@@@std@@@std@@YAPEAV?$_List_unchecked_iterator@V?$_List_val@U?$_List_simple_types@U?$pair@QEAUVertex@?$Diagram@N@mygal@@V?$shared_ptr@UVertex@NewDiagram@Voronoi@@@std@@@std@@@std@@@std@@@0@AEAV10@@Z 0000000140046390 f i Main.obj
 0002:000173d0       ??$addressof@V?$_List_val@U?$_List_simple_types@U?$pair@QEAUFace@?$Diagram@N@mygal@@V?$shared_ptr@UFace@NewDiagram@Voronoi@@@std@@@std@@@std@@@std@@@std@@YAPEAV?$_List_val@U?$_List_simple_types@U?$pair@QEAUFace@?$Diagram@N@mygal@@V?$shared_ptr@UFace@NewDiagram@Voronoi@@@std@@@std@@@std@@@0@AEAV10@@Z 00000001400463d0 f i Main.obj
 0002:00017410       ??$addressof@V?$_List_val@U?$_List_simple_types@U?$pair@QEAUHalfEdge@?$Diagram@N@mygal@@V?$shared_ptr@UHalfEdge@NewDiagram@Voronoi@@@std@@@std@@@std@@@std@@@std@@YAPEAV?$_List_val@U?$_List_simple_types@U?$pair@QEAUHalfEdge@?$Diagram@N@mygal@@V?$shared_ptr@UHalfEdge@NewDiagram@Voronoi@@@std@@@std@@@std@@@0@AEAV10@@Z 0000000140046410 f i Main.obj
 0002:00017450       ??$addressof@V?$_List_val@U?$_List_simple_types@U?$pair@QEAUVertex@?$Diagram@N@mygal@@V?$shared_ptr@UVertex@NewDiagram@Voronoi@@@std@@@std@@@std@@@std@@@std@@YAPEAV?$_List_val@U?$_List_simple_types@U?$pair@QEAUVertex@?$Diagram@N@mygal@@V?$shared_ptr@UVertex@NewDiagram@Voronoi@@@std@@@std@@@std@@@0@AEAV10@@Z 0000000140046450 f i Main.obj
 0002:00017490       ??$addressof@V?$_List_val@U?$_List_simple_types@UHalfEdge@?$Diagram@N@mygal@@@std@@@std@@@std@@YAPEAV?$_List_val@U?$_List_simple_types@UHalfEdge@?$Diagram@N@mygal@@@std@@@0@AEAV10@@Z 0000000140046490 f i Main.obj
 0002:000174d0       ??$addressof@V?$_List_val@U?$_List_simple_types@UVertex@?$Diagram@N@mygal@@@std@@@std@@@std@@YAPEAV?$_List_val@U?$_List_simple_types@UVertex@?$Diagram@N@mygal@@@std@@@0@AEAV10@@Z 00000001400464d0 f i Main.obj
 0002:00017510       ??$addressof@V?$basic_filebuf@DU?$char_traits@D@std@@@std@@@std@@YAPEAV?$basic_filebuf@DU?$char_traits@D@std@@@0@AEAV10@@Z 0000000140046510 f i Main.obj
 0002:00017550       ??$addressof@V?$basic_ostream@DU?$char_traits@D@std@@@std@@@std@@YAPEAV?$basic_ostream@DU?$char_traits@D@std@@@0@AEAV10@@Z 0000000140046550 f i Main.obj
 0002:00017590       ??$addressof@V?$shared_ptr@UFace@NewDiagram@Voronoi@@@std@@@std@@YAPEAV?$shared_ptr@UFace@NewDiagram@Voronoi@@@0@AEAV10@@Z 0000000140046590 f i Main.obj
 0002:000175d0       ??$addressof@V?$shared_ptr@USite@NewDiagram@Voronoi@@@std@@@std@@YAPEAV?$shared_ptr@USite@NewDiagram@Voronoi@@@0@AEAV10@@Z 00000001400465d0 f i Main.obj
 0002:00017610       ??$addressof@V?$unique_ptr@V?$Event@N@mygal@@U?$default_delete@V?$Event@N@mygal@@@std@@@std@@@std@@YAPEAV?$unique_ptr@V?$Event@N@mygal@@U?$default_delete@V?$Event@N@mygal@@@std@@@0@AEAV10@@Z 0000000140046610 f i Main.obj
 0002:00017650       ??$advance@V?$_List_iterator@V?$_List_val@U?$_List_simple_types@UHalfEdge@?$Diagram@N@mygal@@@std@@@std@@@std@@_J@std@@YAXAEAV?$_List_iterator@V?$_List_val@U?$_List_simple_types@UHalfEdge@?$Diagram@N@mygal@@@std@@@std@@@0@_J@Z 0000000140046650 f i Main.obj
 0002:00017720       ??$advance@V?$_List_iterator@V?$_List_val@U?$_List_simple_types@UVertex@?$Diagram@N@mygal@@@std@@@std@@@std@@_J@std@@YAXAEAV?$_List_iterator@V?$_List_val@U?$_List_simple_types@UVertex@?$Diagram@N@mygal@@@std@@@std@@@0@_J@Z 0000000140046720 f i Main.obj
 0002:000177f0       ??$almostEqual@N@mygal@@YA_NNN@Z 00000001400467f0 f i Main.obj
 0002:000178a0       ??$almostGreater@N@mygal@@YA_NNN@Z 00000001400468a0 f i Main.obj
 0002:00017930       ??$almostLower@N@mygal@@YA_NNN@Z 0000000140046930 f i Main.obj
 0002:000179c0       ??$almostZero@N@mygal@@YA_NN@Z 00000001400469c0 f i Main.obj
 0002:00017a10       ??$construct@U?$pair@QEAUFace@?$Diagram@N@mygal@@V?$shared_ptr@UFace@NewDiagram@Voronoi@@@std@@@std@@AEBUpiecewise_construct_t@2@V?$tuple@AEBQEAUFace@?$Diagram@N@mygal@@@2@V?$tuple@$$V@2@@?$_Default_allocator_traits@V?$allocator@U?$_List_node@U?$pair@QEAUFace@?$Diagram@N@mygal@@V?$shared_ptr@UFace@NewDiagram@Voronoi@@@std@@@std@@PEAX@std@@@std@@@std@@SAXAEAV?$allocator@U?$_List_node@U?$pair@QEAUFace@?$Diagram@N@mygal@@V?$shared_ptr@UFace@NewDiagram@Voronoi@@@std@@@std@@PEAX@std@@@1@QEAU?$pair@QEAUFace@?$Diagram@N@mygal@@V?$shared_ptr@UFace@NewDiagram@Voronoi@@@std@@@1@AEBUpiecewise_construct_t@1@$$QEAV?$tuple@AEBQEAUFace@?$Diagram@N@mygal@@@1@$$QEAV?$tuple@$$V@1@@Z 0000000140046a10 f i Main.obj
 0002:00017b30       ??$construct@U?$pair@QEAUHalfEdge@?$Diagram@N@mygal@@V?$shared_ptr@UHalfEdge@NewDiagram@Voronoi@@@std@@@std@@AEBUpiecewise_construct_t@2@V?$tuple@AEBQEAUHalfEdge@?$Diagram@N@mygal@@@2@V?$tuple@$$V@2@@?$_Default_allocator_traits@V?$allocator@U?$_List_node@U?$pair@QEAUHalfEdge@?$Diagram@N@mygal@@V?$shared_ptr@UHalfEdge@NewDiagram@Voronoi@@@std@@@std@@PEAX@std@@@std@@@std@@SAXAEAV?$allocator@U?$_List_node@U?$pair@QEAUHalfEdge@?$Diagram@N@mygal@@V?$shared_ptr@UHalfEdge@NewDiagram@Voronoi@@@std@@@std@@PEAX@std@@@1@QEAU?$pair@QEAUHalfEdge@?$Diagram@N@mygal@@V?$shared_ptr@UHalfEdge@NewDiagram@Voronoi@@@std@@@1@AEBUpiecewise_construct_t@1@$$QEAV?$tuple@AEBQEAUHalfEdge@?$Diagram@N@mygal@@@1@$$QEAV?$tuple@$$V@1@@Z 0000000140046b30 f i Main.obj
 0002:00017c50       ??$construct@U?$pair@QEAUVertex@?$Diagram@N@mygal@@V?$shared_ptr@UVertex@NewDiagram@Voronoi@@@std@@@std@@AEBUpiecewise_construct_t@2@V?$tuple@AEBQEAUVertex@?$Diagram@N@mygal@@@2@V?$tuple@$$V@2@@?$_Default_allocator_traits@V?$allocator@U?$_List_node@U?$pair@QEAUVertex@?$Diagram@N@mygal@@V?$shared_ptr@UVertex@NewDiagram@Voronoi@@@std@@@std@@PEAX@std@@@std@@@std@@SAXAEAV?$allocator@U?$_List_node@U?$pair@QEAUVertex@?$Diagram@N@mygal@@V?$shared_ptr@UVertex@NewDiagram@Voronoi@@@std@@@std@@PEAX@std@@@1@QEAU?$pair@QEAUVertex@?$Diagram@N@mygal@@V?$shared_ptr@UVertex@NewDiagram@Voronoi@@@std@@@1@AEBUpiecewise_construct_t@1@$$QEAV?$tuple@AEBQEAUVertex@?$Diagram@N@mygal@@@1@$$QEAV?$tuple@$$V@1@@Z 0000000140046c50 f i Main.obj
 0002:00017d70       ??$construct@U?$pair@VPoint2D@@N@std@@AEAU12@@?$_Default_allocator_traits@V?$allocator@U?$pair@VPoint2D@@N@std@@@std@@@std@@SAXAEAV?$allocator@U?$pair@VPoint2D@@N@std@@@1@QEAU?$pair@VPoint2D@@N@1@AEAU31@@Z 0000000140046d70 f i Main.obj
 0002:00017df0       ??$construct@U?$pair@VPoint2D@@N@std@@U12@@?$_Default_allocator_traits@V?$allocator@U?$pair@VPoint2D@@N@std@@@std@@@std@@SAXAEAV?$allocator@U?$pair@VPoint2D@@N@std@@@1@QEAU?$pair@VPoint2D@@N@1@$$QEAU31@@Z 0000000140046df0 f i Main.obj
 0002:00017e70       ??$construct@UFace@?$Diagram@N@mygal@@U123@@?$_Default_allocator_traits@V?$allocator@UFace@?$Diagram@N@mygal@@@std@@@std@@SAXAEAV?$allocator@UFace@?$Diagram@N@mygal@@@1@QEAUFace@?$Diagram@N@mygal@@$$QEAU345@@Z 0000000140046e70 f i Main.obj
 0002:00017ef0       ??$construct@UHalfEdge@?$Diagram@N@mygal@@$$V@?$_Default_allocator_traits@V?$allocator@U?$_List_node@UHalfEdge@?$Diagram@N@mygal@@PEAX@std@@@std@@@std@@SAXAEAV?$allocator@U?$_List_node@UHalfEdge@?$Diagram@N@mygal@@PEAX@std@@@1@QEAUHalfEdge@?$Diagram@N@mygal@@@Z 0000000140046ef0 f i Main.obj
 0002:00017f70       ??$construct@USite@?$Diagram@N@mygal@@U123@@?$_Default_allocator_traits@V?$allocator@USite@?$Diagram@N@mygal@@@std@@@std@@SAXAEAV?$allocator@USite@?$Diagram@N@mygal@@@1@QEAUSite@?$Diagram@N@mygal@@$$QEAU345@@Z 0000000140046f70 f i Main.obj
 0002:00017ff0       ??$construct@UVertex@?$Diagram@N@mygal@@$$V@?$_Default_allocator_traits@V?$allocator@U?$_List_node@UVertex@?$Diagram@N@mygal@@PEAX@std@@@std@@@std@@SAXAEAV?$allocator@U?$_List_node@UVertex@?$Diagram@N@mygal@@PEAX@std@@@1@QEAUVertex@?$Diagram@N@mygal@@@Z 0000000140046ff0 f i Main.obj
 0002:00018070       ??$construct@V?$Vector2@N@mygal@@AEAV12@@?$_Default_allocator_traits@V?$allocator@V?$Vector2@N@mygal@@@std@@@std@@SAXAEAV?$allocator@V?$Vector2@N@mygal@@@1@QEAV?$Vector2@N@mygal@@AEAV34@@Z 0000000140047070 f i Main.obj
 0002:000180f0       ??$construct@V?$Vector2@N@mygal@@V12@@?$_Default_allocator_traits@V?$allocator@V?$Vector2@N@mygal@@@std@@@std@@SAXAEAV?$allocator@V?$Vector2@N@mygal@@@1@QEAV?$Vector2@N@mygal@@$$QEAV34@@Z 00000001400470f0 f i Main.obj
 0002:00018170       ??$construct@V?$shared_ptr@UFace@NewDiagram@Voronoi@@@std@@V12@@?$_Default_allocator_traits@V?$allocator@U?$_List_node@V?$shared_ptr@UFace@NewDiagram@Voronoi@@@std@@PEAX@std@@@std@@@std@@SAXAEAV?$allocator@U?$_List_node@V?$shared_ptr@UFace@NewDiagram@Voronoi@@@std@@PEAX@std@@@1@QEAV?$shared_ptr@UFace@NewDiagram@Voronoi@@@1@$$QEAV31@@Z 0000000140047170 f i Main.obj
 0002:000181f0       ??$construct@V?$shared_ptr@USite@NewDiagram@Voronoi@@@std@@$$V@?$_Default_allocator_traits@V?$allocator@V?$shared_ptr@USite@NewDiagram@Voronoi@@@std@@@std@@@std@@SAXAEAV?$allocator@V?$shared_ptr@USite@NewDiagram@Voronoi@@@std@@@1@QEAV?$shared_ptr@USite@NewDiagram@Voronoi@@@1@@Z 00000001400471f0 f i Main.obj
 0002:00018270       ??$construct@V?$shared_ptr@USite@NewDiagram@Voronoi@@@std@@AEAV12@@?$_Default_allocator_traits@V?$allocator@V?$shared_ptr@USite@NewDiagram@Voronoi@@@std@@@std@@@std@@SAXAEAV?$allocator@V?$shared_ptr@USite@NewDiagram@Voronoi@@@std@@@1@QEAV?$shared_ptr@USite@NewDiagram@Voronoi@@@1@AEAV31@@Z 0000000140047270 f i Main.obj
 0002:000182f0       ??$construct@V?$shared_ptr@USite@NewDiagram@Voronoi@@@std@@AEBV12@@?$_Default_allocator_traits@V?$allocator@V?$shared_ptr@USite@NewDiagram@Voronoi@@@std@@@std@@@std@@SAXAEAV?$allocator@V?$shared_ptr@USite@NewDiagram@Voronoi@@@std@@@1@QEAV?$shared_ptr@USite@NewDiagram@Voronoi@@@1@AEBV31@@Z 00000001400472f0 f i Main.obj
 0002:00018370       ??$construct@V?$shared_ptr@USite@NewDiagram@Voronoi@@@std@@V12@@?$_Default_allocator_traits@V?$allocator@V?$shared_ptr@USite@NewDiagram@Voronoi@@@std@@@std@@@std@@SAXAEAV?$allocator@V?$shared_ptr@USite@NewDiagram@Voronoi@@@std@@@1@QEAV?$shared_ptr@USite@NewDiagram@Voronoi@@@1@$$QEAV31@@Z 0000000140047370 f i Main.obj
 0002:000183f0       ??$construct@V?$unique_ptr@V?$Event@N@mygal@@U?$default_delete@V?$Event@N@mygal@@@std@@@std@@V12@@?$_Default_allocator_traits@V?$allocator@V?$unique_ptr@V?$Event@N@mygal@@U?$default_delete@V?$Event@N@mygal@@@std@@@std@@@std@@@std@@SAXAEAV?$allocator@V?$unique_ptr@V?$Event@N@mygal@@U?$default_delete@V?$Event@N@mygal@@@std@@@std@@@1@QEAV?$unique_ptr@V?$Event@N@mygal@@U?$default_delete@V?$Event@N@mygal@@@std@@@1@$$QEAV31@@Z 00000001400473f0 f i Main.obj
 0002:00018470       ??$construct@VCircleShape@sf@@AEAV12@@?$_Default_allocator_traits@V?$allocator@VCircleShape@sf@@@std@@@std@@SAXAEAV?$allocator@VCircleShape@sf@@@1@QEAVCircleShape@sf@@AEAV34@@Z 0000000140047470 f i Main.obj
 0002:00018520       ??$construct@VCircleShape@sf@@AEBV12@@?$_Default_allocator_traits@V?$allocator@VCircleShape@sf@@@std@@@std@@SAXAEAV?$allocator@VCircleShape@sf@@@1@QEAVCircleShape@sf@@AEBV34@@Z 0000000140047520 f i Main.obj
 0002:000185d0       ??$construct@VCircleShape@sf@@V12@@?$_Default_allocator_traits@V?$allocator@VCircleShape@sf@@@std@@@std@@SAXAEAV?$allocator@VCircleShape@sf@@@1@QEAVCircleShape@sf@@$$QEAV34@@Z 00000001400475d0 f i Main.obj
 0002:00018680       ??$destroy@U?$pair@QEAUFace@?$Diagram@N@mygal@@V?$shared_ptr@UFace@NewDiagram@Voronoi@@@std@@@std@@@?$_Default_allocator_traits@V?$allocator@U?$_List_node@U?$pair@QEAUFace@?$Diagram@N@mygal@@V?$shared_ptr@UFace@NewDiagram@Voronoi@@@std@@@std@@PEAX@std@@@std@@@std@@SAXAEAV?$allocator@U?$_List_node@U?$pair@QEAUFace@?$Diagram@N@mygal@@V?$shared_ptr@UFace@NewDiagram@Voronoi@@@std@@@std@@PEAX@std@@@1@QEAU?$pair@QEAUFace@?$Diagram@N@mygal@@V?$shared_ptr@UFace@NewDiagram@Voronoi@@@std@@@1@@Z 0000000140047680 f i Main.obj
 0002:000186d0       ??$destroy@U?$pair@QEAUHalfEdge@?$Diagram@N@mygal@@V?$shared_ptr@UHalfEdge@NewDiagram@Voronoi@@@std@@@std@@@?$_Default_allocator_traits@V?$allocator@U?$_List_node@U?$pair@QEAUHalfEdge@?$Diagram@N@mygal@@V?$shared_ptr@UHalfEdge@NewDiagram@Voronoi@@@std@@@std@@PEAX@std@@@std@@@std@@SAXAEAV?$allocator@U?$_List_node@U?$pair@QEAUHalfEdge@?$Diagram@N@mygal@@V?$shared_ptr@UHalfEdge@NewDiagram@Voronoi@@@std@@@std@@PEAX@std@@@1@QEAU?$pair@QEAUHalfEdge@?$Diagram@N@mygal@@V?$shared_ptr@UHalfEdge@NewDiagram@Voronoi@@@std@@@1@@Z 00000001400476d0 f i Main.obj
 0002:00018720       ??$destroy@U?$pair@QEAUVertex@?$Diagram@N@mygal@@V?$shared_ptr@UVertex@NewDiagram@Voronoi@@@std@@@std@@@?$_Default_allocator_traits@V?$allocator@U?$_List_node@U?$pair@QEAUVertex@?$Diagram@N@mygal@@V?$shared_ptr@UVertex@NewDiagram@Voronoi@@@std@@@std@@PEAX@std@@@std@@@std@@SAXAEAV?$allocator@U?$_List_node@U?$pair@QEAUVertex@?$Diagram@N@mygal@@V?$shared_ptr@UVertex@NewDiagram@Voronoi@@@std@@@std@@PEAX@std@@@1@QEAU?$pair@QEAUVertex@?$Diagram@N@mygal@@V?$shared_ptr@UVertex@NewDiagram@Voronoi@@@std@@@1@@Z 0000000140047720 f i Main.obj
 0002:00018770       ??$destroy@UHalfEdge@?$Diagram@N@mygal@@@?$_Default_allocator_traits@V?$allocator@U?$_List_node@UHalfEdge@?$Diagram@N@mygal@@PEAX@std@@@std@@@std@@SAXAEAV?$allocator@U?$_List_node@UHalfEdge@?$Diagram@N@mygal@@PEAX@std@@@1@QEAUHalfEdge@?$Diagram@N@mygal@@@Z 0000000140047770 f i Main.obj
 0002:000187c0       ??$destroy@UVertex@?$Diagram@N@mygal@@@?$_Default_allocator_traits@V?$allocator@U?$_List_node@UVertex@?$Diagram@N@mygal@@PEAX@std@@@std@@@std@@SAXAEAV?$allocator@U?$_List_node@UVertex@?$Diagram@N@mygal@@PEAX@std@@@1@QEAUVertex@?$Diagram@N@mygal@@@Z 00000001400477c0 f i Main.obj
 0002:00018810       ??$destroy@V?$shared_ptr@UFace@NewDiagram@Voronoi@@@std@@@?$_Default_allocator_traits@V?$allocator@U?$_List_node@V?$shared_ptr@UFace@NewDiagram@Voronoi@@@std@@PEAX@std@@@std@@@std@@SAXAEAV?$allocator@U?$_List_node@V?$shared_ptr@UFace@NewDiagram@Voronoi@@@std@@PEAX@std@@@1@QEAV?$shared_ptr@UFace@NewDiagram@Voronoi@@@1@@Z 0000000140047810 f i Main.obj
 0002:00018860       ??$destroy@V?$shared_ptr@USite@NewDiagram@Voronoi@@@std@@@?$_Default_allocator_traits@V?$allocator@V?$shared_ptr@USite@NewDiagram@Voronoi@@@std@@@std@@@std@@SAXAEAV?$allocator@V?$shared_ptr@USite@NewDiagram@Voronoi@@@std@@@1@QEAV?$shared_ptr@USite@NewDiagram@Voronoi@@@1@@Z 0000000140047860 f i Main.obj
 0002:000188b0       ??$destroy@V?$unique_ptr@V?$Event@N@mygal@@U?$default_delete@V?$Event@N@mygal@@@std@@@std@@@?$_Default_allocator_traits@V?$allocator@V?$unique_ptr@V?$Event@N@mygal@@U?$default_delete@V?$Event@N@mygal@@@std@@@std@@@std@@@std@@SAXAEAV?$allocator@V?$unique_ptr@V?$Event@N@mygal@@U?$default_delete@V?$Event@N@mygal@@@std@@@std@@@1@QEAV?$unique_ptr@V?$Event@N@mygal@@U?$default_delete@V?$Event@N@mygal@@@std@@@1@@Z 00000001400478b0 f i Main.obj
 0002:00018900       ??$destroy@VCircleShape@sf@@@?$_Default_allocator_traits@V?$allocator@VCircleShape@sf@@@std@@@std@@SAXAEAV?$allocator@VCircleShape@sf@@@1@QEAVCircleShape@sf@@@Z 0000000140047900 f i Main.obj
 0002:00018970       ??$emplace_back@$$V@?$list@UHalfEdge@?$Diagram@N@mygal@@V?$allocator@UHalfEdge@?$Diagram@N@mygal@@@std@@@std@@QEAA?A_TXZ 0000000140047970 f i Main.obj
 0002:000189d0       ??$emplace_back@$$V@?$list@UVertex@?$Diagram@N@mygal@@V?$allocator@UVertex@?$Diagram@N@mygal@@@std@@@std@@QEAA?A_TXZ 00000001400479d0 f i Main.obj
 0002:00018a30       ??$emplace_back@V?$shared_ptr@UFace@NewDiagram@Voronoi@@@std@@@?$list@V?$shared_ptr@UFace@NewDiagram@Voronoi@@@std@@V?$allocator@V?$shared_ptr@UFace@NewDiagram@Voronoi@@@std@@@2@@std@@QEAA?A_T$$QEAV?$shared_ptr@UFace@NewDiagram@Voronoi@@@1@@Z 0000000140047a30 f i Main.obj
 0002:00018aa0       ??$emplace_back@V?$unique_ptr@V?$Event@N@mygal@@U?$default_delete@V?$Event@N@mygal@@@std@@@std@@@?$vector@V?$unique_ptr@V?$Event@N@mygal@@U?$default_delete@V?$Event@N@mygal@@@std@@@std@@V?$allocator@V?$unique_ptr@V?$Event@N@mygal@@U?$default_delete@V?$Event@N@mygal@@@std@@@std@@@2@@std@@QEAA?A_T$$QEAV?$unique_ptr@V?$Event@N@mygal@@U?$default_delete@V?$Event@N@mygal@@@std@@@1@@Z 0000000140047aa0 f i Main.obj
 0002:00018b00       ??$endl@DU?$char_traits@D@std@@@std@@YAAEAV?$basic_ostream@DU?$char_traits@D@std@@@0@AEAV10@@Z 0000000140047b00 f i Main.obj
 0002:00018bb0       ??$exchange@PEAU?$_List_node@U?$pair@QEAUFace@?$Diagram@N@mygal@@V?$shared_ptr@UFace@NewDiagram@Voronoi@@@std@@@std@@PEAX@std@@$$T@std@@YAPEAU?$_List_node@U?$pair@QEAUFace@?$Diagram@N@mygal@@V?$shared_ptr@UFace@NewDiagram@Voronoi@@@std@@@std@@PEAX@0@AEAPEAU10@$$QEA$$T@Z 0000000140047bb0 f i Main.obj
 0002:00018c20       ??$exchange@PEAU?$_List_node@U?$pair@QEAUHalfEdge@?$Diagram@N@mygal@@V?$shared_ptr@UHalfEdge@NewDiagram@Voronoi@@@std@@@std@@PEAX@std@@$$T@std@@YAPEAU?$_List_node@U?$pair@QEAUHalfEdge@?$Diagram@N@mygal@@V?$shared_ptr@UHalfEdge@NewDiagram@Voronoi@@@std@@@std@@PEAX@0@AEAPEAU10@$$QEA$$T@Z 0000000140047c20 f i Main.obj
 0002:00018c90       ??$exchange@PEAU?$_List_node@U?$pair@QEAUVertex@?$Diagram@N@mygal@@V?$shared_ptr@UVertex@NewDiagram@Voronoi@@@std@@@std@@PEAX@std@@$$T@std@@YAPEAU?$_List_node@U?$pair@QEAUVertex@?$Diagram@N@mygal@@V?$shared_ptr@UVertex@NewDiagram@Voronoi@@@std@@@std@@PEAX@0@AEAPEAU10@$$QEA$$T@Z 0000000140047c90 f i Main.obj
 0002:00018d00       ??$exchange@PEAUFace@?$Diagram@N@mygal@@$$T@std@@YAPEAUFace@?$Diagram@N@mygal@@AEAPEAU123@$$QEA$$T@Z 0000000140047d00 f i Main.obj
 0002:00018d70       ??$exchange@PEAUSite@?$Diagram@N@mygal@@$$T@std@@YAPEAUSite@?$Diagram@N@mygal@@AEAPEAU123@$$QEA$$T@Z 0000000140047d70 f i Main.obj
 0002:00018de0       ??$exchange@PEAU_Container_proxy@std@@$$T@std@@YAPEAU_Container_proxy@0@AEAPEAU10@$$QEA$$T@Z 0000000140047de0 f i Main.obj
 0002:00018e50       ??$exchange@PEAU_Iterator_base12@std@@$$T@std@@YAPEAU_Iterator_base12@0@AEAPEAU10@$$QEA$$T@Z 0000000140047e50 f i Main.obj
 0002:00018ec0       ??$exchange@PEAV?$Event@N@mygal@@$$T@std@@YAPEAV?$Event@N@mygal@@AEAPEAV12@$$QEA$$T@Z 0000000140047ec0 f i Main.obj
 0002:00018f30       ??$exchange@PEAV_Facet_base@std@@$$T@std@@YAPEAV_Facet_base@0@AEAPEAV10@$$QEA$$T@Z 0000000140047f30 f i Main.obj
 0002:00018fa0       ??$fill@PEAV?$_List_unchecked_iterator@V?$_List_val@U?$_List_simple_types@U?$pair@QEAUFace@?$Diagram@N@mygal@@V?$shared_ptr@UFace@NewDiagram@Voronoi@@@std@@@std@@@std@@@std@@@std@@V12@@std@@YAXQEAV?$_List_unchecked_iterator@V?$_List_val@U?$_List_simple_types@U?$pair@QEAUFace@?$Diagram@N@mygal@@V?$shared_ptr@UFace@NewDiagram@Voronoi@@@std@@@std@@@std@@@std@@@0@0AEBV10@@Z 0000000140047fa0 f i Main.obj
 0002:00019060       ??$fill@PEAV?$_List_unchecked_iterator@V?$_List_val@U?$_List_simple_types@U?$pair@QEAUHalfEdge@?$Diagram@N@mygal@@V?$shared_ptr@UHalfEdge@NewDiagram@Voronoi@@@std@@@std@@@std@@@std@@@std@@V12@@std@@YAXQEAV?$_List_unchecked_iterator@V?$_List_val@U?$_List_simple_types@U?$pair@QEAUHalfEdge@?$Diagram@N@mygal@@V?$shared_ptr@UHalfEdge@NewDiagram@Voronoi@@@std@@@std@@@std@@@std@@@0@0AEBV10@@Z 0000000140048060 f i Main.obj
 0002:00019120       ??$fill@PEAV?$_List_unchecked_iterator@V?$_List_val@U?$_List_simple_types@U?$pair@QEAUVertex@?$Diagram@N@mygal@@V?$shared_ptr@UVertex@NewDiagram@Voronoi@@@std@@@std@@@std@@@std@@@std@@V12@@std@@YAXQEAV?$_List_unchecked_iterator@V?$_List_val@U?$_List_simple_types@U?$pair@QEAUVertex@?$Diagram@N@mygal@@V?$shared_ptr@UVertex@NewDiagram@Voronoi@@@std@@@std@@@std@@@std@@@0@0AEBV10@@Z 0000000140048120 f i Main.obj
 0002:000191e0       ??$find@X@?$_Hash@V?$_Umap_traits@PEAUFace@?$Diagram@N@mygal@@V?$shared_ptr@UFace@NewDiagram@Voronoi@@@std@@V?$_Uhash_compare@PEAUFace@?$Diagram@N@mygal@@U?$hash@PEAUFace@?$Diagram@N@mygal@@@std@@U?$equal_to@PEAUFace@?$Diagram@N@mygal@@@5@@5@V?$allocator@U?$pair@QEAUFace@?$Diagram@N@mygal@@V?$shared_ptr@UFace@NewDiagram@Voronoi@@@std@@@std@@@5@$0A@@std@@@std@@QEAA?AV?$_List_iterator@V?$_List_val@U?$_List_simple_types@U?$pair@QEAUFace@?$Diagram@N@mygal@@V?$shared_ptr@UFace@NewDiagram@Voronoi@@@std@@@std@@@std@@@std@@@1@AEBQEAUFace@?$Diagram@N@mygal@@@Z 00000001400481e0 f i Main.obj
 0002:000192c0       ??$find@X@?$_Hash@V?$_Umap_traits@PEAUHalfEdge@?$Diagram@N@mygal@@V?$shared_ptr@UHalfEdge@NewDiagram@Voronoi@@@std@@V?$_Uhash_compare@PEAUHalfEdge@?$Diagram@N@mygal@@U?$hash@PEAUHalfEdge@?$Diagram@N@mygal@@@std@@U?$equal_to@PEAUHalfEdge@?$Diagram@N@mygal@@@5@@5@V?$allocator@U?$pair@QEAUHalfEdge@?$Diagram@N@mygal@@V?$shared_ptr@UHalfEdge@NewDiagram@Voronoi@@@std@@@std@@@5@$0A@@std@@@std@@QEAA?AV?$_List_iterator@V?$_List_val@U?$_List_simple_types@U?$pair@QEAUHalfEdge@?$Diagram@N@mygal@@V?$shared_ptr@UHalfEdge@NewDiagram@Voronoi@@@std@@@std@@@std@@@std@@@1@AEBQEAUHalfEdge@?$Diagram@N@mygal@@@Z 00000001400482c0 f i Main.obj
 0002:000193a0       ??$find@X@?$_Hash@V?$_Umap_traits@PEAUVertex@?$Diagram@N@mygal@@V?$shared_ptr@UVertex@NewDiagram@Voronoi@@@std@@V?$_Uhash_compare@PEAUVertex@?$Diagram@N@mygal@@U?$hash@PEAUVertex@?$Diagram@N@mygal@@@std@@U?$equal_to@PEAUVertex@?$Diagram@N@mygal@@@5@@5@V?$allocator@U?$pair@QEAUVertex@?$Diagram@N@mygal@@V?$shared_ptr@UVertex@NewDiagram@Voronoi@@@std@@@std@@@5@$0A@@std@@@std@@QEAA?AV?$_List_iterator@V?$_List_val@U?$_List_simple_types@U?$pair@QEAUVertex@?$Diagram@N@mygal@@V?$shared_ptr@UVertex@NewDiagram@Voronoi@@@std@@@std@@@std@@@std@@@1@AEBQEAUVertex@?$Diagram@N@mygal@@@Z 00000001400483a0 f i Main.obj
 0002:00019480       ??$forward_as_tuple@$$V@std@@YA?AV?$tuple@$$V@0@XZ 0000000140048480 f i Main.obj
 0002:000194c0       ??$forward_as_tuple@AEBQEAUFace@?$Diagram@N@mygal@@@std@@YA?AV?$tuple@AEBQEAUFace@?$Diagram@N@mygal@@@0@AEBQEAUFace@?$Diagram@N@mygal@@@Z 00000001400484c0 f i Main.obj
 0002:00019520       ??$forward_as_tuple@AEBQEAUHalfEdge@?$Diagram@N@mygal@@@std@@YA?AV?$tuple@AEBQEAUHalfEdge@?$Diagram@N@mygal@@@0@AEBQEAUHalfEdge@?$Diagram@N@mygal@@@Z 0000000140048520 f i Main.obj
 0002:00019580       ??$forward_as_tuple@AEBQEAUVertex@?$Diagram@N@mygal@@@std@@YA?AV?$tuple@AEBQEAUVertex@?$Diagram@N@mygal@@@0@AEBQEAUVertex@?$Diagram@N@mygal@@@Z 0000000140048580 f i Main.obj
 0002:000195e0       ??$make_pair@VPoint2D@@AEAN@std@@YA?AU?$pair@VPoint2D@@N@0@$$QEAVPoint2D@@AEAN@Z 00000001400485e0 f i Main.obj
 0002:00019650       ??$make_shared@UFace@NewDiagram@Voronoi@@$$V@std@@YA?AV?$shared_ptr@UFace@NewDiagram@Voronoi@@@0@XZ 0000000140048650 f i Main.obj
 0002:000197b0       ??$make_shared@UHalfEdge@NewDiagram@Voronoi@@$$V@std@@YA?AV?$shared_ptr@UHalfEdge@NewDiagram@Voronoi@@@0@XZ 00000001400487b0 f i Main.obj
 0002:00019910       ??$make_shared@USite@NewDiagram@Voronoi@@AEA_KAEBVPoint2D@@AEBN@std@@YA?AV?$shared_ptr@USite@NewDiagram@Voronoi@@@0@AEA_KAEBVPoint2D@@AEBN@Z 0000000140048910 f i Main.obj
 0002:00019aa0       ??$make_shared@UVertex@NewDiagram@Voronoi@@$$V@std@@YA?AV?$shared_ptr@UVertex@NewDiagram@Voronoi@@@0@XZ 0000000140048aa0 f i Main.obj
 0002:00019c00       ??$make_unique@V?$Event@N@mygal@@AEANAEAV?$Vector2@N@2@AEAPEAU?$Arc@N@2@$0A@@std@@YA?AV?$unique_ptr@V?$Event@N@mygal@@U?$default_delete@V?$Event@N@mygal@@@std@@@0@AEANAEAV?$Vector2@N@mygal@@AEAPEAU?$Arc@N@3@@Z 0000000140048c00 f i Main.obj
 0002:00019d40       ??$make_unique@V?$Event@N@mygal@@PEAUSite@?$Diagram@N@2@$0A@@std@@YA?AV?$unique_ptr@V?$Event@N@mygal@@U?$default_delete@V?$Event@N@mygal@@@std@@@0@$$QEAPEAUSite@?$Diagram@N@mygal@@@Z 0000000140048d40 f i Main.obj
 0002:00019e40       ??$max@_K@std@@YAAEB_KAEB_K0@Z 0000000140048e40 f i Main.obj
 0002:00019ee0       ??$min@_K@std@@YAAEB_KAEB_K0@Z 0000000140048ee0 f i Main.obj
 0002:00019f80       ??$prev@V?$_List_iterator@V?$_List_val@U?$_List_simple_types@UHalfEdge@?$Diagram@N@mygal@@@std@@@std@@@std@@@std@@YA?AV?$_List_iterator@V?$_List_val@U?$_List_simple_types@UHalfEdge@?$Diagram@N@mygal@@@std@@@std@@@0@V10@_J@Z 0000000140048f80 f i Main.obj
 0002:0001a040       ??$prev@V?$_List_iterator@V?$_List_val@U?$_List_simple_types@UVertex@?$Diagram@N@mygal@@@std@@@std@@@std@@@std@@YA?AV?$_List_iterator@V?$_List_val@U?$_List_simple_types@UVertex@?$Diagram@N@mygal@@@std@@@std@@@0@V10@_J@Z 0000000140049040 f i Main.obj
 0002:0001a100       ??$swap@PEAU?$_List_node@UHalfEdge@?$Diagram@N@mygal@@PEAX@std@@$0A@@std@@YAXAEAPEAU?$_List_node@UHalfEdge@?$Diagram@N@mygal@@PEAX@0@0@Z 0000000140049100 f i Main.obj
 0002:0001a180       ??$swap@PEAU?$_List_node@UVertex@?$Diagram@N@mygal@@PEAX@std@@$0A@@std@@YAXAEAPEAU?$_List_node@UVertex@?$Diagram@N@mygal@@PEAX@0@0@Z 0000000140049180 f i Main.obj
 0002:0001a200       ??$swap@PEAUFace@NewDiagram@Voronoi@@$0A@@std@@YAXAEAPEAUFace@NewDiagram@Voronoi@@0@Z 0000000140049200 f i Main.obj
 0002:0001a280       ??$swap@PEAUHalfEdge@NewDiagram@Voronoi@@$0A@@std@@YAXAEAPEAUHalfEdge@NewDiagram@Voronoi@@0@Z 0000000140049280 f i Main.obj
 0002:0001a300       ??$swap@PEAUSite@NewDiagram@Voronoi@@$0A@@std@@YAXAEAPEAUSite@NewDiagram@Voronoi@@0@Z 0000000140049300 f i Main.obj
 0002:0001a380       ??$swap@PEAUVertex@NewDiagram@Voronoi@@$0A@@std@@YAXAEAPEAUVertex@NewDiagram@Voronoi@@0@Z 0000000140049380 f i Main.obj
 0002:0001a400       ??$swap@PEAV?$Event@N@mygal@@$0A@@std@@YAXAEAPEAV?$Event@N@mygal@@0@Z 0000000140049400 f i Main.obj
 0002:0001a480       ??$swap@PEAV_Ref_count_base@std@@$0A@@std@@YAXAEAPEAV_Ref_count_base@0@0@Z 0000000140049480 f i Main.obj
 0002:0001a500       ??$swap@U?$default_delete@V?$Event@N@mygal@@@std@@$0A@@std@@YAXAEAU?$default_delete@V?$Event@N@mygal@@@0@0@Z 0000000140049500 f i Main.obj
 0002:0001a570       ??$swap@V?$Event@N@mygal@@U?$default_delete@V?$Event@N@mygal@@@std@@$0A@@std@@YAXAEAV?$unique_ptr@V?$Event@N@mygal@@U?$default_delete@V?$Event@N@mygal@@@std@@@0@0@Z 0000000140049570 f i Main.obj
 0002:0001a5d0       ??$swap@_K$0A@@std@@YAXAEA_K0@Z 00000001400495d0 f i Main.obj
 0002:0001a650       ??$uninitialized_fill@PEAV?$_List_unchecked_iterator@V?$_List_val@U?$_List_simple_types@U?$pair@QEAUFace@?$Diagram@N@mygal@@V?$shared_ptr@UFace@NewDiagram@Voronoi@@@std@@@std@@@std@@@std@@@std@@V12@@std@@YAXQEAV?$_List_unchecked_iterator@V?$_List_val@U?$_List_simple_types@U?$pair@QEAUFace@?$Diagram@N@mygal@@V?$shared_ptr@UFace@NewDiagram@Voronoi@@@std@@@std@@@std@@@std@@@0@0AEBV10@@Z 0000000140049650 f i Main.obj
 0002:0001a780       ??$uninitialized_fill@PEAV?$_List_unchecked_iterator@V?$_List_val@U?$_List_simple_types@U?$pair@QEAUHalfEdge@?$Diagram@N@mygal@@V?$shared_ptr@UHalfEdge@NewDiagram@Voronoi@@@std@@@std@@@std@@@std@@@std@@V12@@std@@YAXQEAV?$_List_unchecked_iterator@V?$_List_val@U?$_List_simple_types@U?$pair@QEAUHalfEdge@?$Diagram@N@mygal@@V?$shared_ptr@UHalfEdge@NewDiagram@Voronoi@@@std@@@std@@@std@@@std@@@0@0AEBV10@@Z 0000000140049780 f i Main.obj
 0002:0001a8b0       ??$uninitialized_fill@PEAV?$_List_unchecked_iterator@V?$_List_val@U?$_List_simple_types@U?$pair@QEAUVertex@?$Diagram@N@mygal@@V?$shared_ptr@UVertex@NewDiagram@Voronoi@@@std@@@std@@@std@@@std@@@std@@V12@@std@@YAXQEAV?$_List_unchecked_iterator@V?$_List_val@U?$_List_simple_types@U?$pair@QEAUVertex@?$Diagram@N@mygal@@V?$shared_ptr@UVertex@NewDiagram@Voronoi@@@std@@@std@@@std@@@std@@@0@0AEBV10@@Z 00000001400498b0 f i Main.obj
 0002:0001a9e0       ??$use_facet@V?$codecvt@DDU_Mbstatet@@@std@@@std@@YAAEBV?$codecvt@DDU_Mbstatet@@@0@AEBVlocale@0@@Z 00000001400499e0 f i Main.obj
 0002:0001abe0       ??0?$Beachline@N@mygal@@QEAA@XZ 0000000140049be0 f i Main.obj
 0002:0001ac80       ??0?$Diagram@N@mygal@@AEAA@AEBV?$vector@V?$Vector2@N@mygal@@V?$allocator@V?$Vector2@N@mygal@@@std@@@std@@@Z 0000000140049c80 f i Main.obj
 0002:0001aee0       ??0?$Diagram@N@mygal@@QEAA@$$QEAV01@@Z 0000000140049ee0 f i Main.obj
 0002:0001b000       ??0?$Event@N@mygal@@QEAA@NV?$Vector2@N@1@PEAU?$Arc@N@1@@Z 000000014004a000 f i Main.obj
 0002:0001b0f0       ??0?$Event@N@mygal@@QEAA@PEAUSite@?$Diagram@N@1@@Z 000000014004a0f0 f i Main.obj
 0002:0001b1e0       ??0?$FortuneAlgorithm@N@mygal@@QEAA@V?$vector@V?$Vector2@N@mygal@@V?$allocator@V?$Vector2@N@mygal@@@std@@@std@@@Z 000000014004a1e0 f i Main.obj
 0002:0001b2a0       ??0?$PriorityQueue@V?$Event@N@mygal@@@mygal@@QEAA@XZ 000000014004a2a0 f i Main.obj
 0002:0001b300       ??0?$Vector2@M@sf@@QEAA@MM@Z 000000014004a300 f i Main.obj
 0002:0001b380       ??0?$Vector2@N@mygal@@QEAA@NN@Z 000000014004a380 f i Main.obj
 0002:0001b400       ??0?$_Alloc_construct_ptr@V?$allocator@U?$_List_node@U?$pair@QEAUFace@?$Diagram@N@mygal@@V?$shared_ptr@UFace@NewDiagram@Voronoi@@@std@@@std@@PEAX@std@@@std@@@std@@QEAA@AEAV?$allocator@U?$_List_node@U?$pair@QEAUFace@?$Diagram@N@mygal@@V?$shared_ptr@UFace@NewDiagram@Voronoi@@@std@@@std@@PEAX@std@@@1@@Z 000000014004a400 f i Main.obj
 0002:0001b470       ??0?$_Alloc_construct_ptr@V?$allocator@U?$_List_node@U?$pair@QEAUHalfEdge@?$Diagram@N@mygal@@V?$shared_ptr@UHalfEdge@NewDiagram@Voronoi@@@std@@@std@@PEAX@std@@@std@@@std@@QEAA@AEAV?$allocator@U?$_List_node@U?$pair@QEAUHalfEdge@?$Diagram@N@mygal@@V?$shared_ptr@UHalfEdge@NewDiagram@Voronoi@@@std@@@std@@PEAX@std@@@1@@Z 000000014004a470 f i Main.obj
 0002:0001b4e0       ??0?$_Alloc_construct_ptr@V?$allocator@U?$_List_node@U?$pair@QEAUVertex@?$Diagram@N@mygal@@V?$shared_ptr@UVertex@NewDiagram@Voronoi@@@std@@@std@@PEAX@std@@@std@@@std@@QEAA@AEAV?$allocator@U?$_List_node@U?$pair@QEAUVertex@?$Diagram@N@mygal@@V?$shared_ptr@UVertex@NewDiagram@Voronoi@@@std@@@std@@PEAX@std@@@1@@Z 000000014004a4e0 f i Main.obj
 0002:0001b550       ??0?$_Alloc_construct_ptr@V?$allocator@U?$_List_node@UHalfEdge@?$Diagram@N@mygal@@PEAX@std@@@std@@@std@@QEAA@AEAV?$allocator@U?$_List_node@UHalfEdge@?$Diagram@N@mygal@@PEAX@std@@@1@@Z 000000014004a550 f i Main.obj
 0002:0001b5c0       ??0?$_Alloc_construct_ptr@V?$allocator@U?$_List_node@UVertex@?$Diagram@N@mygal@@PEAX@std@@@std@@@std@@QEAA@AEAV?$allocator@U?$_List_node@UVertex@?$Diagram@N@mygal@@PEAX@std@@@1@@Z 000000014004a5c0 f i Main.obj
 0002:0001b630       ??0?$_Alloc_construct_ptr@V?$allocator@U?$_List_node@V?$shared_ptr@UFace@NewDiagram@Voronoi@@@std@@PEAX@std@@@std@@@std@@QEAA@AEAV?$allocator@U?$_List_node@V?$shared_ptr@UFace@NewDiagram@Voronoi@@@std@@PEAX@std@@@1@@Z 000000014004a630 f i Main.obj
 0002:0001b6a0       ??0?$_Container_proxy_ptr12@V?$allocator@U_Container_proxy@std@@@std@@@std@@QEAA@AEAV?$allocator@U_Container_proxy@std@@@1@AEAU_Container_base12@1@@Z 000000014004a6a0 f i Main.obj
 0002:0001b790       ??0?$_Hash@V?$_Umap_traits@PEAUFace@?$Diagram@N@mygal@@V?$shared_ptr@UFace@NewDiagram@Voronoi@@@std@@V?$_Uhash_compare@PEAUFace@?$Diagram@N@mygal@@U?$hash@PEAUFace@?$Diagram@N@mygal@@@std@@U?$equal_to@PEAUFace@?$Diagram@N@mygal@@@5@@5@V?$allocator@U?$pair@QEAUFace@?$Diagram@N@mygal@@V?$shared_ptr@UFace@NewDiagram@Voronoi@@@std@@@std@@@5@$0A@@std@@@std@@IEAA@AEBV?$_Uhash_compare@PEAUFace@?$Diagram@N@mygal@@U?$hash@PEAUFace@?$Diagram@N@mygal@@@std@@U?$equal_to@PEAUFace@?$Diagram@N@mygal@@@5@@1@AEBV?$allocator@U?$pair@QEAUFace@?$Diagram@N@mygal@@V?$shared_ptr@UFace@NewDiagram@Voronoi@@@std@@@std@@@1@@Z 000000014004a790 f i Main.obj
 0002:0001b910       ??0?$_Hash@V?$_Umap_traits@PEAUHalfEdge@?$Diagram@N@mygal@@V?$shared_ptr@UHalfEdge@NewDiagram@Voronoi@@@std@@V?$_Uhash_compare@PEAUHalfEdge@?$Diagram@N@mygal@@U?$hash@PEAUHalfEdge@?$Diagram@N@mygal@@@std@@U?$equal_to@PEAUHalfEdge@?$Diagram@N@mygal@@@5@@5@V?$allocator@U?$pair@QEAUHalfEdge@?$Diagram@N@mygal@@V?$shared_ptr@UHalfEdge@NewDiagram@Voronoi@@@std@@@std@@@5@$0A@@std@@@std@@IEAA@AEBV?$_Uhash_compare@PEAUHalfEdge@?$Diagram@N@mygal@@U?$hash@PEAUHalfEdge@?$Diagram@N@mygal@@@std@@U?$equal_to@PEAUHalfEdge@?$Diagram@N@mygal@@@5@@1@AEBV?$allocator@U?$pair@QEAUHalfEdge@?$Diagram@N@mygal@@V?$shared_ptr@UHalfEdge@NewDiagram@Voronoi@@@std@@@std@@@1@@Z 000000014004a910 f i Main.obj
 0002:0001ba90       ??0?$_Hash@V?$_Umap_traits@PEAUVertex@?$Diagram@N@mygal@@V?$shared_ptr@UVertex@NewDiagram@Voronoi@@@std@@V?$_Uhash_compare@PEAUVertex@?$Diagram@N@mygal@@U?$hash@PEAUVertex@?$Diagram@N@mygal@@@std@@U?$equal_to@PEAUVertex@?$Diagram@N@mygal@@@5@@5@V?$allocator@U?$pair@QEAUVertex@?$Diagram@N@mygal@@V?$shared_ptr@UVertex@NewDiagram@Voronoi@@@std@@@std@@@5@$0A@@std@@@std@@IEAA@AEBV?$_Uhash_compare@PEAUVertex@?$Diagram@N@mygal@@U?$hash@PEAUVertex@?$Diagram@N@mygal@@@std@@U?$equal_to@PEAUVertex@?$Diagram@N@mygal@@@5@@1@AEBV?$allocator@U?$pair@QEAUVertex@?$Diagram@N@mygal@@V?$shared_ptr@UVertex@NewDiagram@Voronoi@@@std@@@std@@@1@@Z 000000014004aa90 f i Main.obj
 0002:0001bc10       ??0?$_List_const_iterator@V?$_List_val@U?$_List_simple_types@U?$pair@QEAUFace@?$Diagram@N@mygal@@V?$shared_ptr@UFace@NewDiagram@Voronoi@@@std@@@std@@@std@@@std@@@std@@QEAA@PEAU?$_List_node@U?$pair@QEAUFace@?$Diagram@N@mygal@@V?$shared_ptr@UFace@NewDiagram@Voronoi@@@std@@@std@@PEAX@1@PEBV?$_List_val@U?$_List_simple_types@U?$pair@QEAUFace@?$Diagram@N@mygal@@V?$shared_ptr@UFace@NewDiagram@Voronoi@@@std@@@std@@@std@@@1@@Z 000000014004ac10 f i Main.obj
 0002:0001bc70       ??0?$_List_const_iterator@V?$_List_val@U?$_List_simple_types@U?$pair@QEAUHalfEdge@?$Diagram@N@mygal@@V?$shared_ptr@UHalfEdge@NewDiagram@Voronoi@@@std@@@std@@@std@@@std@@@std@@QEAA@PEAU?$_List_node@U?$pair@QEAUHalfEdge@?$Diagram@N@mygal@@V?$shared_ptr@UHalfEdge@NewDiagram@Voronoi@@@std@@@std@@PEAX@1@PEBV?$_List_val@U?$_List_simple_types@U?$pair@QEAUHalfEdge@?$Diagram@N@mygal@@V?$shared_ptr@UHalfEdge@NewDiagram@Voronoi@@@std@@@std@@@std@@@1@@Z 000000014004ac70 f i Main.obj
 0002:0001bcd0       ??0?$_List_const_iterator@V?$_List_val@U?$_List_simple_types@U?$pair@QEAUVertex@?$Diagram@N@mygal@@V?$shared_ptr@UVertex@NewDiagram@Voronoi@@@std@@@std@@@std@@@std@@@std@@QEAA@PEAU?$_List_node@U?$pair@QEAUVertex@?$Diagram@N@mygal@@V?$shared_ptr@UVertex@NewDiagram@Voronoi@@@std@@@std@@PEAX@1@PEBV?$_List_val@U?$_List_simple_types@U?$pair@QEAUVertex@?$Diagram@N@mygal@@V?$shared_ptr@UVertex@NewDiagram@Voronoi@@@std@@@std@@@std@@@1@@Z 000000014004acd0 f i Main.obj
 0002:0001bd30       ??0?$_List_const_iterator@V?$_List_val@U?$_List_simple_types@UFace@NewDiagram@Voronoi@@@std@@@std@@@std@@QEAA@XZ 000000014004ad30 f i Main.obj
 0002:0001bd70       ??0?$_List_const_iterator@V?$_List_val@U?$_List_simple_types@UHalfEdge@?$Diagram@N@mygal@@@std@@@std@@@std@@QEAA@$$QEAV01@@Z 000000014004ad70 f i Main.obj
 0002:0001bdc0       ??0?$_List_const_iterator@V?$_List_val@U?$_List_simple_types@UHalfEdge@?$Diagram@N@mygal@@@std@@@std@@@std@@QEAA@PEAU?$_List_node@UHalfEdge@?$Diagram@N@mygal@@PEAX@1@PEBV?$_List_val@U?$_List_simple_types@UHalfEdge@?$Diagram@N@mygal@@@std@@@1@@Z 000000014004adc0 f i Main.obj
 0002:0001be20       ??0?$_List_const_iterator@V?$_List_val@U?$_List_simple_types@UHalfEdge@?$Diagram@N@mygal@@@std@@@std@@@std@@QEAA@XZ 000000014004ae20 f i Main.obj
 0002:0001be60       ??0?$_List_const_iterator@V?$_List_val@U?$_List_simple_types@UHalfEdge@NewDiagram@Voronoi@@@std@@@std@@@std@@QEAA@XZ 000000014004ae60 f i Main.obj
 0002:0001bea0       ??0?$_List_const_iterator@V?$_List_val@U?$_List_simple_types@UVertex@?$Diagram@N@mygal@@@std@@@std@@@std@@QEAA@$$QEAV01@@Z 000000014004aea0 f i Main.obj
 0002:0001bef0       ??0?$_List_const_iterator@V?$_List_val@U?$_List_simple_types@UVertex@?$Diagram@N@mygal@@@std@@@std@@@std@@QEAA@PEAU?$_List_node@UVertex@?$Diagram@N@mygal@@PEAX@1@PEBV?$_List_val@U?$_List_simple_types@UVertex@?$Diagram@N@mygal@@@std@@@1@@Z 000000014004aef0 f i Main.obj
 0002:0001bf50       ??0?$_List_const_iterator@V?$_List_val@U?$_List_simple_types@UVertex@?$Diagram@N@mygal@@@std@@@std@@@std@@QEAA@XZ 000000014004af50 f i Main.obj
 0002:0001bf90       ??0?$_List_iterator@V?$_List_val@U?$_List_simple_types@U?$pair@QEAUFace@?$Diagram@N@mygal@@V?$shared_ptr@UFace@NewDiagram@Voronoi@@@std@@@std@@@std@@@std@@@std@@QEAA@PEAU?$_List_node@U?$pair@QEAUFace@?$Diagram@N@mygal@@V?$shared_ptr@UFace@NewDiagram@Voronoi@@@std@@@std@@PEAX@1@PEBV?$_List_val@U?$_List_simple_types@U?$pair@QEAUFace@?$Diagram@N@mygal@@V?$shared_ptr@UFace@NewDiagram@Voronoi@@@std@@@std@@@std@@@1@@Z 000000014004af90 f i Main.obj
 0002:0001bff0       ??0?$_List_iterator@V?$_List_val@U?$_List_simple_types@U?$pair@QEAUHalfEdge@?$Diagram@N@mygal@@V?$shared_ptr@UHalfEdge@NewDiagram@Voronoi@@@std@@@std@@@std@@@std@@@std@@QEAA@PEAU?$_List_node@U?$pair@QEAUHalfEdge@?$Diagram@N@mygal@@V?$shared_ptr@UHalfEdge@NewDiagram@Voronoi@@@std@@@std@@PEAX@1@PEBV?$_List_val@U?$_List_simple_types@U?$pair@QEAUHalfEdge@?$Diagram@N@mygal@@V?$shared_ptr@UHalfEdge@NewDiagram@Voronoi@@@std@@@std@@@std@@@1@@Z 000000014004aff0 f i Main.obj
 0002:0001c050       ??0?$_List_iterator@V?$_List_val@U?$_List_simple_types@U?$pair@QEAUVertex@?$Diagram@N@mygal@@V?$shared_ptr@UVertex@NewDiagram@Voronoi@@@std@@@std@@@std@@@std@@@std@@QEAA@PEAU?$_List_node@U?$pair@QEAUVertex@?$Diagram@N@mygal@@V?$shared_ptr@UVertex@NewDiagram@Voronoi@@@std@@@std@@PEAX@1@PEBV?$_List_val@U?$_List_simple_types@U?$pair@QEAUVertex@?$Diagram@N@mygal@@V?$shared_ptr@UVertex@NewDiagram@Voronoi@@@std@@@std@@@std@@@1@@Z 000000014004b050 f i Main.obj
 0002:0001c0b0       ??0?$_List_iterator@V?$_List_val@U?$_List_simple_types@UFace@NewDiagram@Voronoi@@@std@@@std@@@std@@QEAA@XZ 000000014004b0b0 f i Main.obj
 0002:0001c0f0       ??0?$_List_iterator@V?$_List_val@U?$_List_simple_types@UHalfEdge@?$Diagram@N@mygal@@@std@@@std@@@std@@QEAA@$$QEAV01@@Z 000000014004b0f0 f i Main.obj
 0002:0001c140       ??0?$_List_iterator@V?$_List_val@U?$_List_simple_types@UHalfEdge@?$Diagram@N@mygal@@@std@@@std@@@std@@QEAA@PEAU?$_List_node@UHalfEdge@?$Diagram@N@mygal@@PEAX@1@PEBV?$_List_val@U?$_List_simple_types@UHalfEdge@?$Diagram@N@mygal@@@std@@@1@@Z 000000014004b140 f i Main.obj
 0002:0001c1a0       ??0?$_List_iterator@V?$_List_val@U?$_List_simple_types@UHalfEdge@?$Diagram@N@mygal@@@std@@@std@@@std@@QEAA@XZ 000000014004b1a0 f i Main.obj
 0002:0001c1e0       ??0?$_List_iterator@V?$_List_val@U?$_List_simple_types@UHalfEdge@NewDiagram@Voronoi@@@std@@@std@@@std@@QEAA@XZ 000000014004b1e0 f i Main.obj
 0002:0001c220       ??0?$_List_iterator@V?$_List_val@U?$_List_simple_types@UVertex@?$Diagram@N@mygal@@@std@@@std@@@std@@QEAA@$$QEAV01@@Z 000000014004b220 f i Main.obj
 0002:0001c270       ??0?$_List_iterator@V?$_List_val@U?$_List_simple_types@UVertex@?$Diagram@N@mygal@@@std@@@std@@@std@@QEAA@PEAU?$_List_node@UVertex@?$Diagram@N@mygal@@PEAX@1@PEBV?$_List_val@U?$_List_simple_types@UVertex@?$Diagram@N@mygal@@@std@@@1@@Z 000000014004b270 f i Main.obj
 0002:0001c2d0       ??0?$_List_iterator@V?$_List_val@U?$_List_simple_types@UVertex@?$Diagram@N@mygal@@@std@@@std@@@std@@QEAA@XZ 000000014004b2d0 f i Main.obj
 0002:0001c310       ??0?$_List_unchecked_const_iterator@V?$_List_val@U?$_List_simple_types@U?$pair@QEAUFace@?$Diagram@N@mygal@@V?$shared_ptr@UFace@NewDiagram@Voronoi@@@std@@@std@@@std@@@std@@U_Iterator_base0@2@@std@@QEAA@PEAU?$_List_node@U?$pair@QEAUFace@?$Diagram@N@mygal@@V?$shared_ptr@UFace@NewDiagram@Voronoi@@@std@@@std@@PEAX@1@PEBV?$_List_val@U?$_List_simple_types@U?$pair@QEAUFace@?$Diagram@N@mygal@@V?$shared_ptr@UFace@NewDiagram@Voronoi@@@std@@@std@@@std@@@1@@Z 000000014004b310 f i Main.obj
 0002:0001c390       ??0?$_List_unchecked_const_iterator@V?$_List_val@U?$_List_simple_types@U?$pair@QEAUFace@?$Diagram@N@mygal@@V?$shared_ptr@UFace@NewDiagram@Voronoi@@@std@@@std@@@std@@@std@@U_Iterator_base12@2@@std@@QEAA@PEAU?$_List_node@U?$pair@QEAUFace@?$Diagram@N@mygal@@V?$shared_ptr@UFace@NewDiagram@Voronoi@@@std@@@std@@PEAX@1@PEBV?$_List_val@U?$_List_simple_types@U?$pair@QEAUFace@?$Diagram@N@mygal@@V?$shared_ptr@UFace@NewDiagram@Voronoi@@@std@@@std@@@std@@@1@@Z 000000014004b390 f i Main.obj
 0002:0001c420       ??0?$_List_unchecked_const_iterator@V?$_List_val@U?$_List_simple_types@U?$pair@QEAUHalfEdge@?$Diagram@N@mygal@@V?$shared_ptr@UHalfEdge@NewDiagram@Voronoi@@@std@@@std@@@std@@@std@@U_Iterator_base0@2@@std@@QEAA@PEAU?$_List_node@U?$pair@QEAUHalfEdge@?$Diagram@N@mygal@@V?$shared_ptr@UHalfEdge@NewDiagram@Voronoi@@@std@@@std@@PEAX@1@PEBV?$_List_val@U?$_List_simple_types@U?$pair@QEAUHalfEdge@?$Diagram@N@mygal@@V?$shared_ptr@UHalfEdge@NewDiagram@Voronoi@@@std@@@std@@@std@@@1@@Z 000000014004b420 f i Main.obj
 0002:0001c4a0       ??0?$_List_unchecked_const_iterator@V?$_List_val@U?$_List_simple_types@U?$pair@QEAUHalfEdge@?$Diagram@N@mygal@@V?$shared_ptr@UHalfEdge@NewDiagram@Voronoi@@@std@@@std@@@std@@@std@@U_Iterator_base12@2@@std@@QEAA@PEAU?$_List_node@U?$pair@QEAUHalfEdge@?$Diagram@N@mygal@@V?$shared_ptr@UHalfEdge@NewDiagram@Voronoi@@@std@@@std@@PEAX@1@PEBV?$_List_val@U?$_List_simple_types@U?$pair@QEAUHalfEdge@?$Diagram@N@mygal@@V?$shared_ptr@UHalfEdge@NewDiagram@Voronoi@@@std@@@std@@@std@@@1@@Z 000000014004b4a0 f i Main.obj
 0002:0001c530       ??0?$_List_unchecked_const_iterator@V?$_List_val@U?$_List_simple_types@U?$pair@QEAUVertex@?$Diagram@N@mygal@@V?$shared_ptr@UVertex@NewDiagram@Voronoi@@@std@@@std@@@std@@@std@@U_Iterator_base0@2@@std@@QEAA@PEAU?$_List_node@U?$pair@QEAUVertex@?$Diagram@N@mygal@@V?$shared_ptr@UVertex@NewDiagram@Voronoi@@@std@@@std@@PEAX@1@PEBV?$_List_val@U?$_List_simple_types@U?$pair@QEAUVertex@?$Diagram@N@mygal@@V?$shared_ptr@UVertex@NewDiagram@Voronoi@@@std@@@std@@@std@@@1@@Z 000000014004b530 f i Main.obj
 0002:0001c5b0       ??0?$_List_unchecked_const_iterator@V?$_List_val@U?$_List_simple_types@U?$pair@QEAUVertex@?$Diagram@N@mygal@@V?$shared_ptr@UVertex@NewDiagram@Voronoi@@@std@@@std@@@std@@@std@@U_Iterator_base12@2@@std@@QEAA@PEAU?$_List_node@U?$pair@QEAUVertex@?$Diagram@N@mygal@@V?$shared_ptr@UVertex@NewDiagram@Voronoi@@@std@@@std@@PEAX@1@PEBV?$_List_val@U?$_List_simple_types@U?$pair@QEAUVertex@?$Diagram@N@mygal@@V?$shared_ptr@UVertex@NewDiagram@Voronoi@@@std@@@std@@@std@@@1@@Z 000000014004b5b0 f i Main.obj
 0002:0001c640       ??0?$_List_unchecked_const_iterator@V?$_List_val@U?$_List_simple_types@UFace@NewDiagram@Voronoi@@@std@@@std@@U_Iterator_base12@2@@std@@QEAA@XZ 000000014004b640 f i Main.obj
 0002:0001c6a0       ??0?$_List_unchecked_const_iterator@V?$_List_val@U?$_List_simple_types@UHalfEdge@?$Diagram@N@mygal@@@std@@@std@@U_Iterator_base0@2@@std@@QEAA@PEAU?$_List_node@UHalfEdge@?$Diagram@N@mygal@@PEAX@1@PEBV?$_List_val@U?$_List_simple_types@UHalfEdge@?$Diagram@N@mygal@@@std@@@1@@Z 000000014004b6a0 f i Main.obj
 0002:0001c720       ??0?$_List_unchecked_const_iterator@V?$_List_val@U?$_List_simple_types@UHalfEdge@?$Diagram@N@mygal@@@std@@@std@@U_Iterator_base12@2@@std@@QEAA@$$QEAV01@@Z 000000014004b720 f i Main.obj
 0002:0001c790       ??0?$_List_unchecked_const_iterator@V?$_List_val@U?$_List_simple_types@UHalfEdge@?$Diagram@N@mygal@@@std@@@std@@U_Iterator_base12@2@@std@@QEAA@PEAU?$_List_node@UHalfEdge@?$Diagram@N@mygal@@PEAX@1@PEBV?$_List_val@U?$_List_simple_types@UHalfEdge@?$Diagram@N@mygal@@@std@@@1@@Z 000000014004b790 f i Main.obj
 0002:0001c820       ??0?$_List_unchecked_const_iterator@V?$_List_val@U?$_List_simple_types@UHalfEdge@?$Diagram@N@mygal@@@std@@@std@@U_Iterator_base12@2@@std@@QEAA@XZ 000000014004b820 f i Main.obj
 0002:0001c880       ??0?$_List_unchecked_const_iterator@V?$_List_val@U?$_List_simple_types@UHalfEdge@NewDiagram@Voronoi@@@std@@@std@@U_Iterator_base12@2@@std@@QEAA@XZ 000000014004b880 f i Main.obj
 0002:0001c8e0       ??0?$_List_unchecked_const_iterator@V?$_List_val@U?$_List_simple_types@UVertex@?$Diagram@N@mygal@@@std@@@std@@U_Iterator_base12@2@@std@@QEAA@$$QEAV01@@Z 000000014004b8e0 f i Main.obj
 0002:0001c950       ??0?$_List_unchecked_const_iterator@V?$_List_val@U?$_List_simple_types@UVertex@?$Diagram@N@mygal@@@std@@@std@@U_Iterator_base12@2@@std@@QEAA@PEAU?$_List_node@UVertex@?$Diagram@N@mygal@@PEAX@1@PEBV?$_List_val@U?$_List_simple_types@UVertex@?$Diagram@N@mygal@@@std@@@1@@Z 000000014004b950 f i Main.obj
 0002:0001c9e0       ??0?$_List_unchecked_const_iterator@V?$_List_val@U?$_List_simple_types@UVertex@?$Diagram@N@mygal@@@std@@@std@@U_Iterator_base12@2@@std@@QEAA@XZ 000000014004b9e0 f i Main.obj
 0002:0001ca40       ??0?$_List_unchecked_const_iterator@V?$_List_val@U?$_List_simple_types@V?$shared_ptr@UFace@NewDiagram@Voronoi@@@std@@@std@@@std@@U_Iterator_base0@2@@std@@QEAA@PEAU?$_List_node@V?$shared_ptr@UFace@NewDiagram@Voronoi@@@std@@PEAX@1@PEBV?$_List_val@U?$_List_simple_types@V?$shared_ptr@UFace@NewDiagram@Voronoi@@@std@@@std@@@1@@Z 000000014004ba40 f i Main.obj
 0002:0001cac0       ??0?$_List_unchecked_iterator@V?$_List_val@U?$_List_simple_types@U?$pair@QEAUFace@?$Diagram@N@mygal@@V?$shared_ptr@UFace@NewDiagram@Voronoi@@@std@@@std@@@std@@@std@@@std@@QEAA@PEAU?$_List_node@U?$pair@QEAUFace@?$Diagram@N@mygal@@V?$shared_ptr@UFace@NewDiagram@Voronoi@@@std@@@std@@PEAX@1@PEBV?$_List_val@U?$_List_simple_types@U?$pair@QEAUFace@?$Diagram@N@mygal@@V?$shared_ptr@UFace@NewDiagram@Voronoi@@@std@@@std@@@std@@@1@@Z 000000014004bac0 f i Main.obj
 0002:0001cb20       ??0?$_List_unchecked_iterator@V?$_List_val@U?$_List_simple_types@U?$pair@QEAUHalfEdge@?$Diagram@N@mygal@@V?$shared_ptr@UHalfEdge@NewDiagram@Voronoi@@@std@@@std@@@std@@@std@@@std@@QEAA@PEAU?$_List_node@U?$pair@QEAUHalfEdge@?$Diagram@N@mygal@@V?$shared_ptr@UHalfEdge@NewDiagram@Voronoi@@@std@@@std@@PEAX@1@PEBV?$_List_val@U?$_List_simple_types@U?$pair@QEAUHalfEdge@?$Diagram@N@mygal@@V?$shared_ptr@UHalfEdge@NewDiagram@Voronoi@@@std@@@std@@@std@@@1@@Z 000000014004bb20 f i Main.obj
 0002:0001cb80       ??0?$_List_unchecked_iterator@V?$_List_val@U?$_List_simple_types@U?$pair@QEAUVertex@?$Diagram@N@mygal@@V?$shared_ptr@UVertex@NewDiagram@Voronoi@@@std@@@std@@@std@@@std@@@std@@QEAA@PEAU?$_List_node@U?$pair@QEAUVertex@?$Diagram@N@mygal@@V?$shared_ptr@UVertex@NewDiagram@Voronoi@@@std@@@std@@PEAX@1@PEBV?$_List_val@U?$_List_simple_types@U?$pair@QEAUVertex@?$Diagram@N@mygal@@V?$shared_ptr@UVertex@NewDiagram@Voronoi@@@std@@@std@@@std@@@1@@Z 000000014004bb80 f i Main.obj
 0002:0001cbe0       ??0?$_List_unchecked_iterator@V?$_List_val@U?$_List_simple_types@V?$shared_ptr@UFace@NewDiagram@Voronoi@@@std@@@std@@@std@@@std@@QEAA@PEAU?$_List_node@V?$shared_ptr@UFace@NewDiagram@Voronoi@@@std@@PEAX@1@PEBV?$_List_val@U?$_List_simple_types@V?$shared_ptr@UFace@NewDiagram@Voronoi@@@std@@@std@@@1@@Z 000000014004bbe0 f i Main.obj
 0002:0001cc40       ??0?$_List_val@U?$_List_simple_types@U?$pair@QEAUFace@?$Diagram@N@mygal@@V?$shared_ptr@UFace@NewDiagram@Voronoi@@@std@@@std@@@std@@@std@@QEAA@XZ 000000014004bc40 f i Main.obj
 0002:0001ccc0       ??0?$_List_val@U?$_List_simple_types@U?$pair@QEAUHalfEdge@?$Diagram@N@mygal@@V?$shared_ptr@UHalfEdge@NewDiagram@Voronoi@@@std@@@std@@@std@@@std@@QEAA@XZ 000000014004bcc0 f i Main.obj
 0002:0001cd40       ??0?$_List_val@U?$_List_simple_types@U?$pair@QEAUVertex@?$Diagram@N@mygal@@V?$shared_ptr@UVertex@NewDiagram@Voronoi@@@std@@@std@@@std@@@std@@QEAA@XZ 000000014004bd40 f i Main.obj
 0002:0001cdc0       ??0?$_List_val@U?$_List_simple_types@UHalfEdge@?$Diagram@N@mygal@@@std@@@std@@QEAA@XZ 000000014004bdc0 f i Main.obj
 0002:0001ce40       ??0?$_List_val@U?$_List_simple_types@UVertex@?$Diagram@N@mygal@@@std@@@std@@QEAA@XZ 000000014004be40 f i Main.obj
 0002:0001cec0       ??0?$_List_val@U?$_List_simple_types@V?$shared_ptr@UFace@NewDiagram@Voronoi@@@std@@@std@@@std@@QEAA@XZ 000000014004bec0 f i Main.obj
 0002:0001cf40       ??0?$_Ptr_base@UFace@NewDiagram@Voronoi@@@std@@IEAA@XZ 000000014004bf40 f i Main.obj
 0002:0001cfb0       ??0?$_Ptr_base@UHalfEdge@NewDiagram@Voronoi@@@std@@IEAA@XZ 000000014004bfb0 f i Main.obj
 0002:0001d020       ??0?$_Ptr_base@USite@NewDiagram@Voronoi@@@std@@IEAA@XZ 000000014004c020 f i Main.obj
 0002:0001d090       ??0?$_Ptr_base@UVertex@NewDiagram@Voronoi@@@std@@IEAA@XZ 000000014004c090 f i Main.obj
 0002:0001d100       ??0?$_String_val@U?$_Simple_types@D@std@@@std@@QEAA@XZ 000000014004c100 f i Main.obj
 0002:0001d190       ??0?$_Uhash_compare@PEAUFace@?$Diagram@N@mygal@@U?$hash@PEAUFace@?$Diagram@N@mygal@@@std@@U?$equal_to@PEAUFace@?$Diagram@N@mygal@@@5@@std@@QEAA@XZ 000000014004c190 f i Main.obj
 0002:0001d220       ??0?$_Uhash_compare@PEAUHalfEdge@?$Diagram@N@mygal@@U?$hash@PEAUHalfEdge@?$Diagram@N@mygal@@@std@@U?$equal_to@PEAUHalfEdge@?$Diagram@N@mygal@@@5@@std@@QEAA@XZ 000000014004c220 f i Main.obj
 0002:0001d2b0       ??0?$_Uhash_compare@PEAUVertex@?$Diagram@N@mygal@@U?$hash@PEAUVertex@?$Diagram@N@mygal@@@std@@U?$equal_to@PEAUVertex@?$Diagram@N@mygal@@@5@@std@@QEAA@XZ 000000014004c2b0 f i Main.obj
 0002:0001d340       ??0?$_Umap_traits@PEAUFace@?$Diagram@N@mygal@@V?$shared_ptr@UFace@NewDiagram@Voronoi@@@std@@V?$_Uhash_compare@PEAUFace@?$Diagram@N@mygal@@U?$hash@PEAUFace@?$Diagram@N@mygal@@@std@@U?$equal_to@PEAUFace@?$Diagram@N@mygal@@@5@@5@V?$allocator@U?$pair@QEAUFace@?$Diagram@N@mygal@@V?$shared_ptr@UFace@NewDiagram@Voronoi@@@std@@@std@@@5@$0A@@std@@QEAA@AEBV?$_Uhash_compare@PEAUFace@?$Diagram@N@mygal@@U?$hash@PEAUFace@?$Diagram@N@mygal@@@std@@U?$equal_to@PEAUFace@?$Diagram@N@mygal@@@5@@1@@Z 000000014004c340 f i Main.obj
 0002:0001d3a0       ??0?$_Umap_traits@PEAUHalfEdge@?$Diagram@N@mygal@@V?$shared_ptr@UHalfEdge@NewDiagram@Voronoi@@@std@@V?$_Uhash_compare@PEAUHalfEdge@?$Diagram@N@mygal@@U?$hash@PEAUHalfEdge@?$Diagram@N@mygal@@@std@@U?$equal_to@PEAUHalfEdge@?$Diagram@N@mygal@@@5@@5@V?$allocator@U?$pair@QEAUHalfEdge@?$Diagram@N@mygal@@V?$shared_ptr@UHalfEdge@NewDiagram@Voronoi@@@std@@@std@@@5@$0A@@std@@QEAA@AEBV?$_Uhash_compare@PEAUHalfEdge@?$Diagram@N@mygal@@U?$hash@PEAUHalfEdge@?$Diagram@N@mygal@@@std@@U?$equal_to@PEAUHalfEdge@?$Diagram@N@mygal@@@5@@1@@Z 000000014004c3a0 f i Main.obj
 0002:0001d400       ??0?$_Umap_traits@PEAUVertex@?$Diagram@N@mygal@@V?$shared_ptr@UVertex@NewDiagram@Voronoi@@@std@@V?$_Uhash_compare@PEAUVertex@?$Diagram@N@mygal@@U?$hash@PEAUVertex@?$Diagram@N@mygal@@@std@@U?$equal_to@PEAUVertex@?$Diagram@N@mygal@@@5@@5@V?$allocator@U?$pair@QEAUVertex@?$Diagram@N@mygal@@V?$shared_ptr@UVertex@NewDiagram@Voronoi@@@std@@@std@@@5@$0A@@std@@QEAA@AEBV?$_Uhash_compare@PEAUVertex@?$Diagram@N@mygal@@U?$hash@PEAUVertex@?$Diagram@N@mygal@@@std@@U?$equal_to@PEAUVertex@?$Diagram@N@mygal@@@5@@1@@Z 000000014004c400 f i Main.obj
 0002:0001d460       ??0?$_Uninitialized_backout@PEAV?$_List_unchecked_iterator@V?$_List_val@U?$_List_simple_types@U?$pair@QEAUFace@?$Diagram@N@mygal@@V?$shared_ptr@UFace@NewDiagram@Voronoi@@@std@@@std@@@std@@@std@@@std@@@std@@QEAA@PEAV?$_List_unchecked_iterator@V?$_List_val@U?$_List_simple_types@U?$pair@QEAUFace@?$Diagram@N@mygal@@V?$shared_ptr@UFace@NewDiagram@Voronoi@@@std@@@std@@@std@@@std@@@1@@Z 000000014004c460 f i Main.obj
 0002:0001d4d0       ??0?$_Uninitialized_backout@PEAV?$_List_unchecked_iterator@V?$_List_val@U?$_List_simple_types@U?$pair@QEAUHalfEdge@?$Diagram@N@mygal@@V?$shared_ptr@UHalfEdge@NewDiagram@Voronoi@@@std@@@std@@@std@@@std@@@std@@@std@@QEAA@PEAV?$_List_unchecked_iterator@V?$_List_val@U?$_List_simple_types@U?$pair@QEAUHalfEdge@?$Diagram@N@mygal@@V?$shared_ptr@UHalfEdge@NewDiagram@Voronoi@@@std@@@std@@@std@@@std@@@1@@Z 000000014004c4d0 f i Main.obj
 0002:0001d540       ??0?$_Uninitialized_backout@PEAV?$_List_unchecked_iterator@V?$_List_val@U?$_List_simple_types@U?$pair@QEAUVertex@?$Diagram@N@mygal@@V?$shared_ptr@UVertex@NewDiagram@Voronoi@@@std@@@std@@@std@@@std@@@std@@@std@@QEAA@PEAV?$_List_unchecked_iterator@V?$_List_val@U?$_List_simple_types@U?$pair@QEAUVertex@?$Diagram@N@mygal@@V?$shared_ptr@UVertex@NewDiagram@Voronoi@@@std@@@std@@@std@@@std@@@1@@Z 000000014004c540 f i Main.obj
 0002:0001d5b0       ??0?$_Uninitialized_backout_al@V?$allocator@U?$pair@VPoint2D@@N@std@@@std@@@std@@QEAA@PEAU?$pair@VPoint2D@@N@1@AEAV?$allocator@U?$pair@VPoint2D@@N@std@@@1@@Z 000000014004c5b0 f i Main.obj
 0002:0001d640       ??0?$_Uninitialized_backout_al@V?$allocator@UFace@?$Diagram@N@mygal@@@std@@@std@@QEAA@PEAUFace@?$Diagram@N@mygal@@AEAV?$allocator@UFace@?$Diagram@N@mygal@@@1@@Z 000000014004c640 f i Main.obj
 0002:0001d6d0       ??0?$_Uninitialized_backout_al@V?$allocator@USite@?$Diagram@N@mygal@@@std@@@std@@QEAA@PEAUSite@?$Diagram@N@mygal@@AEAV?$allocator@USite@?$Diagram@N@mygal@@@1@@Z 000000014004c6d0 f i Main.obj
 0002:0001d760       ??0?$_Uninitialized_backout_al@V?$allocator@V?$Vector2@N@mygal@@@std@@@std@@QEAA@PEAV?$Vector2@N@mygal@@AEAV?$allocator@V?$Vector2@N@mygal@@@1@@Z 000000014004c760 f i Main.obj
 0002:0001d7f0       ??0?$_Uninitialized_backout_al@V?$allocator@V?$shared_ptr@USite@NewDiagram@Voronoi@@@std@@@std@@@std@@QEAA@PEAV?$shared_ptr@USite@NewDiagram@Voronoi@@@1@AEAV?$allocator@V?$shared_ptr@USite@NewDiagram@Voronoi@@@std@@@1@@Z 000000014004c7f0 f i Main.obj
 0002:0001d880       ??0?$_Uninitialized_backout_al@V?$allocator@V?$unique_ptr@V?$Event@N@mygal@@U?$default_delete@V?$Event@N@mygal@@@std@@@std@@@std@@@std@@QEAA@PEAV?$unique_ptr@V?$Event@N@mygal@@U?$default_delete@V?$Event@N@mygal@@@std@@@1@AEAV?$allocator@V?$unique_ptr@V?$Event@N@mygal@@U?$default_delete@V?$Event@N@mygal@@@std@@@std@@@1@@Z 000000014004c880 f i Main.obj
 0002:0001d910       ??0?$_Uninitialized_backout_al@V?$allocator@VCircleShape@sf@@@std@@@std@@QEAA@PEAVCircleShape@sf@@AEAV?$allocator@VCircleShape@sf@@@1@@Z 000000014004c910 f i Main.obj
 0002:0001d9a0       ??0?$_Vector_val@U?$_Simple_types@U?$pair@VPoint2D@@N@std@@@std@@@std@@QEAA@XZ 000000014004c9a0 f i Main.obj
 0002:0001da30       ??0?$_Vector_val@U?$_Simple_types@UFace@?$Diagram@N@mygal@@@std@@@std@@QEAA@PEAUFace@?$Diagram@N@mygal@@00@Z 000000014004ca30 f i Main.obj
 0002:0001dae0       ??0?$_Vector_val@U?$_Simple_types@UFace@?$Diagram@N@mygal@@@std@@@std@@QEAA@XZ 000000014004cae0 f i Main.obj
 0002:0001db70       ??0?$_Vector_val@U?$_Simple_types@USite@?$Diagram@N@mygal@@@std@@@std@@QEAA@PEAUSite@?$Diagram@N@mygal@@00@Z 000000014004cb70 f i Main.obj
 0002:0001dc20       ??0?$_Vector_val@U?$_Simple_types@USite@?$Diagram@N@mygal@@@std@@@std@@QEAA@XZ 000000014004cc20 f i Main.obj
 0002:0001dcb0       ??0?$_Vector_val@U?$_Simple_types@V?$Vector2@N@mygal@@@std@@@std@@QEAA@XZ 000000014004ccb0 f i Main.obj
 0002:0001dd40       ??0?$_Vector_val@U?$_Simple_types@V?$_List_unchecked_iterator@V?$_List_val@U?$_List_simple_types@U?$pair@QEAUFace@?$Diagram@N@mygal@@V?$shared_ptr@UFace@NewDiagram@Voronoi@@@std@@@std@@@std@@@std@@@std@@@std@@@std@@QEAA@XZ 000000014004cd40 f i Main.obj
 0002:0001ddd0       ??0?$_Vector_val@U?$_Simple_types@V?$_List_unchecked_iterator@V?$_List_val@U?$_List_simple_types@U?$pair@QEAUHalfEdge@?$Diagram@N@mygal@@V?$shared_ptr@UHalfEdge@NewDiagram@Voronoi@@@std@@@std@@@std@@@std@@@std@@@std@@@std@@QEAA@XZ 000000014004cdd0 f i Main.obj
 0002:0001de60       ??0?$_Vector_val@U?$_Simple_types@V?$_List_unchecked_iterator@V?$_List_val@U?$_List_simple_types@U?$pair@QEAUVertex@?$Diagram@N@mygal@@V?$shared_ptr@UVertex@NewDiagram@Voronoi@@@std@@@std@@@std@@@std@@@std@@@std@@@std@@QEAA@XZ 000000014004ce60 f i Main.obj
 0002:0001def0       ??0?$_Vector_val@U?$_Simple_types@V?$shared_ptr@USite@NewDiagram@Voronoi@@@std@@@std@@@std@@QEAA@XZ 000000014004cef0 f i Main.obj
 0002:0001df80       ??0?$_Vector_val@U?$_Simple_types@V?$unique_ptr@V?$Event@N@mygal@@U?$default_delete@V?$Event@N@mygal@@@std@@@std@@@std@@@std@@QEAA@XZ 000000014004cf80 f i Main.obj
 0002:0001e010       ??0?$_Vector_val@U?$_Simple_types@VCircleShape@sf@@@std@@@std@@QEAA@XZ 000000014004d010 f i Main.obj
 0002:0001e0a0       ??0?$allocator@D@std@@QEAA@XZ 000000014004d0a0 f i Main.obj
 0002:0001e0e0       ??0?$allocator@U?$_List_node@UHalfEdge@?$Diagram@N@mygal@@PEAX@std@@@std@@QEAA@XZ 000000014004d0e0 f i Main.obj
 0002:0001e120       ??0?$allocator@U?$_List_node@UVertex@?$Diagram@N@mygal@@PEAX@std@@@std@@QEAA@XZ 000000014004d120 f i Main.obj
 0002:0001e160       ??0?$allocator@U?$_List_node@V?$shared_ptr@UFace@NewDiagram@Voronoi@@@std@@PEAX@std@@@std@@QEAA@XZ 000000014004d160 f i Main.obj
 0002:0001e1a0       ??0?$allocator@U?$pair@QEAUFace@?$Diagram@N@mygal@@V?$shared_ptr@UFace@NewDiagram@Voronoi@@@std@@@std@@@std@@QEAA@XZ 000000014004d1a0 f i Main.obj
 0002:0001e1e0       ??0?$allocator@U?$pair@QEAUHalfEdge@?$Diagram@N@mygal@@V?$shared_ptr@UHalfEdge@NewDiagram@Voronoi@@@std@@@std@@@std@@QEAA@XZ 000000014004d1e0 f i Main.obj
 0002:0001e220       ??0?$allocator@U?$pair@QEAUVertex@?$Diagram@N@mygal@@V?$shared_ptr@UVertex@NewDiagram@Voronoi@@@std@@@std@@@std@@QEAA@XZ 000000014004d220 f i Main.obj
 0002:0001e260       ??0?$allocator@U?$pair@VPoint2D@@N@std@@@std@@QEAA@XZ 000000014004d260 f i Main.obj
 0002:0001e2a0       ??0?$allocator@UFace@?$Diagram@N@mygal@@@std@@QEAA@XZ 000000014004d2a0 f i Main.obj
 0002:0001e2e0       ??0?$allocator@USite@?$Diagram@N@mygal@@@std@@QEAA@XZ 000000014004d2e0 f i Main.obj
 0002:0001e320       ??0?$allocator@V?$Vector2@N@mygal@@@std@@QEAA@XZ 000000014004d320 f i Main.obj
 0002:0001e360       ??0?$allocator@V?$shared_ptr@USite@NewDiagram@Voronoi@@@std@@@std@@QEAA@XZ 000000014004d360 f i Main.obj
 0002:0001e3a0       ??0?$allocator@V?$unique_ptr@V?$Event@N@mygal@@U?$default_delete@V?$Event@N@mygal@@@std@@@std@@@std@@QEAA@XZ 000000014004d3a0 f i Main.obj
 0002:0001e3e0       ??0?$allocator@VCircleShape@sf@@@std@@QEAA@XZ 000000014004d3e0 f i Main.obj
 0002:0001e420       ??0?$basic_filebuf@DU?$char_traits@D@std@@@std@@QEAA@XZ 000000014004d420 f i Main.obj
 0002:0001e4a0       ??0?$basic_ifstream@DU?$char_traits@D@std@@@std@@QEAA@AEBV?$basic_string@DU?$char_traits@D@std@@V?$allocator@D@2@@1@HH@Z 000000014004d4a0 f i Main.obj
 0002:0001e5a0       ??0?$basic_ifstream@DU?$char_traits@D@std@@@std@@QEAA@PEBDHH@Z 000000014004d5a0 f i Main.obj
 0002:0001e790       ??0?$basic_string@DU?$char_traits@D@std@@V?$allocator@D@2@@std@@QEAA@QEBD@Z 000000014004d790 f i Main.obj
 0002:0001e840       ??0?$basic_string@DU?$char_traits@D@std@@V?$allocator@D@2@@std@@QEAA@XZ 000000014004d840 f i Main.obj
 0002:0001e8c0       ??0?$fpos@U_Mbstatet@@@std@@QEAA@U_Mbstatet@@_J@Z 000000014004d8c0 f i Main.obj
 0002:0001e950       ??0?$fpos@U_Mbstatet@@@std@@QEAA@_J@Z 000000014004d950 f i Main.obj
 0002:0001e9e0       ??0?$initializer_list@V?$shared_ptr@USite@NewDiagram@Voronoi@@@std@@@std@@QEAA@PEBV?$shared_ptr@USite@NewDiagram@Voronoi@@@1@0@Z 000000014004d9e0 f i Main.obj
 0002:0001ea60       ??0?$list@U?$pair@QEAUFace@?$Diagram@N@mygal@@V?$shared_ptr@UFace@NewDiagram@Voronoi@@@std@@@std@@V?$allocator@U?$pair@QEAUFace@?$Diagram@N@mygal@@V?$shared_ptr@UFace@NewDiagram@Voronoi@@@std@@@std@@@2@@std@@QEAA@AEBV?$allocator@U?$pair@QEAUFace@?$Diagram@N@mygal@@V?$shared_ptr@UFace@NewDiagram@Voronoi@@@std@@@std@@@1@@Z 000000014004da60 f i Main.obj
 0002:0001eaf0       ??0?$list@U?$pair@QEAUHalfEdge@?$Diagram@N@mygal@@V?$shared_ptr@UHalfEdge@NewDiagram@Voronoi@@@std@@@std@@V?$allocator@U?$pair@QEAUHalfEdge@?$Diagram@N@mygal@@V?$shared_ptr@UHalfEdge@NewDiagram@Voronoi@@@std@@@std@@@2@@std@@QEAA@AEBV?$allocator@U?$pair@QEAUHalfEdge@?$Diagram@N@mygal@@V?$shared_ptr@UHalfEdge@NewDiagram@Voronoi@@@std@@@std@@@1@@Z 000000014004daf0 f i Main.obj
 0002:0001eb80       ??0?$list@U?$pair@QEAUVertex@?$Diagram@N@mygal@@V?$shared_ptr@UVertex@NewDiagram@Voronoi@@@std@@@std@@V?$allocator@U?$pair@QEAUVertex@?$Diagram@N@mygal@@V?$shared_ptr@UVertex@NewDiagram@Voronoi@@@std@@@std@@@2@@std@@QEAA@AEBV?$allocator@U?$pair@QEAUVertex@?$Diagram@N@mygal@@V?$shared_ptr@UVertex@NewDiagram@Voronoi@@@std@@@std@@@1@@Z 000000014004db80 f i Main.obj
 0002:0001ec10       ??0?$list@UHalfEdge@?$Diagram@N@mygal@@V?$allocator@UHalfEdge@?$Diagram@N@mygal@@@std@@@std@@QEAA@$$QEAV01@@Z 000000014004dc10 f i Main.obj
 0002:0001ece0       ??0?$list@UHalfEdge@?$Diagram@N@mygal@@V?$allocator@UHalfEdge@?$Diagram@N@mygal@@@std@@@std@@QEAA@XZ 000000014004dce0 f i Main.obj
 0002:0001ed60       ??0?$list@UVertex@?$Diagram@N@mygal@@V?$allocator@UVertex@?$Diagram@N@mygal@@@std@@@std@@QEAA@$$QEAV01@@Z 000000014004dd60 f i Main.obj
 0002:0001ee30       ??0?$list@UVertex@?$Diagram@N@mygal@@V?$allocator@UVertex@?$Diagram@N@mygal@@@std@@@std@@QEAA@XZ 000000014004de30 f i Main.obj
 0002:0001eeb0       ??0?$list@V?$shared_ptr@UFace@NewDiagram@Voronoi@@@std@@V?$allocator@V?$shared_ptr@UFace@NewDiagram@Voronoi@@@std@@@2@@std@@QEAA@XZ 000000014004deb0 f i Main.obj
 0002:0001ef30       ??0?$pair@VPoint2D@@N@std@@QEAA@$$QEAU01@@Z 000000014004df30 f i Main.obj
 0002:0001efc0       ??0?$pair@VPoint2D@@N@std@@QEAA@AEBU01@@Z 000000014004dfc0 f i Main.obj
 0002:0001f050       ??0?$shared_ptr@UFace@NewDiagram@Voronoi@@@std@@QEAA@$$QEAV01@@Z 000000014004e050 f i Main.obj
 0002:0001f0c0       ??0?$shared_ptr@UFace@NewDiagram@Voronoi@@@std@@QEAA@AEBV01@@Z 000000014004e0c0 f i Main.obj
 0002:0001f130       ??0?$shared_ptr@UFace@NewDiagram@Voronoi@@@std@@QEAA@XZ 000000014004e130 f i Main.obj
 0002:0001f180       ??0?$shared_ptr@UHalfEdge@NewDiagram@Voronoi@@@std@@QEAA@$$T@Z 000000014004e180 f i Main.obj
 0002:0001f1e0       ??0?$shared_ptr@UHalfEdge@NewDiagram@Voronoi@@@std@@QEAA@AEBV01@@Z 000000014004e1e0 f i Main.obj
 0002:0001f250       ??0?$shared_ptr@UHalfEdge@NewDiagram@Voronoi@@@std@@QEAA@XZ 000000014004e250 f i Main.obj
 0002:0001f2a0       ??0?$shared_ptr@USite@NewDiagram@Voronoi@@@std@@QEAA@$$QEAV01@@Z 000000014004e2a0 f i Main.obj
 0002:0001f310       ??0?$shared_ptr@USite@NewDiagram@Voronoi@@@std@@QEAA@$$T@Z 000000014004e310 f i Main.obj
 0002:0001f370       ??0?$shared_ptr@USite@NewDiagram@Voronoi@@@std@@QEAA@AEBV01@@Z 000000014004e370 f i Main.obj
 0002:0001f3e0       ??0?$shared_ptr@USite@NewDiagram@Voronoi@@@std@@QEAA@XZ 000000014004e3e0 f i Main.obj
 0002:0001f430       ??0?$shared_ptr@UVertex@NewDiagram@Voronoi@@@std@@QEAA@$$QEAV01@@Z 000000014004e430 f i Main.obj
 0002:0001f4a0       ??0?$shared_ptr@UVertex@NewDiagram@Voronoi@@@std@@QEAA@$$T@Z 000000014004e4a0 f i Main.obj
 0002:0001f500       ??0?$shared_ptr@UVertex@NewDiagram@Voronoi@@@std@@QEAA@AEBV01@@Z 000000014004e500 f i Main.obj
 0002:0001f570       ??0?$shared_ptr@UVertex@NewDiagram@Voronoi@@@std@@QEAA@XZ 000000014004e570 f i Main.obj
 0002:0001f5c0       ??0?$tuple@$$V@std@@QEAA@AEBV01@@Z 000000014004e5c0 f i Main.obj
 0002:0001f610       ??0?$tuple@AEBQEAUFace@?$Diagram@N@mygal@@@std@@QEAA@$$QEAV01@@Z 000000014004e610 f i Main.obj
 0002:0001f690       ??0?$tuple@AEBQEAUHalfEdge@?$Diagram@N@mygal@@@std@@QEAA@$$QEAV01@@Z 000000014004e690 f i Main.obj
 0002:0001f710       ??0?$tuple@AEBQEAUVertex@?$Diagram@N@mygal@@@std@@QEAA@$$QEAV01@@Z 000000014004e710 f i Main.obj
 0002:0001f790       ??0?$unordered_map@PEAUFace@?$Diagram@N@mygal@@V?$shared_ptr@UFace@NewDiagram@Voronoi@@@std@@U?$hash@PEAUFace@?$Diagram@N@mygal@@@5@U?$equal_to@PEAUFace@?$Diagram@N@mygal@@@5@V?$allocator@U?$pair@QEAUFace@?$Diagram@N@mygal@@V?$shared_ptr@UFace@NewDiagram@Voronoi@@@std@@@std@@@5@@std@@QEAA@XZ 000000014004e790 f i Main.obj
 0002:0001f820       ??0?$unordered_map@PEAUHalfEdge@?$Diagram@N@mygal@@V?$shared_ptr@UHalfEdge@NewDiagram@Voronoi@@@std@@U?$hash@PEAUHalfEdge@?$Diagram@N@mygal@@@5@U?$equal_to@PEAUHalfEdge@?$Diagram@N@mygal@@@5@V?$allocator@U?$pair@QEAUHalfEdge@?$Diagram@N@mygal@@V?$shared_ptr@UHalfEdge@NewDiagram@Voronoi@@@std@@@std@@@5@@std@@QEAA@XZ 000000014004e820 f i Main.obj
 0002:0001f8b0       ??0?$unordered_map@PEAUVertex@?$Diagram@N@mygal@@V?$shared_ptr@UVertex@NewDiagram@Voronoi@@@std@@U?$hash@PEAUVertex@?$Diagram@N@mygal@@@5@U?$equal_to@PEAUVertex@?$Diagram@N@mygal@@@5@V?$allocator@U?$pair@QEAUVertex@?$Diagram@N@mygal@@V?$shared_ptr@UVertex@NewDiagram@Voronoi@@@std@@@std@@@5@@std@@QEAA@XZ 000000014004e8b0 f i Main.obj
 0002:0001f940       ??0?$vector@U?$pair@VPoint2D@@N@std@@V?$allocator@U?$pair@VPoint2D@@N@std@@@2@@std@@QEAA@XZ 000000014004e940 f i Main.obj
 0002:0001f9f0       ??0?$vector@UFace@?$Diagram@N@mygal@@V?$allocator@UFace@?$Diagram@N@mygal@@@std@@@std@@QEAA@$$QEAV01@@Z 000000014004e9f0 f i Main.obj
 0002:0001fbd0       ??0?$vector@UFace@?$Diagram@N@mygal@@V?$allocator@UFace@?$Diagram@N@mygal@@@std@@@std@@QEAA@XZ 000000014004ebd0 f i Main.obj
 0002:0001fc80       ??0?$vector@USite@?$Diagram@N@mygal@@V?$allocator@USite@?$Diagram@N@mygal@@@std@@@std@@QEAA@$$QEAV01@@Z 000000014004ec80 f i Main.obj
 0002:0001fe60       ??0?$vector@USite@?$Diagram@N@mygal@@V?$allocator@USite@?$Diagram@N@mygal@@@std@@@std@@QEAA@XZ 000000014004ee60 f i Main.obj
 0002:0001ff10       ??0?$vector@V?$Vector2@N@mygal@@V?$allocator@V?$Vector2@N@mygal@@@std@@@std@@QEAA@AEBV01@@Z 000000014004ef10 f i Main.obj
 0002:00020030       ??0?$vector@V?$Vector2@N@mygal@@V?$allocator@V?$Vector2@N@mygal@@@std@@@std@@QEAA@XZ 000000014004f030 f i Main.obj
 0002:000200e0       ??0?$vector@V?$shared_ptr@USite@NewDiagram@Voronoi@@@std@@V?$allocator@V?$shared_ptr@USite@NewDiagram@Voronoi@@@std@@@2@@std@@QEAA@XZ 000000014004f0e0 f i Main.obj
 0002:00020190       ??0?$vector@V?$shared_ptr@USite@NewDiagram@Voronoi@@@std@@V?$allocator@V?$shared_ptr@USite@NewDiagram@Voronoi@@@std@@@2@@std@@QEAA@_KAEBV?$allocator@V?$shared_ptr@USite@NewDiagram@Voronoi@@@std@@@1@@Z 000000014004f190 f i Main.obj
 0002:00020230       ??0?$vector@V?$unique_ptr@V?$Event@N@mygal@@U?$default_delete@V?$Event@N@mygal@@@std@@@std@@V?$allocator@V?$unique_ptr@V?$Event@N@mygal@@U?$default_delete@V?$Event@N@mygal@@@std@@@std@@@2@@std@@QEAA@XZ 000000014004f230 f i Main.obj
 0002:000202e0       ??0?$vector@VCircleShape@sf@@V?$allocator@VCircleShape@sf@@@std@@@std@@QEAA@XZ 000000014004f2e0 f i Main.obj
 0002:00020390       ??0ContextSettings@sf@@QEAA@IIIIII_N@Z 000000014004f390 f i Main.obj
 0002:00020470       ??0Face@NewDiagram@Voronoi@@QEAA@XZ 000000014004f470 f i Main.obj
 0002:00020540       ??0HalfEdge@?$Diagram@N@mygal@@QEAA@XZ 000000014004f540 f i Main.obj
 0002:000205f0       ??0HalfEdge@NewDiagram@Voronoi@@QEAA@XZ 000000014004f5f0 f i Main.obj
 0002:00020720       ??0NewDiagram@Voronoi@@QEAA@AEBV?$vector@U?$pair@VPoint2D@@N@std@@V?$allocator@U?$pair@VPoint2D@@N@std@@@2@@std@@N@Z 000000014004f720 f i Main.obj
 0002:00020940       ??0Site@NewDiagram@Voronoi@@QEAA@HVPoint2D@@N@Z 000000014004f940 f i Main.obj
 0002:000209f0       ??0Vertex@?$Diagram@N@mygal@@QEAA@XZ 000000014004f9f0 f i Main.obj
 0002:00020a60       ??0Vertex@NewDiagram@Voronoi@@QEAA@XZ 000000014004fa60 f i Main.obj
 0002:00020ae0       ??0_Basic_container_proxy_ptr12@std@@IEAA@XZ 000000014004fae0 f i Main.obj
 0002:00020b30       ??0_Bxty@?$_String_val@U?$_Simple_types@D@std@@@std@@QEAA@XZ 000000014004fb30 f i Main.obj
 0002:00020b90       ??0_Clear_guard@?$_Hash@V?$_Umap_traits@PEAUFace@?$Diagram@N@mygal@@V?$shared_ptr@UFace@NewDiagram@Voronoi@@@std@@V?$_Uhash_compare@PEAUFace@?$Diagram@N@mygal@@U?$hash@PEAUFace@?$Diagram@N@mygal@@@std@@U?$equal_to@PEAUFace@?$Diagram@N@mygal@@@5@@5@V?$allocator@U?$pair@QEAUFace@?$Diagram@N@mygal@@V?$shared_ptr@UFace@NewDiagram@Voronoi@@@std@@@std@@@5@$0A@@std@@@std@@QEAA@QEAV12@@Z 000000014004fb90 f i Main.obj
 0002:00020bf0       ??0_Clear_guard@?$_Hash@V?$_Umap_traits@PEAUHalfEdge@?$Diagram@N@mygal@@V?$shared_ptr@UHalfEdge@NewDiagram@Voronoi@@@std@@V?$_Uhash_compare@PEAUHalfEdge@?$Diagram@N@mygal@@U?$hash@PEAUHalfEdge@?$Diagram@N@mygal@@@std@@U?$equal_to@PEAUHalfEdge@?$Diagram@N@mygal@@@5@@5@V?$allocator@U?$pair@QEAUHalfEdge@?$Diagram@N@mygal@@V?$shared_ptr@UHalfEdge@NewDiagram@Voronoi@@@std@@@std@@@5@$0A@@std@@@std@@QEAA@QEAV12@@Z 000000014004fbf0 f i Main.obj
 0002:00020c50       ??0_Clear_guard@?$_Hash@V?$_Umap_traits@PEAUVertex@?$Diagram@N@mygal@@V?$shared_ptr@UVertex@NewDiagram@Voronoi@@@std@@V?$_Uhash_compare@PEAUVertex@?$Diagram@N@mygal@@U?$hash@PEAUVertex@?$Diagram@N@mygal@@@std@@U?$equal_to@PEAUVertex@?$Diagram@N@mygal@@@5@@5@V?$allocator@U?$pair@QEAUVertex@?$Diagram@N@mygal@@V?$shared_ptr@UVertex@NewDiagram@Voronoi@@@std@@@std@@@5@$0A@@std@@@std@@QEAA@QEAV12@@Z 000000014004fc50 f i Main.obj
 0002:00020cb0       ??0_Container_base12@std@@QEAA@XZ 000000014004fcb0 f i Main.obj
 0002:00020d00       ??0_Container_proxy@std@@QEAA@PEAU_Container_base12@1@@Z 000000014004fd00 f i Main.obj
 0002:00020d70       ??0_Iterator_base12@std@@QEAA@AEBU01@@Z 000000014004fd70 f i Main.obj
 0002:00020df0       ??0_Iterator_base12@std@@QEAA@XZ 000000014004fdf0 f i Main.obj
 0002:00020e60       ??0_Range_eraser@?$_Hash@V?$_Umap_traits@PEAUFace@?$Diagram@N@mygal@@V?$shared_ptr@UFace@NewDiagram@Voronoi@@@std@@V?$_Uhash_compare@PEAUFace@?$Diagram@N@mygal@@U?$hash@PEAUFace@?$Diagram@N@mygal@@@std@@U?$equal_to@PEAUFace@?$Diagram@N@mygal@@@5@@5@V?$allocator@U?$pair@QEAUFace@?$Diagram@N@mygal@@V?$shared_ptr@UFace@NewDiagram@Voronoi@@@std@@@std@@@5@$0A@@std@@@std@@QEAA@AEAV?$list@U?$pair@QEAUFace@?$Diagram@N@mygal@@V?$shared_ptr@UFace@NewDiagram@Voronoi@@@std@@@std@@V?$allocator@U?$pair@QEAUFace@?$Diagram@N@mygal@@V?$shared_ptr@UFace@NewDiagram@Voronoi@@@std@@@std@@@2@@2@QEAU?$_List_node@U?$pair@QEAUFace@?$Diagram@N@mygal@@V?$shared_ptr@UFace@NewDiagram@Voronoi@@@std@@@std@@PEAX@2@@Z 000000014004fe60 f i Main.obj
 0002:00020ef0       ??0_Range_eraser@?$_Hash@V?$_Umap_traits@PEAUHalfEdge@?$Diagram@N@mygal@@V?$shared_ptr@UHalfEdge@NewDiagram@Voronoi@@@std@@V?$_Uhash_compare@PEAUHalfEdge@?$Diagram@N@mygal@@U?$hash@PEAUHalfEdge@?$Diagram@N@mygal@@@std@@U?$equal_to@PEAUHalfEdge@?$Diagram@N@mygal@@@5@@5@V?$allocator@U?$pair@QEAUHalfEdge@?$Diagram@N@mygal@@V?$shared_ptr@UHalfEdge@NewDiagram@Voronoi@@@std@@@std@@@5@$0A@@std@@@std@@QEAA@AEAV?$list@U?$pair@QEAUHalfEdge@?$Diagram@N@mygal@@V?$shared_ptr@UHalfEdge@NewDiagram@Voronoi@@@std@@@std@@V?$allocator@U?$pair@QEAUHalfEdge@?$Diagram@N@mygal@@V?$shared_ptr@UHalfEdge@NewDiagram@Voronoi@@@std@@@std@@@2@@2@QEAU?$_List_node@U?$pair@QEAUHalfEdge@?$Diagram@N@mygal@@V?$shared_ptr@UHalfEdge@NewDiagram@Voronoi@@@std@@@std@@PEAX@2@@Z 000000014004fef0 f i Main.obj
 0002:00020f80       ??0_Range_eraser@?$_Hash@V?$_Umap_traits@PEAUVertex@?$Diagram@N@mygal@@V?$shared_ptr@UVertex@NewDiagram@Voronoi@@@std@@V?$_Uhash_compare@PEAUVertex@?$Diagram@N@mygal@@U?$hash@PEAUVertex@?$Diagram@N@mygal@@@std@@U?$equal_to@PEAUVertex@?$Diagram@N@mygal@@@5@@5@V?$allocator@U?$pair@QEAUVertex@?$Diagram@N@mygal@@V?$shared_ptr@UVertex@NewDiagram@Voronoi@@@std@@@std@@@5@$0A@@std@@@std@@QEAA@AEAV?$list@U?$pair@QEAUVertex@?$Diagram@N@mygal@@V?$shared_ptr@UVertex@NewDiagram@Voronoi@@@std@@@std@@V?$allocator@U?$pair@QEAUVertex@?$Diagram@N@mygal@@V?$shared_ptr@UVertex@NewDiagram@Voronoi@@@std@@@std@@@2@@2@QEAU?$_List_node@U?$pair@QEAUVertex@?$Diagram@N@mygal@@V?$shared_ptr@UVertex@NewDiagram@Voronoi@@@std@@@std@@PEAX@2@@Z 000000014004ff80 f i Main.obj
 0002:00021010       ??0_Ref_count_base@std@@IEAA@XZ 0000000140050010 f i Main.obj
 0002:00021070       ??0_Sentry_base@?$basic_ostream@DU?$char_traits@D@std@@@std@@QEAA@AEAV12@@Z 0000000140050070 f i Main.obj
 0002:00021130       ??0bad_alloc@std@@AEAA@QEBD@Z 0000000140050130 f i Main.obj
 0002:000211b0       ??0bad_alloc@std@@QEAA@AEBV01@@Z 00000001400501b0 f i Main.obj
 0002:00021220       ??0bad_array_new_length@std@@QEAA@AEBV01@@Z 0000000140050220 f i Main.obj
 0002:00021290       ??0bad_array_new_length@std@@QEAA@XZ 0000000140050290 f i Main.obj
 0002:00021300       ??0bad_cast@std@@QEAA@AEBV01@@Z 0000000140050300 f i Main.obj
 0002:00021370       ??0bad_cast@std@@QEAA@XZ   0000000140050370 f i Main.obj
 0002:000213f0       ??0exception@std@@QEAA@AEBV01@@Z 00000001400503f0 f i Main.obj
 0002:00021490       ??0exception@std@@QEAA@QEBDH@Z 0000000140050490 f i Main.obj
 0002:00021530       ??0locale@std@@QEAA@XZ     0000000140050530 f i Main.obj
 0002:00021590       ??0sentry@?$basic_ostream@DU?$char_traits@D@std@@@std@@QEAA@AEAV12@@Z 0000000140050590 f i Main.obj
 0002:000216e0       ??1?$Beachline@N@mygal@@QEAA@XZ 00000001400506e0 f i Main.obj
 0002:00021760       ??1?$Diagram@N@mygal@@QEAA@XZ 0000000140050760 f i Main.obj
 0002:000217e0       ??1?$FortuneAlgorithm@N@mygal@@QEAA@XZ 00000001400507e0 f i Main.obj
 0002:00021850       ??1?$PriorityQueue@V?$Event@N@mygal@@@mygal@@QEAA@XZ 0000000140050850 f i Main.obj
 0002:00021890       ??1?$_Alloc_construct_ptr@V?$allocator@U?$_List_node@U?$pair@QEAUFace@?$Diagram@N@mygal@@V?$shared_ptr@UFace@NewDiagram@Voronoi@@@std@@@std@@PEAX@std@@@std@@@std@@QEAA@XZ 0000000140050890 f i Main.obj
 0002:00021910       ??1?$_Alloc_construct_ptr@V?$allocator@U?$_List_node@U?$pair@QEAUHalfEdge@?$Diagram@N@mygal@@V?$shared_ptr@UHalfEdge@NewDiagram@Voronoi@@@std@@@std@@PEAX@std@@@std@@@std@@QEAA@XZ 0000000140050910 f i Main.obj
 0002:00021990       ??1?$_Alloc_construct_ptr@V?$allocator@U?$_List_node@U?$pair@QEAUVertex@?$Diagram@N@mygal@@V?$shared_ptr@UVertex@NewDiagram@Voronoi@@@std@@@std@@PEAX@std@@@std@@@std@@QEAA@XZ 0000000140050990 f i Main.obj
 0002:00021a10       ??1?$_Alloc_construct_ptr@V?$allocator@U?$_List_node@UHalfEdge@?$Diagram@N@mygal@@PEAX@std@@@std@@@std@@QEAA@XZ 0000000140050a10 f i Main.obj
 0002:00021a90       ??1?$_Alloc_construct_ptr@V?$allocator@U?$_List_node@UVertex@?$Diagram@N@mygal@@PEAX@std@@@std@@@std@@QEAA@XZ 0000000140050a90 f i Main.obj
 0002:00021b10       ??1?$_Alloc_construct_ptr@V?$allocator@U?$_List_node@V?$shared_ptr@UFace@NewDiagram@Voronoi@@@std@@PEAX@std@@@std@@@std@@QEAA@XZ 0000000140050b10 f i Main.obj
 0002:00021b90       ??1?$_Compressed_pair@V?$allocator@D@std@@V?$_String_val@U?$_Simple_types@D@std@@@2@$00@std@@QEAA@XZ 0000000140050b90 f i Main.obj
 0002:00021bd0       ??1?$_Container_proxy_ptr12@V?$allocator@U_Container_proxy@std@@@std@@@std@@QEAA@XZ 0000000140050bd0 f i Main.obj
 0002:00021c40       ??1?$_Hash@V?$_Umap_traits@PEAUFace@?$Diagram@N@mygal@@V?$shared_ptr@UFace@NewDiagram@Voronoi@@@std@@V?$_Uhash_compare@PEAUFace@?$Diagram@N@mygal@@U?$hash@PEAUFace@?$Diagram@N@mygal@@@std@@U?$equal_to@PEAUFace@?$Diagram@N@mygal@@@5@@5@V?$allocator@U?$pair@QEAUFace@?$Diagram@N@mygal@@V?$shared_ptr@UFace@NewDiagram@Voronoi@@@std@@@std@@@5@$0A@@std@@@std@@QEAA@XZ 0000000140050c40 f i Main.obj
 0002:00021ca0       ??1?$_Hash@V?$_Umap_traits@PEAUHalfEdge@?$Diagram@N@mygal@@V?$shared_ptr@UHalfEdge@NewDiagram@Voronoi@@@std@@V?$_Uhash_compare@PEAUHalfEdge@?$Diagram@N@mygal@@U?$hash@PEAUHalfEdge@?$Diagram@N@mygal@@@std@@U?$equal_to@PEAUHalfEdge@?$Diagram@N@mygal@@@5@@5@V?$allocator@U?$pair@QEAUHalfEdge@?$Diagram@N@mygal@@V?$shared_ptr@UHalfEdge@NewDiagram@Voronoi@@@std@@@std@@@5@$0A@@std@@@std@@QEAA@XZ 0000000140050ca0 f i Main.obj
 0002:00021d00       ??1?$_Hash@V?$_Umap_traits@PEAUVertex@?$Diagram@N@mygal@@V?$shared_ptr@UVertex@NewDiagram@Voronoi@@@std@@V?$_Uhash_compare@PEAUVertex@?$Diagram@N@mygal@@U?$hash@PEAUVertex@?$Diagram@N@mygal@@@std@@U?$equal_to@PEAUVertex@?$Diagram@N@mygal@@@5@@5@V?$allocator@U?$pair@QEAUVertex@?$Diagram@N@mygal@@V?$shared_ptr@UVertex@NewDiagram@Voronoi@@@std@@@std@@@5@$0A@@std@@@std@@QEAA@XZ 0000000140050d00 f i Main.obj
 0002:00021d60       ??1?$_Hash_vec@V?$allocator@V?$_List_unchecked_iterator@V?$_List_val@U?$_List_simple_types@U?$pair@QEAUFace@?$Diagram@N@mygal@@V?$shared_ptr@UFace@NewDiagram@Voronoi@@@std@@@std@@@std@@@std@@@std@@@std@@@std@@QEAA@XZ 0000000140050d60 f i Main.obj
 0002:00021e70       ??1?$_Hash_vec@V?$allocator@V?$_List_unchecked_iterator@V?$_List_val@U?$_List_simple_types@U?$pair@QEAUHalfEdge@?$Diagram@N@mygal@@V?$shared_ptr@UHalfEdge@NewDiagram@Voronoi@@@std@@@std@@@std@@@std@@@std@@@std@@@std@@QEAA@XZ 0000000140050e70 f i Main.obj
 0002:00021f80       ??1?$_Hash_vec@V?$allocator@V?$_List_unchecked_iterator@V?$_List_val@U?$_List_simple_types@U?$pair@QEAUVertex@?$Diagram@N@mygal@@V?$shared_ptr@UVertex@NewDiagram@Voronoi@@@std@@@std@@@std@@@std@@@std@@@std@@@std@@QEAA@XZ 0000000140050f80 f i Main.obj
 0002:00022090       ??1?$_List_const_iterator@V?$_List_val@U?$_List_simple_types@U?$pair@QEAUFace@?$Diagram@N@mygal@@V?$shared_ptr@UFace@NewDiagram@Voronoi@@@std@@@std@@@std@@@std@@@std@@QEAA@XZ 0000000140051090 f i Main.obj
 0002:000220d0       ??1?$_List_const_iterator@V?$_List_val@U?$_List_simple_types@U?$pair@QEAUHalfEdge@?$Diagram@N@mygal@@V?$shared_ptr@UHalfEdge@NewDiagram@Voronoi@@@std@@@std@@@std@@@std@@@std@@QEAA@XZ 00000001400510d0 f i Main.obj
 0002:00022110       ??1?$_List_const_iterator@V?$_List_val@U?$_List_simple_types@U?$pair@QEAUVertex@?$Diagram@N@mygal@@V?$shared_ptr@UVertex@NewDiagram@Voronoi@@@std@@@std@@@std@@@std@@@std@@QEAA@XZ 0000000140051110 f i Main.obj
 0002:00022150       ??1?$_List_const_iterator@V?$_List_val@U?$_List_simple_types@UFace@NewDiagram@Voronoi@@@std@@@std@@@std@@QEAA@XZ 0000000140051150 f i Main.obj
 0002:00022190       ??1?$_List_const_iterator@V?$_List_val@U?$_List_simple_types@UHalfEdge@?$Diagram@N@mygal@@@std@@@std@@@std@@QEAA@XZ 0000000140051190 f i Main.obj
 0002:000221d0       ??1?$_List_const_iterator@V?$_List_val@U?$_List_simple_types@UHalfEdge@NewDiagram@Voronoi@@@std@@@std@@@std@@QEAA@XZ 00000001400511d0 f i Main.obj
 0002:00022210       ??1?$_List_const_iterator@V?$_List_val@U?$_List_simple_types@UVertex@?$Diagram@N@mygal@@@std@@@std@@@std@@QEAA@XZ 0000000140051210 f i Main.obj
 0002:00022250       ??1?$_List_iterator@V?$_List_val@U?$_List_simple_types@U?$pair@QEAUFace@?$Diagram@N@mygal@@V?$shared_ptr@UFace@NewDiagram@Voronoi@@@std@@@std@@@std@@@std@@@std@@QEAA@XZ 0000000140051250 f i Main.obj
 0002:00022290       ??1?$_List_iterator@V?$_List_val@U?$_List_simple_types@U?$pair@QEAUHalfEdge@?$Diagram@N@mygal@@V?$shared_ptr@UHalfEdge@NewDiagram@Voronoi@@@std@@@std@@@std@@@std@@@std@@QEAA@XZ 0000000140051290 f i Main.obj
 0002:000222d0       ??1?$_List_iterator@V?$_List_val@U?$_List_simple_types@U?$pair@QEAUVertex@?$Diagram@N@mygal@@V?$shared_ptr@UVertex@NewDiagram@Voronoi@@@std@@@std@@@std@@@std@@@std@@QEAA@XZ 00000001400512d0 f i Main.obj
 0002:00022310       ??1?$_List_iterator@V?$_List_val@U?$_List_simple_types@UFace@NewDiagram@Voronoi@@@std@@@std@@@std@@QEAA@XZ 0000000140051310 f i Main.obj
 0002:00022350       ??1?$_List_iterator@V?$_List_val@U?$_List_simple_types@UHalfEdge@?$Diagram@N@mygal@@@std@@@std@@@std@@QEAA@XZ 0000000140051350 f i Main.obj
 0002:00022390       ??1?$_List_iterator@V?$_List_val@U?$_List_simple_types@UHalfEdge@NewDiagram@Voronoi@@@std@@@std@@@std@@QEAA@XZ 0000000140051390 f i Main.obj
 0002:000223d0       ??1?$_List_iterator@V?$_List_val@U?$_List_simple_types@UVertex@?$Diagram@N@mygal@@@std@@@std@@@std@@QEAA@XZ 00000001400513d0 f i Main.obj
 0002:00022410       ??1?$_List_node_emplace_op2@V?$allocator@U?$_List_node@U?$pair@QEAUFace@?$Diagram@N@mygal@@V?$shared_ptr@UFace@NewDiagram@Voronoi@@@std@@@std@@PEAX@std@@@std@@@std@@QEAA@XZ 0000000140051410 f i Main.obj
 0002:000224c0       ??1?$_List_node_emplace_op2@V?$allocator@U?$_List_node@U?$pair@QEAUHalfEdge@?$Diagram@N@mygal@@V?$shared_ptr@UHalfEdge@NewDiagram@Voronoi@@@std@@@std@@PEAX@std@@@std@@@std@@QEAA@XZ 00000001400514c0 f i Main.obj
 0002:00022570       ??1?$_List_node_emplace_op2@V?$allocator@U?$_List_node@U?$pair@QEAUVertex@?$Diagram@N@mygal@@V?$shared_ptr@UVertex@NewDiagram@Voronoi@@@std@@@std@@PEAX@std@@@std@@@std@@QEAA@XZ 0000000140051570 f i Main.obj
 0002:00022620       ??1?$_List_node_emplace_op2@V?$allocator@U?$_List_node@UHalfEdge@?$Diagram@N@mygal@@PEAX@std@@@std@@@std@@QEAA@XZ 0000000140051620 f i Main.obj
 0002:000226d0       ??1?$_List_node_emplace_op2@V?$allocator@U?$_List_node@UVertex@?$Diagram@N@mygal@@PEAX@std@@@std@@@std@@QEAA@XZ 00000001400516d0 f i Main.obj
 0002:00022780       ??1?$_List_node_emplace_op2@V?$allocator@U?$_List_node@V?$shared_ptr@UFace@NewDiagram@Voronoi@@@std@@PEAX@std@@@std@@@std@@QEAA@XZ 0000000140051780 f i Main.obj
 0002:00022830       ??1?$_List_unchecked_const_iterator@V?$_List_val@U?$_List_simple_types@U?$pair@QEAUFace@?$Diagram@N@mygal@@V?$shared_ptr@UFace@NewDiagram@Voronoi@@@std@@@std@@@std@@@std@@U_Iterator_base12@2@@std@@QEAA@XZ 0000000140051830 f i Main.obj
 0002:00022870       ??1?$_List_unchecked_const_iterator@V?$_List_val@U?$_List_simple_types@U?$pair@QEAUHalfEdge@?$Diagram@N@mygal@@V?$shared_ptr@UHalfEdge@NewDiagram@Voronoi@@@std@@@std@@@std@@@std@@U_Iterator_base12@2@@std@@QEAA@XZ 0000000140051870 f i Main.obj
 0002:000228b0       ??1?$_List_unchecked_const_iterator@V?$_List_val@U?$_List_simple_types@U?$pair@QEAUVertex@?$Diagram@N@mygal@@V?$shared_ptr@UVertex@NewDiagram@Voronoi@@@std@@@std@@@std@@@std@@U_Iterator_base12@2@@std@@QEAA@XZ 00000001400518b0 f i Main.obj
 0002:000228f0       ??1?$_List_unchecked_const_iterator@V?$_List_val@U?$_List_simple_types@UFace@NewDiagram@Voronoi@@@std@@@std@@U_Iterator_base12@2@@std@@QEAA@XZ 00000001400518f0 f i Main.obj
 0002:00022930       ??1?$_List_unchecked_const_iterator@V?$_List_val@U?$_List_simple_types@UHalfEdge@?$Diagram@N@mygal@@@std@@@std@@U_Iterator_base12@2@@std@@QEAA@XZ 0000000140051930 f i Main.obj
 0002:00022970       ??1?$_List_unchecked_const_iterator@V?$_List_val@U?$_List_simple_types@UHalfEdge@NewDiagram@Voronoi@@@std@@@std@@U_Iterator_base12@2@@std@@QEAA@XZ 0000000140051970 f i Main.obj
 0002:000229b0       ??1?$_List_unchecked_const_iterator@V?$_List_val@U?$_List_simple_types@UVertex@?$Diagram@N@mygal@@@std@@@std@@U_Iterator_base12@2@@std@@QEAA@XZ 00000001400519b0 f i Main.obj
 0002:000229f0       ??1?$_Ref_count_obj2@UFace@NewDiagram@Voronoi@@@std@@UEAA@XZ 00000001400519f0 f i Main.obj
 0002:00022a50       ??1?$_Ref_count_obj2@UHalfEdge@NewDiagram@Voronoi@@@std@@UEAA@XZ 0000000140051a50 f i Main.obj
 0002:00022ab0       ??1?$_Ref_count_obj2@USite@NewDiagram@Voronoi@@@std@@UEAA@XZ 0000000140051ab0 f i Main.obj
 0002:00022b10       ??1?$_Ref_count_obj2@UVertex@NewDiagram@Voronoi@@@std@@UEAA@XZ 0000000140051b10 f i Main.obj
 0002:00022b70       ??1?$_String_val@U?$_Simple_types@D@std@@@std@@QEAA@XZ 0000000140051b70 f i Main.obj
 0002:00022bb0       ??1?$_Tidy_guard@V?$vector@V?$Vector2@N@mygal@@V?$allocator@V?$Vector2@N@mygal@@@std@@@std@@@std@@QEAA@XZ 0000000140051bb0 f i Main.obj
 0002:00022c10       ??1?$_Tidy_guard@V?$vector@V?$shared_ptr@USite@NewDiagram@Voronoi@@@std@@V?$allocator@V?$shared_ptr@USite@NewDiagram@Voronoi@@@std@@@2@@std@@@std@@QEAA@XZ 0000000140051c10 f i Main.obj
 0002:00022c70       ??1?$_Uninitialized_backout@PEAV?$_List_unchecked_iterator@V?$_List_val@U?$_List_simple_types@U?$pair@QEAUFace@?$Diagram@N@mygal@@V?$shared_ptr@UFace@NewDiagram@Voronoi@@@std@@@std@@@std@@@std@@@std@@@std@@QEAA@XZ 0000000140051c70 f i Main.obj
 0002:00022cd0       ??1?$_Uninitialized_backout@PEAV?$_List_unchecked_iterator@V?$_List_val@U?$_List_simple_types@U?$pair@QEAUHalfEdge@?$Diagram@N@mygal@@V?$shared_ptr@UHalfEdge@NewDiagram@Voronoi@@@std@@@std@@@std@@@std@@@std@@@std@@QEAA@XZ 0000000140051cd0 f i Main.obj
 0002:00022d30       ??1?$_Uninitialized_backout@PEAV?$_List_unchecked_iterator@V?$_List_val@U?$_List_simple_types@U?$pair@QEAUVertex@?$Diagram@N@mygal@@V?$shared_ptr@UVertex@NewDiagram@Voronoi@@@std@@@std@@@std@@@std@@@std@@@std@@QEAA@XZ 0000000140051d30 f i Main.obj
 0002:00022d90       ??1?$_Uninitialized_backout_al@V?$allocator@U?$pair@VPoint2D@@N@std@@@std@@@std@@QEAA@XZ 0000000140051d90 f i Main.obj
 0002:00022e00       ??1?$_Uninitialized_backout_al@V?$allocator@UFace@?$Diagram@N@mygal@@@std@@@std@@QEAA@XZ 0000000140051e00 f i Main.obj
 0002:00022e70       ??1?$_Uninitialized_backout_al@V?$allocator@USite@?$Diagram@N@mygal@@@std@@@std@@QEAA@XZ 0000000140051e70 f i Main.obj
 0002:00022ee0       ??1?$_Uninitialized_backout_al@V?$allocator@V?$Vector2@N@mygal@@@std@@@std@@QEAA@XZ 0000000140051ee0 f i Main.obj
 0002:00022f50       ??1?$_Uninitialized_backout_al@V?$allocator@V?$shared_ptr@USite@NewDiagram@Voronoi@@@std@@@std@@@std@@QEAA@XZ 0000000140051f50 f i Main.obj
 0002:00022fc0       ??1?$_Uninitialized_backout_al@V?$allocator@V?$unique_ptr@V?$Event@N@mygal@@U?$default_delete@V?$Event@N@mygal@@@std@@@std@@@std@@@std@@QEAA@XZ 0000000140051fc0 f i Main.obj
 0002:00023030       ??1?$_Uninitialized_backout_al@V?$allocator@VCircleShape@sf@@@std@@@std@@QEAA@XZ 0000000140052030 f i Main.obj
 0002:000230a0       ??1?$basic_filebuf@DU?$char_traits@D@std@@@std@@UEAA@XZ 00000001400520a0 f i Main.obj
 0002:00023150       ??1?$basic_ifstream@DU?$char_traits@D@std@@@std@@UEAA@XZ 0000000140052150 f i Main.obj
 0002:00023240       ??1?$basic_string@DU?$char_traits@D@std@@V?$allocator@D@2@@std@@QEAA@XZ 0000000140052240 f i Main.obj
 0002:00023350       ??1?$list@U?$pair@QEAUFace@?$Diagram@N@mygal@@V?$shared_ptr@UFace@NewDiagram@Voronoi@@@std@@@std@@V?$allocator@U?$pair@QEAUFace@?$Diagram@N@mygal@@V?$shared_ptr@UFace@NewDiagram@Voronoi@@@std@@@std@@@2@@std@@QEAA@XZ 0000000140052350 f i Main.obj
 0002:00023440       ??1?$list@U?$pair@QEAUHalfEdge@?$Diagram@N@mygal@@V?$shared_ptr@UHalfEdge@NewDiagram@Voronoi@@@std@@@std@@V?$allocator@U?$pair@QEAUHalfEdge@?$Diagram@N@mygal@@V?$shared_ptr@UHalfEdge@NewDiagram@Voronoi@@@std@@@std@@@2@@std@@QEAA@XZ 0000000140052440 f i Main.obj
 0002:00023530       ??1?$list@U?$pair@QEAUVertex@?$Diagram@N@mygal@@V?$shared_ptr@UVertex@NewDiagram@Voronoi@@@std@@@std@@V?$allocator@U?$pair@QEAUVertex@?$Diagram@N@mygal@@V?$shared_ptr@UVertex@NewDiagram@Voronoi@@@std@@@std@@@2@@std@@QEAA@XZ 0000000140052530 f i Main.obj
 0002:00023620       ??1?$list@UHalfEdge@?$Diagram@N@mygal@@V?$allocator@UHalfEdge@?$Diagram@N@mygal@@@std@@@std@@QEAA@XZ 0000000140052620 f i Main.obj
 0002:00023710       ??1?$list@UVertex@?$Diagram@N@mygal@@V?$allocator@UVertex@?$Diagram@N@mygal@@@std@@@std@@QEAA@XZ 0000000140052710 f i Main.obj
 0002:00023800       ??1?$list@V?$shared_ptr@UFace@NewDiagram@Voronoi@@@std@@V?$allocator@V?$shared_ptr@UFace@NewDiagram@Voronoi@@@std@@@2@@std@@QEAA@XZ 0000000140052800 f i Main.obj
 0002:000238f0       ??1?$pair@QEAUFace@?$Diagram@N@mygal@@V?$shared_ptr@UFace@NewDiagram@Voronoi@@@std@@@std@@QEAA@XZ 00000001400528f0 f i Main.obj
 0002:00023930       ??1?$pair@QEAUHalfEdge@?$Diagram@N@mygal@@V?$shared_ptr@UHalfEdge@NewDiagram@Voronoi@@@std@@@std@@QEAA@XZ 0000000140052930 f i Main.obj
 0002:00023970       ??1?$pair@QEAUVertex@?$Diagram@N@mygal@@V?$shared_ptr@UVertex@NewDiagram@Voronoi@@@std@@@std@@QEAA@XZ 0000000140052970 f i Main.obj
 0002:000239b0       ??1?$shared_ptr@UFace@NewDiagram@Voronoi@@@std@@QEAA@XZ 00000001400529b0 f i Main.obj
 0002:00023a00       ??1?$shared_ptr@UHalfEdge@NewDiagram@Voronoi@@@std@@QEAA@XZ 0000000140052a00 f i Main.obj
 0002:00023a50       ??1?$shared_ptr@USite@NewDiagram@Voronoi@@@std@@QEAA@XZ 0000000140052a50 f i Main.obj
 0002:00023aa0       ??1?$shared_ptr@UVertex@NewDiagram@Voronoi@@@std@@QEAA@XZ 0000000140052aa0 f i Main.obj
 0002:00023af0       ??1?$unique_ptr@V?$Event@N@mygal@@U?$default_delete@V?$Event@N@mygal@@@std@@@std@@QEAA@XZ 0000000140052af0 f i Main.obj
 0002:00023b80       ??1?$unique_ptr@V_Facet_base@std@@U?$default_delete@V_Facet_base@std@@@2@@std@@QEAA@XZ 0000000140052b80 f i Main.obj
 0002:00023c10       ??1?$unordered_map@PEAUFace@?$Diagram@N@mygal@@V?$shared_ptr@UFace@NewDiagram@Voronoi@@@std@@U?$hash@PEAUFace@?$Diagram@N@mygal@@@5@U?$equal_to@PEAUFace@?$Diagram@N@mygal@@@5@V?$allocator@U?$pair@QEAUFace@?$Diagram@N@mygal@@V?$shared_ptr@UFace@NewDiagram@Voronoi@@@std@@@std@@@5@@std@@QEAA@XZ 0000000140052c10 f i Main.obj
 0002:00023c50       ??1?$unordered_map@PEAUHalfEdge@?$Diagram@N@mygal@@V?$shared_ptr@UHalfEdge@NewDiagram@Voronoi@@@std@@U?$hash@PEAUHalfEdge@?$Diagram@N@mygal@@@5@U?$equal_to@PEAUHalfEdge@?$Diagram@N@mygal@@@5@V?$allocator@U?$pair@QEAUHalfEdge@?$Diagram@N@mygal@@V?$shared_ptr@UHalfEdge@NewDiagram@Voronoi@@@std@@@std@@@5@@std@@QEAA@XZ 0000000140052c50 f i Main.obj
 0002:00023c90       ??1?$unordered_map@PEAUVertex@?$Diagram@N@mygal@@V?$shared_ptr@UVertex@NewDiagram@Voronoi@@@std@@U?$hash@PEAUVertex@?$Diagram@N@mygal@@@5@U?$equal_to@PEAUVertex@?$Diagram@N@mygal@@@5@V?$allocator@U?$pair@QEAUVertex@?$Diagram@N@mygal@@V?$shared_ptr@UVertex@NewDiagram@Voronoi@@@std@@@std@@@5@@std@@QEAA@XZ 0000000140052c90 f i Main.obj
 0002:00023cd0       ??1?$vector@U?$pair@VPoint2D@@N@std@@V?$allocator@U?$pair@VPoint2D@@N@std@@@2@@std@@QEAA@XZ 0000000140052cd0 f i Main.obj
 0002:00023de0       ??1?$vector@UFace@?$Diagram@N@mygal@@V?$allocator@UFace@?$Diagram@N@mygal@@@std@@@std@@QEAA@XZ 0000000140052de0 f i Main.obj
 0002:00023ef0       ??1?$vector@USite@?$Diagram@N@mygal@@V?$allocator@USite@?$Diagram@N@mygal@@@std@@@std@@QEAA@XZ 0000000140052ef0 f i Main.obj
 0002:00024000       ??1?$vector@V?$Vector2@N@mygal@@V?$allocator@V?$Vector2@N@mygal@@@std@@@std@@QEAA@XZ 0000000140053000 f i Main.obj
 0002:00024110       ??1?$vector@V?$shared_ptr@USite@NewDiagram@Voronoi@@@std@@V?$allocator@V?$shared_ptr@USite@NewDiagram@Voronoi@@@std@@@2@@std@@QEAA@XZ 0000000140053110 f i Main.obj
 0002:00024220       ??1?$vector@V?$unique_ptr@V?$Event@N@mygal@@U?$default_delete@V?$Event@N@mygal@@@std@@@std@@V?$allocator@V?$unique_ptr@V?$Event@N@mygal@@U?$default_delete@V?$Event@N@mygal@@@std@@@std@@@2@@std@@QEAA@XZ 0000000140053220 f i Main.obj
 0002:00024330       ??1?$vector@VCircleShape@sf@@V?$allocator@VCircleShape@sf@@@std@@@std@@QEAA@XZ 0000000140053330 f i Main.obj
 0002:00024440       ??1Face@NewDiagram@Voronoi@@QEAA@XZ 0000000140053440 f i Main.obj
 0002:000244c0       ??1HalfEdge@?$Diagram@N@mygal@@QEAA@XZ 00000001400534c0 f i Main.obj
 0002:00024500       ??1HalfEdge@NewDiagram@Voronoi@@QEAA@XZ 0000000140053500 f i Main.obj
 0002:000245d0       ??1NewDiagram@Voronoi@@QEAA@XZ 00000001400535d0 f i Main.obj
 0002:00024620       ??1Vertex@?$Diagram@N@mygal@@QEAA@XZ 0000000140053620 f i Main.obj
 0002:00024660       ??1Vertex@NewDiagram@Voronoi@@QEAA@XZ 0000000140053660 f i Main.obj
 0002:000246a0       ??1_Bxty@?$_String_val@U?$_Simple_types@D@std@@@std@@QEAA@XZ 00000001400536a0 f i Main.obj
 0002:000246e0       ??1_Clear_guard@?$_Hash@V?$_Umap_traits@PEAUFace@?$Diagram@N@mygal@@V?$shared_ptr@UFace@NewDiagram@Voronoi@@@std@@V?$_Uhash_compare@PEAUFace@?$Diagram@N@mygal@@U?$hash@PEAUFace@?$Diagram@N@mygal@@@std@@U?$equal_to@PEAUFace@?$Diagram@N@mygal@@@5@@5@V?$allocator@U?$pair@QEAUFace@?$Diagram@N@mygal@@V?$shared_ptr@UFace@NewDiagram@Voronoi@@@std@@@std@@@5@$0A@@std@@@std@@QEAA@XZ 00000001400536e0 f i Main.obj
 0002:00024740       ??1_Clear_guard@?$_Hash@V?$_Umap_traits@PEAUHalfEdge@?$Diagram@N@mygal@@V?$shared_ptr@UHalfEdge@NewDiagram@Voronoi@@@std@@V?$_Uhash_compare@PEAUHalfEdge@?$Diagram@N@mygal@@U?$hash@PEAUHalfEdge@?$Diagram@N@mygal@@@std@@U?$equal_to@PEAUHalfEdge@?$Diagram@N@mygal@@@5@@5@V?$allocator@U?$pair@QEAUHalfEdge@?$Diagram@N@mygal@@V?$shared_ptr@UHalfEdge@NewDiagram@Voronoi@@@std@@@std@@@5@$0A@@std@@@std@@QEAA@XZ 0000000140053740 f i Main.obj
 0002:000247a0       ??1_Clear_guard@?$_Hash@V?$_Umap_traits@PEAUVertex@?$Diagram@N@mygal@@V?$shared_ptr@UVertex@NewDiagram@Voronoi@@@std@@V?$_Uhash_compare@PEAUVertex@?$Diagram@N@mygal@@U?$hash@PEAUVertex@?$Diagram@N@mygal@@@std@@U?$equal_to@PEAUVertex@?$Diagram@N@mygal@@@5@@5@V?$allocator@U?$pair@QEAUVertex@?$Diagram@N@mygal@@V?$shared_ptr@UVertex@NewDiagram@Voronoi@@@std@@@std@@@5@$0A@@std@@@std@@QEAA@XZ 00000001400537a0 f i Main.obj
 0002:00024800       ??1_Iterator_base12@std@@QEAA@XZ 0000000140053800 f i Main.obj
 0002:00024850       ??1_Range_eraser@?$_Hash@V?$_Umap_traits@PEAUFace@?$Diagram@N@mygal@@V?$shared_ptr@UFace@NewDiagram@Voronoi@@@std@@V?$_Uhash_compare@PEAUFace@?$Diagram@N@mygal@@U?$hash@PEAUFace@?$Diagram@N@mygal@@@std@@U?$equal_to@PEAUFace@?$Diagram@N@mygal@@@5@@5@V?$allocator@U?$pair@QEAUFace@?$Diagram@N@mygal@@V?$shared_ptr@UFace@NewDiagram@Voronoi@@@std@@@std@@@5@$0A@@std@@@std@@QEAA@XZ 0000000140053850 f i Main.obj
 0002:000248d0       ??1_Range_eraser@?$_Hash@V?$_Umap_traits@PEAUHalfEdge@?$Diagram@N@mygal@@V?$shared_ptr@UHalfEdge@NewDiagram@Voronoi@@@std@@V?$_Uhash_compare@PEAUHalfEdge@?$Diagram@N@mygal@@U?$hash@PEAUHalfEdge@?$Diagram@N@mygal@@@std@@U?$equal_to@PEAUHalfEdge@?$Diagram@N@mygal@@@5@@5@V?$allocator@U?$pair@QEAUHalfEdge@?$Diagram@N@mygal@@V?$shared_ptr@UHalfEdge@NewDiagram@Voronoi@@@std@@@std@@@5@$0A@@std@@@std@@QEAA@XZ 00000001400538d0 f i Main.obj
 0002:00024950       ??1_Range_eraser@?$_Hash@V?$_Umap_traits@PEAUVertex@?$Diagram@N@mygal@@V?$shared_ptr@UVertex@NewDiagram@Voronoi@@@std@@V?$_Uhash_compare@PEAUVertex@?$Diagram@N@mygal@@U?$hash@PEAUVertex@?$Diagram@N@mygal@@@std@@U?$equal_to@PEAUVertex@?$Diagram@N@mygal@@@5@@5@V?$allocator@U?$pair@QEAUVertex@?$Diagram@N@mygal@@V?$shared_ptr@UVertex@NewDiagram@Voronoi@@@std@@@std@@@5@$0A@@std@@@std@@QEAA@XZ 0000000140053950 f i Main.obj
 0002:000249d0       ??1_Ref_count_base@std@@UEAA@XZ 00000001400539d0 f i Main.obj
 0002:00024a10       ??1_Sentry_base@?$basic_ostream@DU?$char_traits@D@std@@@std@@QEAA@XZ 0000000140053a10 f i Main.obj
 0002:00024ab0       ??1bad_alloc@std@@UEAA@XZ  0000000140053ab0 f i Main.obj
 0002:00024af0       ??1bad_array_new_length@std@@UEAA@XZ 0000000140053af0 f i Main.obj
 0002:00024b30       ??1bad_cast@std@@UEAA@XZ   0000000140053b30 f i Main.obj
 0002:00024b70       ??1exception@std@@UEAA@XZ  0000000140053b70 f i Main.obj
 0002:00024be0       ??1locale@std@@QEAA@XZ     0000000140053be0 f i Main.obj
 0002:00024cb0       ??1sentry@?$basic_ostream@DU?$char_traits@D@std@@@std@@QEAA@XZ 0000000140053cb0 f i Main.obj
 0002:00024d50       ??2@YAPEAX_KPEAX@Z         0000000140053d50 f i Main.obj
 0002:00024da0       ??4?$_List_const_iterator@V?$_List_val@U?$_List_simple_types@UHalfEdge@?$Diagram@N@mygal@@@std@@@std@@@std@@QEAAAEAV01@$$QEAV01@@Z 0000000140053da0 f i Main.obj
 0002:00024df0       ??4?$_List_const_iterator@V?$_List_val@U?$_List_simple_types@UVertex@?$Diagram@N@mygal@@@std@@@std@@@std@@QEAAAEAV01@$$QEAV01@@Z 0000000140053df0 f i Main.obj
 0002:00024e40       ??4?$_List_iterator@V?$_List_val@U?$_List_simple_types@UHalfEdge@?$Diagram@N@mygal@@@std@@@std@@@std@@QEAAAEAV01@$$QEAV01@@Z 0000000140053e40 f i Main.obj
 0002:00024e90       ??4?$_List_iterator@V?$_List_val@U?$_List_simple_types@UVertex@?$Diagram@N@mygal@@@std@@@std@@@std@@QEAAAEAV01@$$QEAV01@@Z 0000000140053e90 f i Main.obj
 0002:00024ee0       ??4?$_List_unchecked_const_iterator@V?$_List_val@U?$_List_simple_types@UHalfEdge@?$Diagram@N@mygal@@@std@@@std@@U_Iterator_base12@2@@std@@QEAAAEAV01@$$QEAV01@@Z 0000000140053ee0 f i Main.obj
 0002:00024f50       ??4?$_List_unchecked_const_iterator@V?$_List_val@U?$_List_simple_types@UVertex@?$Diagram@N@mygal@@@std@@@std@@U_Iterator_base12@2@@std@@QEAAAEAV01@$$QEAV01@@Z 0000000140053f50 f i Main.obj
 0002:00024fc0       ??4?$shared_ptr@UFace@NewDiagram@Voronoi@@@std@@QEAAAEAV01@AEBV01@@Z 0000000140053fc0 f i Main.obj
 0002:00025050       ??4?$shared_ptr@UHalfEdge@NewDiagram@Voronoi@@@std@@QEAAAEAV01@AEBV01@@Z 0000000140054050 f i Main.obj
 0002:000250e0       ??4?$shared_ptr@USite@NewDiagram@Voronoi@@@std@@QEAAAEAV01@$$QEAV01@@Z 00000001400540e0 f i Main.obj
 0002:00025170       ??4?$shared_ptr@USite@NewDiagram@Voronoi@@@std@@QEAAAEAV01@AEBV01@@Z 0000000140054170 f i Main.obj
 0002:00025200       ??4?$shared_ptr@UVertex@NewDiagram@Voronoi@@@std@@QEAAAEAV01@$$QEAV01@@Z 0000000140054200 f i Main.obj
 0002:00025290       ??4?$shared_ptr@UVertex@NewDiagram@Voronoi@@@std@@QEAAAEAV01@AEBV01@@Z 0000000140054290 f i Main.obj
 0002:00025320       ??4?$vector@V?$shared_ptr@USite@NewDiagram@Voronoi@@@std@@V?$allocator@V?$shared_ptr@USite@NewDiagram@Voronoi@@@std@@@2@@std@@QEAAAEAV01@AEBV01@@Z 0000000140054320 f i Main.obj
 0002:00025410       ??4?$vector@V?$shared_ptr@USite@NewDiagram@Voronoi@@@std@@V?$allocator@V?$shared_ptr@USite@NewDiagram@Voronoi@@@std@@@2@@std@@QEAAAEAV01@V?$initializer_list@V?$shared_ptr@USite@NewDiagram@Voronoi@@@std@@@1@@Z 0000000140054410 f i Main.obj
 0002:000254a0       ??4_Iterator_base12@std@@QEAAAEAU01@AEBU01@@Z 00000001400544a0 f i Main.obj
 0002:00025500       ??8?$_List_const_iterator@V?$_List_val@U?$_List_simple_types@U?$pair@QEAUFace@?$Diagram@N@mygal@@V?$shared_ptr@UFace@NewDiagram@Voronoi@@@std@@@std@@@std@@@std@@@std@@QEBA_NAEBV01@@Z 0000000140054500 f i Main.obj
 0002:00025650       ??8?$_List_const_iterator@V?$_List_val@U?$_List_simple_types@U?$pair@QEAUHalfEdge@?$Diagram@N@mygal@@V?$shared_ptr@UHalfEdge@NewDiagram@Voronoi@@@std@@@std@@@std@@@std@@@std@@QEBA_NAEBV01@@Z 0000000140054650 f i Main.obj
 0002:000257a0       ??8?$_List_const_iterator@V?$_List_val@U?$_List_simple_types@U?$pair@QEAUVertex@?$Diagram@N@mygal@@V?$shared_ptr@UVertex@NewDiagram@Voronoi@@@std@@@std@@@std@@@std@@@std@@QEBA_NAEBV01@@Z 00000001400547a0 f i Main.obj
 0002:000258f0       ??8?$_List_unchecked_const_iterator@V?$_List_val@U?$_List_simple_types@U?$pair@QEAUFace@?$Diagram@N@mygal@@V?$shared_ptr@UFace@NewDiagram@Voronoi@@@std@@@std@@@std@@@std@@U_Iterator_base0@2@@std@@QEBA_NAEBV01@@Z 00000001400548f0 f i Main.obj
 0002:00025970       ??8?$_List_unchecked_const_iterator@V?$_List_val@U?$_List_simple_types@U?$pair@QEAUHalfEdge@?$Diagram@N@mygal@@V?$shared_ptr@UHalfEdge@NewDiagram@Voronoi@@@std@@@std@@@std@@@std@@U_Iterator_base0@2@@std@@QEBA_NAEBV01@@Z 0000000140054970 f i Main.obj
 0002:000259f0       ??8?$_List_unchecked_const_iterator@V?$_List_val@U?$_List_simple_types@U?$pair@QEAUVertex@?$Diagram@N@mygal@@V?$shared_ptr@UVertex@NewDiagram@Voronoi@@@std@@@std@@@std@@@std@@U_Iterator_base0@2@@std@@QEBA_NAEBV01@@Z 00000001400549f0 f i Main.obj
 0002:00025a70       ??8?$_List_unchecked_const_iterator@V?$_List_val@U?$_List_simple_types@UHalfEdge@?$Diagram@N@mygal@@@std@@@std@@U_Iterator_base0@2@@std@@QEBA_NAEBV01@@Z 0000000140054a70 f i Main.obj
 0002:00025af0       ??8?$_List_unchecked_const_iterator@V?$_List_val@U?$_List_simple_types@V?$shared_ptr@UFace@NewDiagram@Voronoi@@@std@@@std@@@std@@U_Iterator_base0@2@@std@@QEBA_NAEBV01@@Z 0000000140054af0 f i Main.obj
 0002:00025b70       ??9?$_List_unchecked_const_iterator@V?$_List_val@U?$_List_simple_types@U?$pair@QEAUFace@?$Diagram@N@mygal@@V?$shared_ptr@UFace@NewDiagram@Voronoi@@@std@@@std@@@std@@@std@@U_Iterator_base0@2@@std@@QEBA_NAEBV01@@Z 0000000140054b70 f i Main.obj
 0002:00025bf0       ??9?$_List_unchecked_const_iterator@V?$_List_val@U?$_List_simple_types@U?$pair@QEAUHalfEdge@?$Diagram@N@mygal@@V?$shared_ptr@UHalfEdge@NewDiagram@Voronoi@@@std@@@std@@@std@@@std@@U_Iterator_base0@2@@std@@QEBA_NAEBV01@@Z 0000000140054bf0 f i Main.obj
 0002:00025c70       ??9?$_List_unchecked_const_iterator@V?$_List_val@U?$_List_simple_types@U?$pair@QEAUVertex@?$Diagram@N@mygal@@V?$shared_ptr@UVertex@NewDiagram@Voronoi@@@std@@@std@@@std@@@std@@U_Iterator_base0@2@@std@@QEBA_NAEBV01@@Z 0000000140054c70 f i Main.obj
 0002:00025cf0       ??9?$_List_unchecked_const_iterator@V?$_List_val@U?$_List_simple_types@UHalfEdge@?$Diagram@N@mygal@@@std@@@std@@U_Iterator_base0@2@@std@@QEBA_NAEBV01@@Z 0000000140054cf0 f i Main.obj
 0002:00025d70       ??9?$_List_unchecked_const_iterator@V?$_List_val@U?$_List_simple_types@V?$shared_ptr@UFace@NewDiagram@Voronoi@@@std@@@std@@@std@@U_Iterator_base0@2@@std@@QEBA_NAEBV01@@Z 0000000140054d70 f i Main.obj
 0002:00025df0       ??A?$unordered_map@PEAUFace@?$Diagram@N@mygal@@V?$shared_ptr@UFace@NewDiagram@Voronoi@@@std@@U?$hash@PEAUFace@?$Diagram@N@mygal@@@5@U?$equal_to@PEAUFace@?$Diagram@N@mygal@@@5@V?$allocator@U?$pair@QEAUFace@?$Diagram@N@mygal@@V?$shared_ptr@UFace@NewDiagram@Voronoi@@@std@@@std@@@5@@std@@QEAAAEAV?$shared_ptr@UFace@NewDiagram@Voronoi@@@1@AEBQEAUFace@?$Diagram@N@mygal@@@Z 0000000140054df0 f i Main.obj
 0002:00025e60       ??A?$unordered_map@PEAUHalfEdge@?$Diagram@N@mygal@@V?$shared_ptr@UHalfEdge@NewDiagram@Voronoi@@@std@@U?$hash@PEAUHalfEdge@?$Diagram@N@mygal@@@5@U?$equal_to@PEAUHalfEdge@?$Diagram@N@mygal@@@5@V?$allocator@U?$pair@QEAUHalfEdge@?$Diagram@N@mygal@@V?$shared_ptr@UHalfEdge@NewDiagram@Voronoi@@@std@@@std@@@5@@std@@QEAAAEAV?$shared_ptr@UHalfEdge@NewDiagram@Voronoi@@@1@AEBQEAUHalfEdge@?$Diagram@N@mygal@@@Z 0000000140054e60 f i Main.obj
 0002:00025ed0       ??A?$unordered_map@PEAUVertex@?$Diagram@N@mygal@@V?$shared_ptr@UVertex@NewDiagram@Voronoi@@@std@@U?$hash@PEAUVertex@?$Diagram@N@mygal@@@5@U?$equal_to@PEAUVertex@?$Diagram@N@mygal@@@5@V?$allocator@U?$pair@QEAUVertex@?$Diagram@N@mygal@@V?$shared_ptr@UVertex@NewDiagram@Voronoi@@@std@@@std@@@5@@std@@QEAAAEAV?$shared_ptr@UVertex@NewDiagram@Voronoi@@@1@AEBQEAUVertex@?$Diagram@N@mygal@@@Z 0000000140054ed0 f i Main.obj
 0002:00025f40       ??A?$vector@U?$pair@VPoint2D@@N@std@@V?$allocator@U?$pair@VPoint2D@@N@std@@@2@@std@@QEAAAEAU?$pair@VPoint2D@@N@1@_K@Z 0000000140054f40 f i Main.obj
 0002:00026070       ??A?$vector@U?$pair@VPoint2D@@N@std@@V?$allocator@U?$pair@VPoint2D@@N@std@@@2@@std@@QEBAAEBU?$pair@VPoint2D@@N@1@_K@Z 0000000140055070 f i Main.obj
 0002:000261a0       ??A?$vector@USite@?$Diagram@N@mygal@@V?$allocator@USite@?$Diagram@N@mygal@@@std@@@std@@QEAAAEAUSite@?$Diagram@N@mygal@@_K@Z 00000001400551a0 f i Main.obj
 0002:000262c0       ??A?$vector@V?$Vector2@N@mygal@@V?$allocator@V?$Vector2@N@mygal@@@std@@@std@@QEBAAEBV?$Vector2@N@mygal@@_K@Z 00000001400552c0 f i Main.obj
 0002:000263e0       ??A?$vector@V?$shared_ptr@USite@NewDiagram@Voronoi@@@std@@V?$allocator@V?$shared_ptr@USite@NewDiagram@Voronoi@@@std@@@2@@std@@QEAAAEAV?$shared_ptr@USite@NewDiagram@Voronoi@@@1@_K@Z 00000001400553e0 f i Main.obj
 0002:00026500       ??A?$vector@V?$shared_ptr@USite@NewDiagram@Voronoi@@@std@@V?$allocator@V?$shared_ptr@USite@NewDiagram@Voronoi@@@std@@@2@@std@@QEBAAEBV?$shared_ptr@USite@NewDiagram@Voronoi@@@1@_K@Z 0000000140055500 f i Main.obj
 0002:00026620       ??A?$vector@V?$unique_ptr@V?$Event@N@mygal@@U?$default_delete@V?$Event@N@mygal@@@std@@@std@@V?$allocator@V?$unique_ptr@V?$Event@N@mygal@@U?$default_delete@V?$Event@N@mygal@@@std@@@std@@@2@@std@@QEAAAEAV?$unique_ptr@V?$Event@N@mygal@@U?$default_delete@V?$Event@N@mygal@@@std@@@1@_K@Z 0000000140055620 f i Main.obj
 0002:00026740       ??B?$fpos@U_Mbstatet@@@std@@QEBA_JXZ 0000000140055740 f i Main.obj
 0002:00026790       ??Bsentry@?$basic_ostream@DU?$char_traits@D@std@@@std@@QEBA_NXZ 0000000140055790 f i Main.obj
 0002:000267e0       ??C?$unique_ptr@V?$Event@N@mygal@@U?$default_delete@V?$Event@N@mygal@@@std@@@std@@QEBAPEAV?$Event@N@mygal@@XZ 00000001400557e0 f i Main.obj
 0002:00026830       ??D?$_List_unchecked_const_iterator@V?$_List_val@U?$_List_simple_types@U?$pair@QEAUFace@?$Diagram@N@mygal@@V?$shared_ptr@UFace@NewDiagram@Voronoi@@@std@@@std@@@std@@@std@@U_Iterator_base0@2@@std@@QEBAAEBU?$pair@QEAUFace@?$Diagram@N@mygal@@V?$shared_ptr@UFace@NewDiagram@Voronoi@@@std@@@1@XZ 0000000140055830 f i Main.obj
 0002:00026880       ??D?$_List_unchecked_const_iterator@V?$_List_val@U?$_List_simple_types@U?$pair@QEAUHalfEdge@?$Diagram@N@mygal@@V?$shared_ptr@UHalfEdge@NewDiagram@Voronoi@@@std@@@std@@@std@@@std@@U_Iterator_base0@2@@std@@QEBAAEBU?$pair@QEAUHalfEdge@?$Diagram@N@mygal@@V?$shared_ptr@UHalfEdge@NewDiagram@Voronoi@@@std@@@1@XZ 0000000140055880 f i Main.obj
 0002:000268d0       ??D?$_List_unchecked_const_iterator@V?$_List_val@U?$_List_simple_types@U?$pair@QEAUVertex@?$Diagram@N@mygal@@V?$shared_ptr@UVertex@NewDiagram@Voronoi@@@std@@@std@@@std@@@std@@U_Iterator_base0@2@@std@@QEBAAEBU?$pair@QEAUVertex@?$Diagram@N@mygal@@V?$shared_ptr@UVertex@NewDiagram@Voronoi@@@std@@@1@XZ 00000001400558d0 f i Main.obj
 0002:00026920       ??D?$_List_unchecked_const_iterator@V?$_List_val@U?$_List_simple_types@UHalfEdge@?$Diagram@N@mygal@@@std@@@std@@U_Iterator_base0@2@@std@@QEBAAEBUHalfEdge@?$Diagram@N@mygal@@XZ 0000000140055920 f i Main.obj
 0002:00026970       ??D?$_List_unchecked_const_iterator@V?$_List_val@U?$_List_simple_types@V?$shared_ptr@UFace@NewDiagram@Voronoi@@@std@@@std@@@std@@U_Iterator_base0@2@@std@@QEBAAEBV?$shared_ptr@UFace@NewDiagram@Voronoi@@@1@XZ 0000000140055970 f i Main.obj
 0002:000269c0       ??D?$_List_unchecked_iterator@V?$_List_val@U?$_List_simple_types@U?$pair@QEAUFace@?$Diagram@N@mygal@@V?$shared_ptr@UFace@NewDiagram@Voronoi@@@std@@@std@@@std@@@std@@@std@@QEBAAEAU?$pair@QEAUFace@?$Diagram@N@mygal@@V?$shared_ptr@UFace@NewDiagram@Voronoi@@@std@@@1@XZ 00000001400559c0 f i Main.obj
 0002:00026a10       ??D?$_List_unchecked_iterator@V?$_List_val@U?$_List_simple_types@U?$pair@QEAUHalfEdge@?$Diagram@N@mygal@@V?$shared_ptr@UHalfEdge@NewDiagram@Voronoi@@@std@@@std@@@std@@@std@@@std@@QEBAAEAU?$pair@QEAUHalfEdge@?$Diagram@N@mygal@@V?$shared_ptr@UHalfEdge@NewDiagram@Voronoi@@@std@@@1@XZ 0000000140055a10 f i Main.obj
 0002:00026a60       ??D?$_List_unchecked_iterator@V?$_List_val@U?$_List_simple_types@U?$pair@QEAUVertex@?$Diagram@N@mygal@@V?$shared_ptr@UVertex@NewDiagram@Voronoi@@@std@@@std@@@std@@@std@@@std@@QEBAAEAU?$pair@QEAUVertex@?$Diagram@N@mygal@@V?$shared_ptr@UVertex@NewDiagram@Voronoi@@@std@@@1@XZ 0000000140055a60 f i Main.obj
 0002:00026ab0       ??D?$_List_unchecked_iterator@V?$_List_val@U?$_List_simple_types@V?$shared_ptr@UFace@NewDiagram@Voronoi@@@std@@@std@@@std@@@std@@QEBAAEAV?$shared_ptr@UFace@NewDiagram@Voronoi@@@1@XZ 0000000140055ab0 f i Main.obj
 0002:00026b00       ??D?$unique_ptr@V?$Event@N@mygal@@U?$default_delete@V?$Event@N@mygal@@@std@@@std@@QEBAAEAV?$Event@N@mygal@@XZ 0000000140055b00 f i Main.obj
 0002:00026b50       ??E?$_List_const_iterator@V?$_List_val@U?$_List_simple_types@UHalfEdge@?$Diagram@N@mygal@@@std@@@std@@@std@@QEAAAEAV01@XZ 0000000140055b50 f i Main.obj
 0002:00026d10       ??E?$_List_const_iterator@V?$_List_val@U?$_List_simple_types@UVertex@?$Diagram@N@mygal@@@std@@@std@@@std@@QEAAAEAV01@XZ 0000000140055d10 f i Main.obj
 0002:00026ed0       ??E?$_List_iterator@V?$_List_val@U?$_List_simple_types@UHalfEdge@?$Diagram@N@mygal@@@std@@@std@@@std@@QEAAAEAV01@XZ 0000000140055ed0 f i Main.obj
 0002:00026f20       ??E?$_List_iterator@V?$_List_val@U?$_List_simple_types@UVertex@?$Diagram@N@mygal@@@std@@@std@@@std@@QEAAAEAV01@XZ 0000000140055f20 f i Main.obj
 0002:00026f70       ??E?$_List_unchecked_const_iterator@V?$_List_val@U?$_List_simple_types@U?$pair@QEAUFace@?$Diagram@N@mygal@@V?$shared_ptr@UFace@NewDiagram@Voronoi@@@std@@@std@@@std@@@std@@U_Iterator_base0@2@@std@@QEAAAEAV01@XZ 0000000140055f70 f i Main.obj
 0002:00026fd0       ??E?$_List_unchecked_const_iterator@V?$_List_val@U?$_List_simple_types@U?$pair@QEAUHalfEdge@?$Diagram@N@mygal@@V?$shared_ptr@UHalfEdge@NewDiagram@Voronoi@@@std@@@std@@@std@@@std@@U_Iterator_base0@2@@std@@QEAAAEAV01@XZ 0000000140055fd0 f i Main.obj
 0002:00027030       ??E?$_List_unchecked_const_iterator@V?$_List_val@U?$_List_simple_types@U?$pair@QEAUVertex@?$Diagram@N@mygal@@V?$shared_ptr@UVertex@NewDiagram@Voronoi@@@std@@@std@@@std@@@std@@U_Iterator_base0@2@@std@@QEAAAEAV01@XZ 0000000140056030 f i Main.obj
 0002:00027090       ??E?$_List_unchecked_const_iterator@V?$_List_val@U?$_List_simple_types@UHalfEdge@?$Diagram@N@mygal@@@std@@@std@@U_Iterator_base0@2@@std@@QEAAAEAV01@XZ 0000000140056090 f i Main.obj
 0002:000270f0       ??E?$_List_unchecked_const_iterator@V?$_List_val@U?$_List_simple_types@V?$shared_ptr@UFace@NewDiagram@Voronoi@@@std@@@std@@@std@@U_Iterator_base0@2@@std@@QEAAAEAV01@XZ 00000001400560f0 f i Main.obj
 0002:00027150       ??E?$_List_unchecked_iterator@V?$_List_val@U?$_List_simple_types@U?$pair@QEAUFace@?$Diagram@N@mygal@@V?$shared_ptr@UFace@NewDiagram@Voronoi@@@std@@@std@@@std@@@std@@@std@@QEAAAEAV01@XZ 0000000140056150 f i Main.obj
 0002:000271a0       ??E?$_List_unchecked_iterator@V?$_List_val@U?$_List_simple_types@U?$pair@QEAUHalfEdge@?$Diagram@N@mygal@@V?$shared_ptr@UHalfEdge@NewDiagram@Voronoi@@@std@@@std@@@std@@@std@@@std@@QEAAAEAV01@XZ 00000001400561a0 f i Main.obj
 0002:000271f0       ??E?$_List_unchecked_iterator@V?$_List_val@U?$_List_simple_types@U?$pair@QEAUVertex@?$Diagram@N@mygal@@V?$shared_ptr@UVertex@NewDiagram@Voronoi@@@std@@@std@@@std@@@std@@@std@@QEAAAEAV01@XZ 00000001400561f0 f i Main.obj
 0002:00027240       ??E?$_List_unchecked_iterator@V?$_List_val@U?$_List_simple_types@V?$shared_ptr@UFace@NewDiagram@Voronoi@@@std@@@std@@@std@@@std@@QEAAAEAV01@XZ 0000000140056240 f i Main.obj
 0002:00027290       ??F?$_List_const_iterator@V?$_List_val@U?$_List_simple_types@UHalfEdge@?$Diagram@N@mygal@@@std@@@std@@@std@@QEAAAEAV01@XZ 0000000140056290 f i Main.obj
 0002:00027450       ??F?$_List_const_iterator@V?$_List_val@U?$_List_simple_types@UVertex@?$Diagram@N@mygal@@@std@@@std@@@std@@QEAAAEAV01@XZ 0000000140056450 f i Main.obj
 0002:00027610       ??F?$_List_iterator@V?$_List_val@U?$_List_simple_types@UHalfEdge@?$Diagram@N@mygal@@@std@@@std@@@std@@QEAAAEAV01@XZ 0000000140056610 f i Main.obj
 0002:00027660       ??F?$_List_iterator@V?$_List_val@U?$_List_simple_types@UVertex@?$Diagram@N@mygal@@@std@@@std@@@std@@QEAAAEAV01@XZ 0000000140056660 f i Main.obj
 0002:000276b0       ??F?$_List_unchecked_const_iterator@V?$_List_val@U?$_List_simple_types@U?$pair@QEAUFace@?$Diagram@N@mygal@@V?$shared_ptr@UFace@NewDiagram@Voronoi@@@std@@@std@@@std@@@std@@U_Iterator_base0@2@@std@@QEAAAEAV01@XZ 00000001400566b0 f i Main.obj
 0002:00027710       ??F?$_List_unchecked_const_iterator@V?$_List_val@U?$_List_simple_types@U?$pair@QEAUHalfEdge@?$Diagram@N@mygal@@V?$shared_ptr@UHalfEdge@NewDiagram@Voronoi@@@std@@@std@@@std@@@std@@U_Iterator_base0@2@@std@@QEAAAEAV01@XZ 0000000140056710 f i Main.obj
 0002:00027770       ??F?$_List_unchecked_const_iterator@V?$_List_val@U?$_List_simple_types@U?$pair@QEAUVertex@?$Diagram@N@mygal@@V?$shared_ptr@UVertex@NewDiagram@Voronoi@@@std@@@std@@@std@@@std@@U_Iterator_base0@2@@std@@QEAAAEAV01@XZ 0000000140056770 f i Main.obj
 0002:000277d0       ??R<lambda_1>@?1??getNullVertex@Vertex@NewDiagram@Voronoi@@SA?AV?$shared_ptr@UVertex@NewDiagram@Voronoi@@@std@@XZ@QEBA@XZ 00000001400567d0 f i Main.obj
 0002:000278b0       ??R<lambda_1>@?1??push_back@?$basic_string@DU?$char_traits@D@std@@V?$allocator@D@2@@std@@QEAAXD@Z@QEBA@QEADQEBD_KD@Z 00000001400568b0 f i Main.obj
 0002:00027980       ??R?$_Conditionally_enabled_hash@PEAUFace@?$Diagram@N@mygal@@$00@std@@QEBA_KAEBQEAUFace@?$Diagram@N@mygal@@@Z 0000000140056980 f i Main.obj
 0002:000279d0       ??R?$_Conditionally_enabled_hash@PEAUHalfEdge@?$Diagram@N@mygal@@$00@std@@QEBA_KAEBQEAUHalfEdge@?$Diagram@N@mygal@@@Z 00000001400569d0 f i Main.obj
 0002:00027a20       ??R?$_Conditionally_enabled_hash@PEAUVertex@?$Diagram@N@mygal@@$00@std@@QEBA_KAEBQEAUVertex@?$Diagram@N@mygal@@@Z 0000000140056a20 f i Main.obj
 0002:00027a70       ??R?$default_delete@V?$Event@N@mygal@@@std@@QEBAXPEAV?$Event@N@mygal@@@Z 0000000140056a70 f i Main.obj
 0002:00027b10       ??R?$default_delete@V_Facet_base@std@@@std@@QEBAXPEAV_Facet_base@1@@Z 0000000140056b10 f i Main.obj
 0002:00027bc0       ??R?$equal_to@PEAUFace@?$Diagram@N@mygal@@@std@@QEBA_NAEBQEAUFace@?$Diagram@N@mygal@@0@Z 0000000140056bc0 f i Main.obj
 0002:00027c40       ??R?$equal_to@PEAUHalfEdge@?$Diagram@N@mygal@@@std@@QEBA_NAEBQEAUHalfEdge@?$Diagram@N@mygal@@0@Z 0000000140056c40 f i Main.obj
 0002:00027cc0       ??R?$equal_to@PEAUVertex@?$Diagram@N@mygal@@@std@@QEBA_NAEBQEAUVertex@?$Diagram@N@mygal@@0@Z 0000000140056cc0 f i Main.obj
 0002:00027d40       ??X?$Vector2@N@mygal@@QEAAAEAV01@N@Z 0000000140056d40 f i Main.obj
 0002:00027de0       ??Y?$Vector2@N@mygal@@QEAAAEAV01@AEBV01@@Z 0000000140056de0 f i Main.obj
 0002:00027e80       ??Z?$Vector2@N@mygal@@QEAAAEAV01@AEBV01@@Z 0000000140056e80 f i Main.obj
 0002:00027f20       ??_D?$basic_ifstream@DU?$char_traits@D@std@@@std@@QEAAXXZ 0000000140056f20 f i Main.obj
 0002:00027f7c       ??_E?$basic_ifstream@DU?$char_traits@D@std@@@std@@$4PPPPPPPM@A@EAAPEAXI@Z 0000000140056f7c f i Main.obj
 0002:00027f8c       ??_ECircleShape@sf@@W7EAAPEAXI@Z 0000000140056f8c f i Main.obj
 0002:00027fa0       ??_E?$_Ref_count_obj2@UFace@NewDiagram@Voronoi@@@std@@UEAAPEAXI@Z 0000000140056fa0 f i Main.obj
 0002:00027fa0       ??_G?$_Ref_count_obj2@UFace@NewDiagram@Voronoi@@@std@@UEAAPEAXI@Z 0000000140056fa0 f i Main.obj
 0002:00028010       ??_E?$_Ref_count_obj2@UHalfEdge@NewDiagram@Voronoi@@@std@@UEAAPEAXI@Z 0000000140057010 f i Main.obj
 0002:00028010       ??_G?$_Ref_count_obj2@UHalfEdge@NewDiagram@Voronoi@@@std@@UEAAPEAXI@Z 0000000140057010 f i Main.obj
 0002:00028080       ??_E?$_Ref_count_obj2@USite@NewDiagram@Voronoi@@@std@@UEAAPEAXI@Z 0000000140057080 f i Main.obj
 0002:00028080       ??_G?$_Ref_count_obj2@USite@NewDiagram@Voronoi@@@std@@UEAAPEAXI@Z 0000000140057080 f i Main.obj
 0002:000280f0       ??_E?$_Ref_count_obj2@UVertex@NewDiagram@Voronoi@@@std@@UEAAPEAXI@Z 00000001400570f0 f i Main.obj
 0002:000280f0       ??_G?$_Ref_count_obj2@UVertex@NewDiagram@Voronoi@@@std@@UEAAPEAXI@Z 00000001400570f0 f i Main.obj
 0002:00028160       ??_E?$basic_filebuf@DU?$char_traits@D@std@@@std@@UEAAPEAXI@Z 0000000140057160 f i Main.obj
 0002:00028160       ??_G?$basic_filebuf@DU?$char_traits@D@std@@@std@@UEAAPEAXI@Z 0000000140057160 f i Main.obj
 0002:000281d0       ??_E?$basic_ifstream@DU?$char_traits@D@std@@@std@@UEAAPEAXI@Z 00000001400571d0 f i Main.obj
 0002:000281d0       ??_G?$basic_ifstream@DU?$char_traits@D@std@@@std@@UEAAPEAXI@Z 00000001400571d0 f i Main.obj
 0002:00028260       ??_G?$pair@QEAUFace@?$Diagram@N@mygal@@V?$shared_ptr@UFace@NewDiagram@Voronoi@@@std@@@std@@QEAAPEAXI@Z 0000000140057260 f i Main.obj
 0002:000282d0       ??_G?$pair@QEAUHalfEdge@?$Diagram@N@mygal@@V?$shared_ptr@UHalfEdge@NewDiagram@Voronoi@@@std@@@std@@QEAAPEAXI@Z 00000001400572d0 f i Main.obj
 0002:00028340       ??_G?$pair@QEAUVertex@?$Diagram@N@mygal@@V?$shared_ptr@UVertex@NewDiagram@Voronoi@@@std@@@std@@QEAAPEAXI@Z 0000000140057340 f i Main.obj
 0002:000283b0       ??_G?$shared_ptr@UFace@NewDiagram@Voronoi@@@std@@QEAAPEAXI@Z 00000001400573b0 f i Main.obj
 0002:00028420       ??_G?$shared_ptr@USite@NewDiagram@Voronoi@@@std@@QEAAPEAXI@Z 0000000140057420 f i Main.obj
 0002:00028490       ??_G?$unique_ptr@V?$Event@N@mygal@@U?$default_delete@V?$Event@N@mygal@@@std@@@std@@QEAAPEAXI@Z 0000000140057490 f i Main.obj
 0002:00028500       ??_ECircleShape@sf@@UEAAPEAXI@Z 0000000140057500 f i Main.obj
 0002:00028500       ??_GCircleShape@sf@@UEAAPEAXI@Z 0000000140057500 f i Main.obj
 0002:00028570       ??_GFace@NewDiagram@Voronoi@@QEAAPEAXI@Z 0000000140057570 f i Main.obj
 0002:000285e0       ??_GHalfEdge@?$Diagram@N@mygal@@QEAAPEAXI@Z 00000001400575e0 f i Main.obj
 0002:00028650       ??_GHalfEdge@NewDiagram@Voronoi@@QEAAPEAXI@Z 0000000140057650 f i Main.obj
 0002:000286c0       ??_GVertex@?$Diagram@N@mygal@@QEAAPEAXI@Z 00000001400576c0 f i Main.obj
 0002:00028730       ??_GVertex@NewDiagram@Voronoi@@QEAAPEAXI@Z 0000000140057730 f i Main.obj
 0002:000287a0       ??_Ebad_alloc@std@@UEAAPEAXI@Z 00000001400577a0 f i Main.obj
 0002:000287a0       ??_Gbad_alloc@std@@UEAAPEAXI@Z 00000001400577a0 f i Main.obj
 0002:00028810       ??_Ebad_array_new_length@std@@UEAAPEAXI@Z 0000000140057810 f i Main.obj
 0002:00028810       ??_Gbad_array_new_length@std@@UEAAPEAXI@Z 0000000140057810 f i Main.obj
 0002:00028880       ??_Ebad_cast@std@@UEAAPEAXI@Z 0000000140057880 f i Main.obj
 0002:00028880       ??_Gbad_cast@std@@UEAAPEAXI@Z 0000000140057880 f i Main.obj
 0002:000288f0       ??_Eexception@std@@UEAAPEAXI@Z 00000001400578f0 f i Main.obj
 0002:000288f0       ??_Gexception@std@@UEAAPEAXI@Z 00000001400578f0 f i Main.obj
 0002:00028960       ?_Activate_SSO_buffer@?$_String_val@U?$_Simple_types@D@std@@@std@@QEAAXXZ 0000000140057960 f i Main.obj
 0002:000289a0       ?_Adjust_manually_vector_aligned@std@@YAXAEAPEAXAEA_K@Z 00000001400579a0 f i Main.obj
 0002:00028be0       ?_Adopt@_Iterator_base0@std@@QEAAXPEBX@Z 0000000140057be0 f i Main.obj
 0002:00028c20       ?_Adopt@_Iterator_base12@std@@QEAAXPEBU_Container_base12@2@@Z 0000000140057c20 f i Main.obj
 0002:00028c80       ?_Adopt_locked@_Iterator_base12@std@@AEAAXPEBU_Container_base12@2@@Z 0000000140057c80 f i Main.obj
 0002:00028d50       ?_Adopt_unlocked@_Iterator_base12@std@@AEAAXPEBU_Container_base12@2@@Z 0000000140057d50 f i Main.obj
 0002:00028e30       ?_Alloc_sentinel_and_proxy@?$list@U?$pair@QEAUFace@?$Diagram@N@mygal@@V?$shared_ptr@UFace@NewDiagram@Voronoi@@@std@@@std@@V?$allocator@U?$pair@QEAUFace@?$Diagram@N@mygal@@V?$shared_ptr@UFace@NewDiagram@Voronoi@@@std@@@std@@@2@@std@@AEAAXXZ 0000000140057e30 f i Main.obj
 0002:00028fb0       ?_Alloc_sentinel_and_proxy@?$list@U?$pair@QEAUHalfEdge@?$Diagram@N@mygal@@V?$shared_ptr@UHalfEdge@NewDiagram@Voronoi@@@std@@@std@@V?$allocator@U?$pair@QEAUHalfEdge@?$Diagram@N@mygal@@V?$shared_ptr@UHalfEdge@NewDiagram@Voronoi@@@std@@@std@@@2@@std@@AEAAXXZ 0000000140057fb0 f i Main.obj
 0002:00029130       ?_Alloc_sentinel_and_proxy@?$list@U?$pair@QEAUVertex@?$Diagram@N@mygal@@V?$shared_ptr@UVertex@NewDiagram@Voronoi@@@std@@@std@@V?$allocator@U?$pair@QEAUVertex@?$Diagram@N@mygal@@V?$shared_ptr@UVertex@NewDiagram@Voronoi@@@std@@@std@@@2@@std@@AEAAXXZ 0000000140058130 f i Main.obj
 0002:000292b0       ?_Alloc_sentinel_and_proxy@?$list@UHalfEdge@?$Diagram@N@mygal@@V?$allocator@UHalfEdge@?$Diagram@N@mygal@@@std@@@std@@AEAAXXZ 00000001400582b0 f i Main.obj
 0002:00029430       ?_Alloc_sentinel_and_proxy@?$list@UVertex@?$Diagram@N@mygal@@V?$allocator@UVertex@?$Diagram@N@mygal@@@std@@@std@@AEAAXXZ 0000000140058430 f i Main.obj
 0002:000295b0       ?_Alloc_sentinel_and_proxy@?$list@V?$shared_ptr@UFace@NewDiagram@Voronoi@@@std@@V?$allocator@V?$shared_ptr@UFace@NewDiagram@Voronoi@@@std@@@2@@std@@AEAAXXZ 00000001400585b0 f i Main.obj
 0002:00029730       ?_Allocate@?$_Alloc_construct_ptr@V?$allocator@U?$_List_node@U?$pair@QEAUFace@?$Diagram@N@mygal@@V?$shared_ptr@UFace@NewDiagram@Voronoi@@@std@@@std@@PEAX@std@@@std@@@std@@QEAAXXZ 0000000140058730 f i Main.obj
 0002:000297b0       ?_Allocate@?$_Alloc_construct_ptr@V?$allocator@U?$_List_node@U?$pair@QEAUHalfEdge@?$Diagram@N@mygal@@V?$shared_ptr@UHalfEdge@NewDiagram@Voronoi@@@std@@@std@@PEAX@std@@@std@@@std@@QEAAXXZ 00000001400587b0 f i Main.obj
 0002:00029830       ?_Allocate@?$_Alloc_construct_ptr@V?$allocator@U?$_List_node@U?$pair@QEAUVertex@?$Diagram@N@mygal@@V?$shared_ptr@UVertex@NewDiagram@Voronoi@@@std@@@std@@PEAX@std@@@std@@@std@@QEAAXXZ 0000000140058830 f i Main.obj
 0002:000298b0       ?_Allocate@?$_Alloc_construct_ptr@V?$allocator@U?$_List_node@UHalfEdge@?$Diagram@N@mygal@@PEAX@std@@@std@@@std@@QEAAXXZ 00000001400588b0 f i Main.obj
 0002:00029930       ?_Allocate@?$_Alloc_construct_ptr@V?$allocator@U?$_List_node@UVertex@?$Diagram@N@mygal@@PEAX@std@@@std@@@std@@QEAAXXZ 0000000140058930 f i Main.obj
 0002:000299b0       ?_Allocate@?$_Alloc_construct_ptr@V?$allocator@U?$_List_node@V?$shared_ptr@UFace@NewDiagram@Voronoi@@@std@@PEAX@std@@@std@@@std@@QEAAXXZ 00000001400589b0 f i Main.obj
 0002:00029a30       ?_Allocate@_Default_allocate_traits@std@@SAPEAX_K@Z 0000000140058a30 f i Main.obj
 0002:00029a80       ?_Assign_grow@?$_Hash_vec@V?$allocator@V?$_List_unchecked_iterator@V?$_List_val@U?$_List_simple_types@U?$pair@QEAUFace@?$Diagram@N@mygal@@V?$shared_ptr@UFace@NewDiagram@Voronoi@@@std@@@std@@@std@@@std@@@std@@@std@@@std@@QEAAX_KV?$_List_unchecked_iterator@V?$_List_val@U?$_List_simple_types@U?$pair@QEAUFace@?$Diagram@N@mygal@@V?$shared_ptr@UFace@NewDiagram@Voronoi@@@std@@@std@@@std@@@std@@@2@@Z 0000000140058a80 f i Main.obj
 0002:00029c30       ?_Assign_grow@?$_Hash_vec@V?$allocator@V?$_List_unchecked_iterator@V?$_List_val@U?$_List_simple_types@U?$pair@QEAUHalfEdge@?$Diagram@N@mygal@@V?$shared_ptr@UHalfEdge@NewDiagram@Voronoi@@@std@@@std@@@std@@@std@@@std@@@std@@@std@@QEAAX_KV?$_List_unchecked_iterator@V?$_List_val@U?$_List_simple_types@U?$pair@QEAUHalfEdge@?$Diagram@N@mygal@@V?$shared_ptr@UHalfEdge@NewDiagram@Voronoi@@@std@@@std@@@std@@@std@@@2@@Z 0000000140058c30 f i Main.obj
 0002:00029de0       ?_Assign_grow@?$_Hash_vec@V?$allocator@V?$_List_unchecked_iterator@V?$_List_val@U?$_List_simple_types@U?$pair@QEAUVertex@?$Diagram@N@mygal@@V?$shared_ptr@UVertex@NewDiagram@Voronoi@@@std@@@std@@@std@@@std@@@std@@@std@@@std@@QEAAX_KV?$_List_unchecked_iterator@V?$_List_val@U?$_List_simple_types@U?$pair@QEAUVertex@?$Diagram@N@mygal@@V?$shared_ptr@UVertex@NewDiagram@Voronoi@@@std@@@std@@@std@@@std@@@2@@Z 0000000140058de0 f i Main.obj
 0002:00029f90       ?_Assign_locked@_Iterator_base12@std@@AEAAXAEBU12@@Z 0000000140058f90 f i Main.obj
 0002:0002a060       ?_Assign_unlocked@_Iterator_base12@std@@AEAAXAEBU12@@Z 0000000140059060 f i Main.obj
 0002:0002a100       ?_Bump_erased@_Range_eraser@?$_Hash@V?$_Umap_traits@PEAUFace@?$Diagram@N@mygal@@V?$shared_ptr@UFace@NewDiagram@Voronoi@@@std@@V?$_Uhash_compare@PEAUFace@?$Diagram@N@mygal@@U?$hash@PEAUFace@?$Diagram@N@mygal@@@std@@U?$equal_to@PEAUFace@?$Diagram@N@mygal@@@5@@5@V?$allocator@U?$pair@QEAUFace@?$Diagram@N@mygal@@V?$shared_ptr@UFace@NewDiagram@Voronoi@@@std@@@std@@@5@$0A@@std@@@std@@QEAAXXZ 0000000140059100 f i Main.obj
 0002:0002a160       ?_Bump_erased@_Range_eraser@?$_Hash@V?$_Umap_traits@PEAUHalfEdge@?$Diagram@N@mygal@@V?$shared_ptr@UHalfEdge@NewDiagram@Voronoi@@@std@@V?$_Uhash_compare@PEAUHalfEdge@?$Diagram@N@mygal@@U?$hash@PEAUHalfEdge@?$Diagram@N@mygal@@@std@@U?$equal_to@PEAUHalfEdge@?$Diagram@N@mygal@@@5@@5@V?$allocator@U?$pair@QEAUHalfEdge@?$Diagram@N@mygal@@V?$shared_ptr@UHalfEdge@NewDiagram@Voronoi@@@std@@@std@@@5@$0A@@std@@@std@@QEAAXXZ 0000000140059160 f i Main.obj
 0002:0002a1c0       ?_Bump_erased@_Range_eraser@?$_Hash@V?$_Umap_traits@PEAUVertex@?$Diagram@N@mygal@@V?$shared_ptr@UVertex@NewDiagram@Voronoi@@@std@@V?$_Uhash_compare@PEAUVertex@?$Diagram@N@mygal@@U?$hash@PEAUVertex@?$Diagram@N@mygal@@@std@@U?$equal_to@PEAUVertex@?$Diagram@N@mygal@@@5@@5@V?$allocator@U?$pair@QEAUVertex@?$Diagram@N@mygal@@V?$shared_ptr@UVertex@NewDiagram@Voronoi@@@std@@@std@@@5@$0A@@std@@@std@@QEAAXXZ 00000001400591c0 f i Main.obj
 0002:0002a220       ?_Buy_nonzero@?$vector@V?$Vector2@N@mygal@@V?$allocator@V?$Vector2@N@mygal@@@std@@@std@@AEAAX_K@Z 0000000140059220 f i Main.obj
 0002:0002a2a0       ?_Buy_nonzero@?$vector@V?$shared_ptr@USite@NewDiagram@Voronoi@@@std@@V?$allocator@V?$shared_ptr@USite@NewDiagram@Voronoi@@@std@@@2@@std@@AEAAX_K@Z 00000001400592a0 f i Main.obj
 0002:0002a320       ?_Buy_raw@?$vector@V?$Vector2@N@mygal@@V?$allocator@V?$Vector2@N@mygal@@@std@@@std@@AEAAX_K@Z 0000000140059320 f i Main.obj
 0002:0002a410       ?_Buy_raw@?$vector@V?$shared_ptr@USite@NewDiagram@Voronoi@@@std@@V?$allocator@V?$shared_ptr@USite@NewDiagram@Voronoi@@@std@@@2@@std@@AEAAX_K@Z 0000000140059410 f i Main.obj
 0002:0002a500       ?_Calculate_growth@?$basic_string@DU?$char_traits@D@std@@V?$allocator@D@2@@std@@AEBA_K_K@Z 0000000140059500 f i Main.obj
 0002:0002a590       ?_Calculate_growth@?$basic_string@DU?$char_traits@D@std@@V?$allocator@D@2@@std@@CA_K_K00@Z 0000000140059590 f i Main.obj
 0002:0002a6f0       ?_Calculate_growth@?$vector@U?$pair@VPoint2D@@N@std@@V?$allocator@U?$pair@VPoint2D@@N@std@@@2@@std@@AEBA_K_K@Z 00000001400596f0 f i Main.obj
 0002:0002a7d0       ?_Calculate_growth@?$vector@UFace@?$Diagram@N@mygal@@V?$allocator@UFace@?$Diagram@N@mygal@@@std@@@std@@AEBA_K_K@Z 00000001400597d0 f i Main.obj
 0002:0002a8b0       ?_Calculate_growth@?$vector@USite@?$Diagram@N@mygal@@V?$allocator@USite@?$Diagram@N@mygal@@@std@@@std@@AEBA_K_K@Z 00000001400598b0 f i Main.obj
 0002:0002a990       ?_Calculate_growth@?$vector@V?$Vector2@N@mygal@@V?$allocator@V?$Vector2@N@mygal@@@std@@@std@@AEBA_K_K@Z 0000000140059990 f i Main.obj
 0002:0002aa70       ?_Calculate_growth@?$vector@V?$shared_ptr@USite@NewDiagram@Voronoi@@@std@@V?$allocator@V?$shared_ptr@USite@NewDiagram@Voronoi@@@std@@@2@@std@@AEBA_K_K@Z 0000000140059a70 f i Main.obj
 0002:0002ab50       ?_Calculate_growth@?$vector@V?$unique_ptr@V?$Event@N@mygal@@U?$default_delete@V?$Event@N@mygal@@@std@@@std@@V?$allocator@V?$unique_ptr@V?$Event@N@mygal@@U?$default_delete@V?$Event@N@mygal@@@std@@@std@@@2@@std@@AEBA_K_K@Z 0000000140059b50 f i Main.obj
 0002:0002ac30       ?_Calculate_growth@?$vector@VCircleShape@sf@@V?$allocator@VCircleShape@sf@@@std@@@std@@AEBA_K_K@Z 0000000140059c30 f i Main.obj
 0002:0002ad10       ?_Ceiling_of_log_2@std@@YAK_K@Z 0000000140059d10 f i Main.obj
 0002:0002ad60       ?_Change_array@?$vector@U?$pair@VPoint2D@@N@std@@V?$allocator@U?$pair@VPoint2D@@N@std@@@2@@std@@AEAAXQEAU?$pair@VPoint2D@@N@2@_K1@Z 0000000140059d60 f i Main.obj
 0002:0002aed0       ?_Change_array@?$vector@UFace@?$Diagram@N@mygal@@V?$allocator@UFace@?$Diagram@N@mygal@@@std@@@std@@AEAAXQEAUFace@?$Diagram@N@mygal@@_K1@Z 0000000140059ed0 f i Main.obj
 0002:0002b040       ?_Change_array@?$vector@USite@?$Diagram@N@mygal@@V?$allocator@USite@?$Diagram@N@mygal@@@std@@@std@@AEAAXQEAUSite@?$Diagram@N@mygal@@_K1@Z 000000014005a040 f i Main.obj
 0002:0002b1b0       ?_Change_array@?$vector@V?$Vector2@N@mygal@@V?$allocator@V?$Vector2@N@mygal@@@std@@@std@@AEAAXQEAV?$Vector2@N@mygal@@_K1@Z 000000014005a1b0 f i Main.obj
 0002:0002b320       ?_Change_array@?$vector@V?$shared_ptr@USite@NewDiagram@Voronoi@@@std@@V?$allocator@V?$shared_ptr@USite@NewDiagram@Voronoi@@@std@@@2@@std@@AEAAXQEAV?$shared_ptr@USite@NewDiagram@Voronoi@@@2@_K1@Z 000000014005a320 f i Main.obj
 0002:0002b490       ?_Change_array@?$vector@V?$unique_ptr@V?$Event@N@mygal@@U?$default_delete@V?$Event@N@mygal@@@std@@@std@@V?$allocator@V?$unique_ptr@V?$Event@N@mygal@@U?$default_delete@V?$Event@N@mygal@@@std@@@std@@@2@@std@@AEAAXQEAV?$unique_ptr@V?$Event@N@mygal@@U?$default_delete@V?$Event@N@mygal@@@std@@@2@_K1@Z 000000014005a490 f i Main.obj
 0002:0002b5f0       ?_Change_array@?$vector@VCircleShape@sf@@V?$allocator@VCircleShape@sf@@@std@@@std@@AEAAXQEAVCircleShape@sf@@_K1@Z 000000014005a5f0 f i Main.obj
 0002:0002b770       ?_Check_max_size@?$_Hash@V?$_Umap_traits@PEAUFace@?$Diagram@N@mygal@@V?$shared_ptr@UFace@NewDiagram@Voronoi@@@std@@V?$_Uhash_compare@PEAUFace@?$Diagram@N@mygal@@U?$hash@PEAUFace@?$Diagram@N@mygal@@@std@@U?$equal_to@PEAUFace@?$Diagram@N@mygal@@@5@@5@V?$allocator@U?$pair@QEAUFace@?$Diagram@N@mygal@@V?$shared_ptr@UFace@NewDiagram@Voronoi@@@std@@@std@@@5@$0A@@std@@@std@@IEBAXXZ 000000014005a770 f i Main.obj
 0002:0002b7f0       ?_Check_max_size@?$_Hash@V?$_Umap_traits@PEAUHalfEdge@?$Diagram@N@mygal@@V?$shared_ptr@UHalfEdge@NewDiagram@Voronoi@@@std@@V?$_Uhash_compare@PEAUHalfEdge@?$Diagram@N@mygal@@U?$hash@PEAUHalfEdge@?$Diagram@N@mygal@@@std@@U?$equal_to@PEAUHalfEdge@?$Diagram@N@mygal@@@5@@5@V?$allocator@U?$pair@QEAUHalfEdge@?$Diagram@N@mygal@@V?$shared_ptr@UHalfEdge@NewDiagram@Voronoi@@@std@@@std@@@5@$0A@@std@@@std@@IEBAXXZ 000000014005a7f0 f i Main.obj
 0002:0002b870       ?_Check_max_size@?$_Hash@V?$_Umap_traits@PEAUVertex@?$Diagram@N@mygal@@V?$shared_ptr@UVertex@NewDiagram@Voronoi@@@std@@V?$_Uhash_compare@PEAUVertex@?$Diagram@N@mygal@@U?$hash@PEAUVertex@?$Diagram@N@mygal@@@std@@U?$equal_to@PEAUVertex@?$Diagram@N@mygal@@@5@@5@V?$allocator@U?$pair@QEAUVertex@?$Diagram@N@mygal@@V?$shared_ptr@UVertex@NewDiagram@Voronoi@@@std@@@std@@@5@$0A@@std@@@std@@IEBAXXZ 000000014005a870 f i Main.obj
 0002:0002b8f0       ?_Check_offset@?$_String_val@U?$_Simple_types@D@std@@@std@@QEBAX_K@Z 000000014005a8f0 f i Main.obj
 0002:0002b950       ?_Check_rehash_required_1@?$_Hash@V?$_Umap_traits@PEAUFace@?$Diagram@N@mygal@@V?$shared_ptr@UFace@NewDiagram@Voronoi@@@std@@V?$_Uhash_compare@PEAUFace@?$Diagram@N@mygal@@U?$hash@PEAUFace@?$Diagram@N@mygal@@@std@@U?$equal_to@PEAUFace@?$Diagram@N@mygal@@@5@@5@V?$allocator@U?$pair@QEAUFace@?$Diagram@N@mygal@@V?$shared_ptr@UFace@NewDiagram@Voronoi@@@std@@@std@@@5@$0A@@std@@@std@@IEBA_NXZ 000000014005a950 f i Main.obj
 0002:0002ba90       ?_Check_rehash_required_1@?$_Hash@V?$_Umap_traits@PEAUHalfEdge@?$Diagram@N@mygal@@V?$shared_ptr@UHalfEdge@NewDiagram@Voronoi@@@std@@V?$_Uhash_compare@PEAUHalfEdge@?$Diagram@N@mygal@@U?$hash@PEAUHalfEdge@?$Diagram@N@mygal@@@std@@U?$equal_to@PEAUHalfEdge@?$Diagram@N@mygal@@@5@@5@V?$allocator@U?$pair@QEAUHalfEdge@?$Diagram@N@mygal@@V?$shared_ptr@UHalfEdge@NewDiagram@Voronoi@@@std@@@std@@@5@$0A@@std@@@std@@IEBA_NXZ 000000014005aa90 f i Main.obj
 0002:0002bbd0       ?_Check_rehash_required_1@?$_Hash@V?$_Umap_traits@PEAUVertex@?$Diagram@N@mygal@@V?$shared_ptr@UVertex@NewDiagram@Voronoi@@@std@@V?$_Uhash_compare@PEAUVertex@?$Diagram@N@mygal@@U?$hash@PEAUVertex@?$Diagram@N@mygal@@@std@@U?$equal_to@PEAUVertex@?$Diagram@N@mygal@@@5@@5@V?$allocator@U?$pair@QEAUVertex@?$Diagram@N@mygal@@V?$shared_ptr@UVertex@NewDiagram@Voronoi@@@std@@@std@@@5@$0A@@std@@@std@@IEBA_NXZ 000000014005abd0 f i Main.obj
 0002:0002bd10       ?_Clamp_suffix_size@?$_String_val@U?$_Simple_types@D@std@@@std@@QEBA_K_K0@Z 000000014005ad10 f i Main.obj
 0002:0002bd90       ?_Clear_and_reserve_geometric@?$vector@V?$shared_ptr@USite@NewDiagram@Voronoi@@@std@@V?$allocator@V?$shared_ptr@USite@NewDiagram@Voronoi@@@std@@@2@@std@@AEAAX_K@Z 000000014005ad90 f i Main.obj
 0002:0002bf10       ?_Construct_empty@?$basic_string@DU?$char_traits@D@std@@V?$allocator@D@2@@std@@AEAAXXZ 000000014005af10 f i Main.obj
 0002:0002bff0       ?_Deallocate_for_capacity@?$basic_string@DU?$char_traits@D@std@@V?$allocator@D@2@@std@@CAXAEAV?$allocator@D@2@QEAD_K@Z 000000014005aff0 f i Main.obj
 0002:0002c060       ?_Decref@?$_Ptr_base@UFace@NewDiagram@Voronoi@@@std@@IEAAXXZ 000000014005b060 f i Main.obj
 0002:0002c0c0       ?_Decref@?$_Ptr_base@UHalfEdge@NewDiagram@Voronoi@@@std@@IEAAXXZ 000000014005b0c0 f i Main.obj
 0002:0002c120       ?_Decref@?$_Ptr_base@USite@NewDiagram@Voronoi@@@std@@IEAAXXZ 000000014005b120 f i Main.obj
 0002:0002c180       ?_Decref@?$_Ptr_base@UVertex@NewDiagram@Voronoi@@@std@@IEAAXXZ 000000014005b180 f i Main.obj
 0002:0002c1e0       ?_Decref@_Ref_count_base@std@@QEAAXXZ 000000014005b1e0 f i Main.obj
 0002:0002c260       ?_Decwref@_Ref_count_base@std@@QEAAXXZ 000000014005b260 f i Main.obj
 0002:0002c2e0       ?_Delete_this@?$_Ref_count_obj2@UFace@NewDiagram@Voronoi@@@std@@EEAAXXZ 000000014005b2e0 f i Main.obj
 0002:0002c380       ?_Delete_this@?$_Ref_count_obj2@UHalfEdge@NewDiagram@Voronoi@@@std@@EEAAXXZ 000000014005b380 f i Main.obj
 0002:0002c420       ?_Delete_this@?$_Ref_count_obj2@USite@NewDiagram@Voronoi@@@std@@EEAAXXZ 000000014005b420 f i Main.obj
 0002:0002c4c0       ?_Delete_this@?$_Ref_count_obj2@UVertex@NewDiagram@Voronoi@@@std@@EEAAXXZ 000000014005b4c0 f i Main.obj
 0002:0002c560       ?_Desired_grow_bucket_count@?$_Hash@V?$_Umap_traits@PEAUFace@?$Diagram@N@mygal@@V?$shared_ptr@UFace@NewDiagram@Voronoi@@@std@@V?$_Uhash_compare@PEAUFace@?$Diagram@N@mygal@@U?$hash@PEAUFace@?$Diagram@N@mygal@@@std@@U?$equal_to@PEAUFace@?$Diagram@N@mygal@@@5@@5@V?$allocator@U?$pair@QEAUFace@?$Diagram@N@mygal@@V?$shared_ptr@UFace@NewDiagram@Voronoi@@@std@@@std@@@5@$0A@@std@@@std@@IEBA_K_K@Z 000000014005b560 f i Main.obj
 0002:0002c640       ?_Desired_grow_bucket_count@?$_Hash@V?$_Umap_traits@PEAUHalfEdge@?$Diagram@N@mygal@@V?$shared_ptr@UHalfEdge@NewDiagram@Voronoi@@@std@@V?$_Uhash_compare@PEAUHalfEdge@?$Diagram@N@mygal@@U?$hash@PEAUHalfEdge@?$Diagram@N@mygal@@@std@@U?$equal_to@PEAUHalfEdge@?$Diagram@N@mygal@@@5@@5@V?$allocator@U?$pair@QEAUHalfEdge@?$Diagram@N@mygal@@V?$shared_ptr@UHalfEdge@NewDiagram@Voronoi@@@std@@@std@@@5@$0A@@std@@@std@@IEBA_K_K@Z 000000014005b640 f i Main.obj
 0002:0002c720       ?_Desired_grow_bucket_count@?$_Hash@V?$_Umap_traits@PEAUVertex@?$Diagram@N@mygal@@V?$shared_ptr@UVertex@NewDiagram@Voronoi@@@std@@V?$_Uhash_compare@PEAUVertex@?$Diagram@N@mygal@@U?$hash@PEAUVertex@?$Diagram@N@mygal@@@std@@U?$equal_to@PEAUVertex@?$Diagram@N@mygal@@@5@@5@V?$allocator@U?$pair@QEAUVertex@?$Diagram@N@mygal@@V?$shared_ptr@UVertex@NewDiagram@Voronoi@@@std@@@std@@@5@$0A@@std@@@std@@IEBA_K_K@Z 000000014005b720 f i Main.obj
 0002:0002c800       ?_Destroy@?$_Ref_count_obj2@UFace@NewDiagram@Voronoi@@@std@@EEAAXXZ 000000014005b800 f i Main.obj
 0002:0002c850       ?_Destroy@?$_Ref_count_obj2@UHalfEdge@NewDiagram@Voronoi@@@std@@EEAAXXZ 000000014005b850 f i Main.obj
 0002:0002c8a0       ?_Destroy@?$_Ref_count_obj2@USite@NewDiagram@Voronoi@@@std@@EEAAXXZ 000000014005b8a0 f i Main.obj
 0002:0002c8f0       ?_Destroy@?$_Ref_count_obj2@UVertex@NewDiagram@Voronoi@@@std@@EEAAXXZ 000000014005b8f0 f i Main.obj
 0002:0002c940       ?_Do_hash@?$hash@PEAUFace@?$Diagram@N@mygal@@@std@@SA_KAEBQEAUFace@?$Diagram@N@mygal@@@Z 000000014005b940 f i Main.obj
 0002:0002c990       ?_Do_hash@?$hash@PEAUHalfEdge@?$Diagram@N@mygal@@@std@@SA_KAEBQEAUHalfEdge@?$Diagram@N@mygal@@@Z 000000014005b990 f i Main.obj
 0002:0002c9e0       ?_Do_hash@?$hash@PEAUVertex@?$Diagram@N@mygal@@@std@@SA_KAEBQEAUVertex@?$Diagram@N@mygal@@@Z 000000014005b9e0 f i Main.obj
 0002:0002ca30       ?_Endwrite@?$basic_filebuf@DU?$char_traits@D@std@@@std@@IEAA_NXZ 000000014005ba30 f i Main.obj
 0002:0002ccc0       ?_Erase_noexcept@?$basic_string@DU?$char_traits@D@std@@V?$allocator@D@2@@std@@AEAAAEAV12@_K_K@Z 000000014005bcc0 f i Main.obj
 0002:0002ce00       ?_Floor_of_log_2@std@@YAK_K@Z 000000014005be00 f i Main.obj
 0002:0002cec0       ?_Fnv1a_append_bytes@std@@YA_K_KQEBE_K@Z 000000014005bec0 f i Main.obj
 0002:0002cf90       ?_Forced_rehash@?$_Hash@V?$_Umap_traits@PEAUFace@?$Diagram@N@mygal@@V?$shared_ptr@UFace@NewDiagram@Voronoi@@@std@@V?$_Uhash_compare@PEAUFace@?$Diagram@N@mygal@@U?$hash@PEAUFace@?$Diagram@N@mygal@@@std@@U?$equal_to@PEAUFace@?$Diagram@N@mygal@@@5@@5@V?$allocator@U?$pair@QEAUFace@?$Diagram@N@mygal@@V?$shared_ptr@UFace@NewDiagram@Voronoi@@@std@@@std@@@5@$0A@@std@@@std@@IEAAX_K@Z 000000014005bf90 f i Main.obj
 0002:0002d3e0       ??$_Emplace@PEAUSpecial_vertex@@@?$list@PEAUSpecial_vertex@@V?$allocator@PEAUSpecial_vertex@@@std@@@std@@QEAAPEAU?$_List_node@PEAUSpecial_vertex@@PEAX@1@QEAU21@$$QEAPEAUSpecial_vertex@@@Z 000000014005c3e0 f i MinKnapsack.obj
 0002:0002d4f0       ?_Forced_rehash@?$_Hash@V?$_Umap_traits@PEAUHalfEdge@?$Diagram@N@mygal@@V?$shared_ptr@UHalfEdge@NewDiagram@Voronoi@@@std@@V?$_Uhash_compare@PEAUHalfEdge@?$Diagram@N@mygal@@U?$hash@PEAUHalfEdge@?$Diagram@N@mygal@@@std@@U?$equal_to@PEAUHalfEdge@?$Diagram@N@mygal@@@5@@5@V?$allocator@U?$pair@QEAUHalfEdge@?$Diagram@N@mygal@@V?$shared_ptr@UHalfEdge@NewDiagram@Voronoi@@@std@@@std@@@5@$0A@@std@@@std@@IEAAX_K@Z 000000014005c4f0 f i Main.obj
 0002:0002d940       ??0?$vector@V?$shared_ptr@USite@NewDiagram@Voronoi@@@std@@V?$allocator@V?$shared_ptr@USite@NewDiagram@Voronoi@@@std@@@2@@std@@QEAA@V?$initializer_list@V?$shared_ptr@USite@NewDiagram@Voronoi@@@std@@@1@AEBV?$allocator@V?$shared_ptr@USite@NewDiagram@Voronoi@@@std@@@1@@Z 000000014005c940 f i MinKnapsack.obj
 0002:0002da50       ?_Forced_rehash@?$_Hash@V?$_Umap_traits@PEAUVertex@?$Diagram@N@mygal@@V?$shared_ptr@UVertex@NewDiagram@Voronoi@@@std@@V?$_Uhash_compare@PEAUVertex@?$Diagram@N@mygal@@U?$hash@PEAUVertex@?$Diagram@N@mygal@@@std@@U?$equal_to@PEAUVertex@?$Diagram@N@mygal@@@5@@5@V?$allocator@U?$pair@QEAUVertex@?$Diagram@N@mygal@@V?$shared_ptr@UVertex@NewDiagram@Voronoi@@@std@@@std@@@5@$0A@@std@@@std@@IEAAX_K@Z 000000014005ca50 f i Main.obj
 0002:0002dea0       ??1?$list@PEAUSpecial_vertex@@V?$allocator@PEAUSpecial_vertex@@@std@@@std@@QEAA@XZ 000000014005cea0 f i MinKnapsack.obj
 0002:0002dfb0       ?_Get_deleter@_Ref_count_base@std@@UEBAPEAXAEBVtype_info@@@Z 000000014005cfb0 f i Main.obj
 0002:0002dff0       ?_Get_first@?$_Compressed_pair@U?$default_delete@V?$Event@N@mygal@@@std@@PEAV?$Event@N@mygal@@$00@std@@QEAAAEAU?$default_delete@V?$Event@N@mygal@@@2@XZ 000000014005cff0 f i Main.obj
 0002:0002e030       ?_Get_first@?$_Compressed_pair@U?$default_delete@V_Facet_base@std@@@std@@PEAV_Facet_base@2@$00@std@@QEAAAEAU?$default_delete@V_Facet_base@std@@@2@XZ 000000014005d030 f i Main.obj
 0002:0002e070       ?_Get_first@?$_Compressed_pair@U?$equal_to@PEAUFace@?$Diagram@N@mygal@@@std@@M$00@std@@QEBAAEBU?$equal_to@PEAUFace@?$Diagram@N@mygal@@@2@XZ 000000014005d070 f i Main.obj
 0002:0002e0b0       ?_Get_first@?$_Compressed_pair@U?$equal_to@PEAUHalfEdge@?$Diagram@N@mygal@@@std@@M$00@std@@QEBAAEBU?$equal_to@PEAUHalfEdge@?$Diagram@N@mygal@@@2@XZ 000000014005d0b0 f i Main.obj
 0002:0002e0f0       ?_Get_first@?$_Compressed_pair@U?$equal_to@PEAUVertex@?$Diagram@N@mygal@@@std@@M$00@std@@QEBAAEBU?$equal_to@PEAUVertex@?$Diagram@N@mygal@@@2@XZ 000000014005d0f0 f i Main.obj
 0002:0002e130       ?_Get_first@?$_Compressed_pair@U?$hash@PEAUFace@?$Diagram@N@mygal@@@std@@V?$_Compressed_pair@U?$equal_to@PEAUFace@?$Diagram@N@mygal@@@std@@M$00@2@$00@std@@QEBAAEBU?$hash@PEAUFace@?$Diagram@N@mygal@@@2@XZ 000000014005d130 f i Main.obj
 0002:0002e170       ?_Get_first@?$_Compressed_pair@U?$hash@PEAUHalfEdge@?$Diagram@N@mygal@@@std@@V?$_Compressed_pair@U?$equal_to@PEAUHalfEdge@?$Diagram@N@mygal@@@std@@M$00@2@$00@std@@QEBAAEBU?$hash@PEAUHalfEdge@?$Diagram@N@mygal@@@2@XZ 000000014005d170 f i Main.obj
 0002:0002e1b0       ?_Get_first@?$_Compressed_pair@U?$hash@PEAUVertex@?$Diagram@N@mygal@@@std@@V?$_Compressed_pair@U?$equal_to@PEAUVertex@?$Diagram@N@mygal@@@std@@M$00@2@$00@std@@QEBAAEBU?$hash@PEAUVertex@?$Diagram@N@mygal@@@2@XZ 000000014005d1b0 f i Main.obj
 0002:0002e1f0       ?_Get_first@?$_Compressed_pair@V?$allocator@D@std@@V?$_String_val@U?$_Simple_types@D@std@@@2@$00@std@@QEAAAEAV?$allocator@D@2@XZ 000000014005d1f0 f i Main.obj
 0002:0002e230       ?_Get_first@?$_Compressed_pair@V?$allocator@D@std@@V?$_String_val@U?$_Simple_types@D@std@@@2@$00@std@@QEBAAEBV?$allocator@D@2@XZ 000000014005d230 f i Main.obj
 0002:0002e270       ?_Get_first@?$_Compressed_pair@V?$allocator@U?$_List_node@U?$pair@QEAUFace@?$Diagram@N@mygal@@V?$shared_ptr@UFace@NewDiagram@Voronoi@@@std@@@std@@PEAX@std@@@std@@V?$_List_val@U?$_List_simple_types@U?$pair@QEAUFace@?$Diagram@N@mygal@@V?$shared_ptr@UFace@NewDiagram@Voronoi@@@std@@@std@@@std@@@2@$00@std@@QEAAAEAV?$allocator@U?$_List_node@U?$pair@QEAUFace@?$Diagram@N@mygal@@V?$shared_ptr@UFace@NewDiagram@Voronoi@@@std@@@std@@PEAX@std@@@2@XZ 000000014005d270 f i Main.obj
 0002:0002e2b0       ?_Get_first@?$_Compressed_pair@V?$allocator@U?$_List_node@U?$pair@QEAUFace@?$Diagram@N@mygal@@V?$shared_ptr@UFace@NewDiagram@Voronoi@@@std@@@std@@PEAX@std@@@std@@V?$_List_val@U?$_List_simple_types@U?$pair@QEAUFace@?$Diagram@N@mygal@@V?$shared_ptr@UFace@NewDiagram@Voronoi@@@std@@@std@@@std@@@2@$00@std@@QEBAAEBV?$allocator@U?$_List_node@U?$pair@QEAUFace@?$Diagram@N@mygal@@V?$shared_ptr@UFace@NewDiagram@Voronoi@@@std@@@std@@PEAX@std@@@2@XZ 000000014005d2b0 f i Main.obj
 0002:0002e2f0       ?_Get_first@?$_Compressed_pair@V?$allocator@U?$_List_node@U?$pair@QEAUHalfEdge@?$Diagram@N@mygal@@V?$shared_ptr@UHalfEdge@NewDiagram@Voronoi@@@std@@@std@@PEAX@std@@@std@@V?$_List_val@U?$_List_simple_types@U?$pair@QEAUHalfEdge@?$Diagram@N@mygal@@V?$shared_ptr@UHalfEdge@NewDiagram@Voronoi@@@std@@@std@@@std@@@2@$00@std@@QEAAAEAV?$allocator@U?$_List_node@U?$pair@QEAUHalfEdge@?$Diagram@N@mygal@@V?$shared_ptr@UHalfEdge@NewDiagram@Voronoi@@@std@@@std@@PEAX@std@@@2@XZ 000000014005d2f0 f i Main.obj
 0002:0002e330       ?_Get_first@?$_Compressed_pair@V?$allocator@U?$_List_node@U?$pair@QEAUHalfEdge@?$Diagram@N@mygal@@V?$shared_ptr@UHalfEdge@NewDiagram@Voronoi@@@std@@@std@@PEAX@std@@@std@@V?$_List_val@U?$_List_simple_types@U?$pair@QEAUHalfEdge@?$Diagram@N@mygal@@V?$shared_ptr@UHalfEdge@NewDiagram@Voronoi@@@std@@@std@@@std@@@2@$00@std@@QEBAAEBV?$allocator@U?$_List_node@U?$pair@QEAUHalfEdge@?$Diagram@N@mygal@@V?$shared_ptr@UHalfEdge@NewDiagram@Voronoi@@@std@@@std@@PEAX@std@@@2@XZ 000000014005d330 f i Main.obj
 0002:0002e370       ?_Get_first@?$_Compressed_pair@V?$allocator@U?$_List_node@U?$pair@QEAUVertex@?$Diagram@N@mygal@@V?$shared_ptr@UVertex@NewDiagram@Voronoi@@@std@@@std@@PEAX@std@@@std@@V?$_List_val@U?$_List_simple_types@U?$pair@QEAUVertex@?$Diagram@N@mygal@@V?$shared_ptr@UVertex@NewDiagram@Voronoi@@@std@@@std@@@std@@@2@$00@std@@QEAAAEAV?$allocator@U?$_List_node@U?$pair@QEAUVertex@?$Diagram@N@mygal@@V?$shared_ptr@UVertex@NewDiagram@Voronoi@@@std@@@std@@PEAX@std@@@2@XZ 000000014005d370 f i Main.obj
 0002:0002e3b0       ?_Get_first@?$_Compressed_pair@V?$allocator@U?$_List_node@U?$pair@QEAUVertex@?$Diagram@N@mygal@@V?$shared_ptr@UVertex@NewDiagram@Voronoi@@@std@@@std@@PEAX@std@@@std@@V?$_List_val@U?$_List_simple_types@U?$pair@QEAUVertex@?$Diagram@N@mygal@@V?$shared_ptr@UVertex@NewDiagram@Voronoi@@@std@@@std@@@std@@@2@$00@std@@QEBAAEBV?$allocator@U?$_List_node@U?$pair@QEAUVertex@?$Diagram@N@mygal@@V?$shared_ptr@UVertex@NewDiagram@Voronoi@@@std@@@std@@PEAX@std@@@2@XZ 000000014005d3b0 f i Main.obj
 0002:0002e3f0       ?_Get_first@?$_Compressed_pair@V?$allocator@U?$_List_node@UHalfEdge@?$Diagram@N@mygal@@PEAX@std@@@std@@V?$_List_val@U?$_List_simple_types@UHalfEdge@?$Diagram@N@mygal@@@std@@@2@$00@std@@QEAAAEAV?$allocator@U?$_List_node@UHalfEdge@?$Diagram@N@mygal@@PEAX@std@@@2@XZ 000000014005d3f0 f i Main.obj
 0002:0002e430       ?_Get_first@?$_Compressed_pair@V?$allocator@U?$_List_node@UHalfEdge@?$Diagram@N@mygal@@PEAX@std@@@std@@V?$_List_val@U?$_List_simple_types@UHalfEdge@?$Diagram@N@mygal@@@std@@@2@$00@std@@QEBAAEBV?$allocator@U?$_List_node@UHalfEdge@?$Diagram@N@mygal@@PEAX@std@@@2@XZ 000000014005d430 f i Main.obj
 0002:0002e470       ?_Get_first@?$_Compressed_pair@V?$allocator@U?$_List_node@UVertex@?$Diagram@N@mygal@@PEAX@std@@@std@@V?$_List_val@U?$_List_simple_types@UVertex@?$Diagram@N@mygal@@@std@@@2@$00@std@@QEAAAEAV?$allocator@U?$_List_node@UVertex@?$Diagram@N@mygal@@PEAX@std@@@2@XZ 000000014005d470 f i Main.obj
 0002:0002e4b0       ?_Get_first@?$_Compressed_pair@V?$allocator@U?$_List_node@UVertex@?$Diagram@N@mygal@@PEAX@std@@@std@@V?$_List_val@U?$_List_simple_types@UVertex@?$Diagram@N@mygal@@@std@@@2@$00@std@@QEBAAEBV?$allocator@U?$_List_node@UVertex@?$Diagram@N@mygal@@PEAX@std@@@2@XZ 000000014005d4b0 f i Main.obj
 0002:0002e4f0       ?_Get_first@?$_Compressed_pair@V?$allocator@U?$_List_node@V?$shared_ptr@UFace@NewDiagram@Voronoi@@@std@@PEAX@std@@@std@@V?$_List_val@U?$_List_simple_types@V?$shared_ptr@UFace@NewDiagram@Voronoi@@@std@@@std@@@2@$00@std@@QEAAAEAV?$allocator@U?$_List_node@V?$shared_ptr@UFace@NewDiagram@Voronoi@@@std@@PEAX@std@@@2@XZ 000000014005d4f0 f i Main.obj
 0002:0002e530       ?_Get_first@?$_Compressed_pair@V?$allocator@U?$_List_node@V?$shared_ptr@UFace@NewDiagram@Voronoi@@@std@@PEAX@std@@@std@@V?$_List_val@U?$_List_simple_types@V?$shared_ptr@UFace@NewDiagram@Voronoi@@@std@@@std@@@2@$00@std@@QEBAAEBV?$allocator@U?$_List_node@V?$shared_ptr@UFace@NewDiagram@Voronoi@@@std@@PEAX@std@@@2@XZ 000000014005d530 f i Main.obj
 0002:0002e570       ?_Get_first@?$_Compressed_pair@V?$allocator@U?$pair@VPoint2D@@N@std@@@std@@V?$_Vector_val@U?$_Simple_types@U?$pair@VPoint2D@@N@std@@@std@@@2@$00@std@@QEAAAEAV?$allocator@U?$pair@VPoint2D@@N@std@@@2@XZ 000000014005d570 f i Main.obj
 0002:0002e5b0       ?_Get_first@?$_Compressed_pair@V?$allocator@U?$pair@VPoint2D@@N@std@@@std@@V?$_Vector_val@U?$_Simple_types@U?$pair@VPoint2D@@N@std@@@std@@@2@$00@std@@QEBAAEBV?$allocator@U?$pair@VPoint2D@@N@std@@@2@XZ 000000014005d5b0 f i Main.obj
 0002:0002e5f0       ?_Get_first@?$_Compressed_pair@V?$allocator@UFace@?$Diagram@N@mygal@@@std@@V?$_Vector_val@U?$_Simple_types@UFace@?$Diagram@N@mygal@@@std@@@2@$00@std@@QEAAAEAV?$allocator@UFace@?$Diagram@N@mygal@@@2@XZ 000000014005d5f0 f i Main.obj
 0002:0002e630       ?_Get_first@?$_Compressed_pair@V?$allocator@UFace@?$Diagram@N@mygal@@@std@@V?$_Vector_val@U?$_Simple_types@UFace@?$Diagram@N@mygal@@@std@@@2@$00@std@@QEBAAEBV?$allocator@UFace@?$Diagram@N@mygal@@@2@XZ 000000014005d630 f i Main.obj
 0002:0002e670       ?_Get_first@?$_Compressed_pair@V?$allocator@USite@?$Diagram@N@mygal@@@std@@V?$_Vector_val@U?$_Simple_types@USite@?$Diagram@N@mygal@@@std@@@2@$00@std@@QEAAAEAV?$allocator@USite@?$Diagram@N@mygal@@@2@XZ 000000014005d670 f i Main.obj
 0002:0002e6b0       ?_Get_first@?$_Compressed_pair@V?$allocator@USite@?$Diagram@N@mygal@@@std@@V?$_Vector_val@U?$_Simple_types@USite@?$Diagram@N@mygal@@@std@@@2@$00@std@@QEBAAEBV?$allocator@USite@?$Diagram@N@mygal@@@2@XZ 000000014005d6b0 f i Main.obj
 0002:0002e6f0       ?_Get_first@?$_Compressed_pair@V?$allocator@V?$Vector2@N@mygal@@@std@@V?$_Vector_val@U?$_Simple_types@V?$Vector2@N@mygal@@@std@@@2@$00@std@@QEAAAEAV?$allocator@V?$Vector2@N@mygal@@@2@XZ 000000014005d6f0 f i Main.obj
 0002:0002e730       ?_Get_first@?$_Compressed_pair@V?$allocator@V?$Vector2@N@mygal@@@std@@V?$_Vector_val@U?$_Simple_types@V?$Vector2@N@mygal@@@std@@@2@$00@std@@QEBAAEBV?$allocator@V?$Vector2@N@mygal@@@2@XZ 000000014005d730 f i Main.obj
 0002:0002e770       ?_Get_first@?$_Compressed_pair@V?$allocator@V?$_List_unchecked_iterator@V?$_List_val@U?$_List_simple_types@U?$pair@QEAUFace@?$Diagram@N@mygal@@V?$shared_ptr@UFace@NewDiagram@Voronoi@@@std@@@std@@@std@@@std@@@std@@@std@@V?$_Vector_val@U?$_Simple_types@V?$_List_unchecked_iterator@V?$_List_val@U?$_List_simple_types@U?$pair@QEAUFace@?$Diagram@N@mygal@@V?$shared_ptr@UFace@NewDiagram@Voronoi@@@std@@@std@@@std@@@std@@@std@@@std@@@2@$00@std@@QEAAAEAV?$allocator@V?$_List_unchecked_iterator@V?$_List_val@U?$_List_simple_types@U?$pair@QEAUFace@?$Diagram@N@mygal@@V?$shared_ptr@UFace@NewDiagram@Voronoi@@@std@@@std@@@std@@@std@@@std@@@2@XZ 000000014005d770 f i Main.obj
 0002:0002e7b0       ?_Get_first@?$_Compressed_pair@V?$allocator@V?$_List_unchecked_iterator@V?$_List_val@U?$_List_simple_types@U?$pair@QEAUFace@?$Diagram@N@mygal@@V?$shared_ptr@UFace@NewDiagram@Voronoi@@@std@@@std@@@std@@@std@@@std@@@std@@V?$_Vector_val@U?$_Simple_types@V?$_List_unchecked_iterator@V?$_List_val@U?$_List_simple_types@U?$pair@QEAUFace@?$Diagram@N@mygal@@V?$shared_ptr@UFace@NewDiagram@Voronoi@@@std@@@std@@@std@@@std@@@std@@@std@@@2@$00@std@@QEBAAEBV?$allocator@V?$_List_unchecked_iterator@V?$_List_val@U?$_List_simple_types@U?$pair@QEAUFace@?$Diagram@N@mygal@@V?$shared_ptr@UFace@NewDiagram@Voronoi@@@std@@@std@@@std@@@std@@@std@@@2@XZ 000000014005d7b0 f i Main.obj
 0002:0002e7f0       ?_Get_first@?$_Compressed_pair@V?$allocator@V?$_List_unchecked_iterator@V?$_List_val@U?$_List_simple_types@U?$pair@QEAUHalfEdge@?$Diagram@N@mygal@@V?$shared_ptr@UHalfEdge@NewDiagram@Voronoi@@@std@@@std@@@std@@@std@@@std@@@std@@V?$_Vector_val@U?$_Simple_types@V?$_List_unchecked_iterator@V?$_List_val@U?$_List_simple_types@U?$pair@QEAUHalfEdge@?$Diagram@N@mygal@@V?$shared_ptr@UHalfEdge@NewDiagram@Voronoi@@@std@@@std@@@std@@@std@@@std@@@std@@@2@$00@std@@QEAAAEAV?$allocator@V?$_List_unchecked_iterator@V?$_List_val@U?$_List_simple_types@U?$pair@QEAUHalfEdge@?$Diagram@N@mygal@@V?$shared_ptr@UHalfEdge@NewDiagram@Voronoi@@@std@@@std@@@std@@@std@@@std@@@2@XZ 000000014005d7f0 f i Main.obj
 0002:0002e830       ?_Get_first@?$_Compressed_pair@V?$allocator@V?$_List_unchecked_iterator@V?$_List_val@U?$_List_simple_types@U?$pair@QEAUHalfEdge@?$Diagram@N@mygal@@V?$shared_ptr@UHalfEdge@NewDiagram@Voronoi@@@std@@@std@@@std@@@std@@@std@@@std@@V?$_Vector_val@U?$_Simple_types@V?$_List_unchecked_iterator@V?$_List_val@U?$_List_simple_types@U?$pair@QEAUHalfEdge@?$Diagram@N@mygal@@V?$shared_ptr@UHalfEdge@NewDiagram@Voronoi@@@std@@@std@@@std@@@std@@@std@@@std@@@2@$00@std@@QEBAAEBV?$allocator@V?$_List_unchecked_iterator@V?$_List_val@U?$_List_simple_types@U?$pair@QEAUHalfEdge@?$Diagram@N@mygal@@V?$shared_ptr@UHalfEdge@NewDiagram@Voronoi@@@std@@@std@@@std@@@std@@@std@@@2@XZ 000000014005d830 f i Main.obj
 0002:0002e870       ?_Get_first@?$_Compressed_pair@V?$allocator@V?$_List_unchecked_iterator@V?$_List_val@U?$_List_simple_types@U?$pair@QEAUVertex@?$Diagram@N@mygal@@V?$shared_ptr@UVertex@NewDiagram@Voronoi@@@std@@@std@@@std@@@std@@@std@@@std@@V?$_Vector_val@U?$_Simple_types@V?$_List_unchecked_iterator@V?$_List_val@U?$_List_simple_types@U?$pair@QEAUVertex@?$Diagram@N@mygal@@V?$shared_ptr@UVertex@NewDiagram@Voronoi@@@std@@@std@@@std@@@std@@@std@@@std@@@2@$00@std@@QEAAAEAV?$allocator@V?$_List_unchecked_iterator@V?$_List_val@U?$_List_simple_types@U?$pair@QEAUVertex@?$Diagram@N@mygal@@V?$shared_ptr@UVertex@NewDiagram@Voronoi@@@std@@@std@@@std@@@std@@@std@@@2@XZ 000000014005d870 f i Main.obj
 0002:0002e8b0       ?_Get_first@?$_Compressed_pair@V?$allocator@V?$_List_unchecked_iterator@V?$_List_val@U?$_List_simple_types@U?$pair@QEAUVertex@?$Diagram@N@mygal@@V?$shared_ptr@UVertex@NewDiagram@Voronoi@@@std@@@std@@@std@@@std@@@std@@@std@@V?$_Vector_val@U?$_Simple_types@V?$_List_unchecked_iterator@V?$_List_val@U?$_List_simple_types@U?$pair@QEAUVertex@?$Diagram@N@mygal@@V?$shared_ptr@UVertex@NewDiagram@Voronoi@@@std@@@std@@@std@@@std@@@std@@@std@@@2@$00@std@@QEBAAEBV?$allocator@V?$_List_unchecked_iterator@V?$_List_val@U?$_List_simple_types@U?$pair@QEAUVertex@?$Diagram@N@mygal@@V?$shared_ptr@UVertex@NewDiagram@Voronoi@@@std@@@std@@@std@@@std@@@std@@@2@XZ 000000014005d8b0 f i Main.obj
 0002:0002e8f0       ?_Get_first@?$_Compressed_pair@V?$allocator@V?$shared_ptr@USite@NewDiagram@Voronoi@@@std@@@std@@V?$_Vector_val@U?$_Simple_types@V?$shared_ptr@USite@NewDiagram@Voronoi@@@std@@@std@@@2@$00@std@@QEAAAEAV?$allocator@V?$shared_ptr@USite@NewDiagram@Voronoi@@@std@@@2@XZ 000000014005d8f0 f i Main.obj
 0002:0002e930       ?_Get_first@?$_Compressed_pair@V?$allocator@V?$shared_ptr@USite@NewDiagram@Voronoi@@@std@@@std@@V?$_Vector_val@U?$_Simple_types@V?$shared_ptr@USite@NewDiagram@Voronoi@@@std@@@std@@@2@$00@std@@QEBAAEBV?$allocator@V?$shared_ptr@USite@NewDiagram@Voronoi@@@std@@@2@XZ 000000014005d930 f i Main.obj
 0002:0002e970       ?_Get_first@?$_Compressed_pair@V?$allocator@V?$unique_ptr@V?$Event@N@mygal@@U?$default_delete@V?$Event@N@mygal@@@std@@@std@@@std@@V?$_Vector_val@U?$_Simple_types@V?$unique_ptr@V?$Event@N@mygal@@U?$default_delete@V?$Event@N@mygal@@@std@@@std@@@std@@@2@$00@std@@QEAAAEAV?$allocator@V?$unique_ptr@V?$Event@N@mygal@@U?$default_delete@V?$Event@N@mygal@@@std@@@std@@@2@XZ 000000014005d970 f i Main.obj
 0002:0002e9b0       ?_Get_first@?$_Compressed_pair@V?$allocator@V?$unique_ptr@V?$Event@N@mygal@@U?$default_delete@V?$Event@N@mygal@@@std@@@std@@@std@@V?$_Vector_val@U?$_Simple_types@V?$unique_ptr@V?$Event@N@mygal@@U?$default_delete@V?$Event@N@mygal@@@std@@@std@@@std@@@2@$00@std@@QEBAAEBV?$allocator@V?$unique_ptr@V?$Event@N@mygal@@U?$default_delete@V?$Event@N@mygal@@@std@@@std@@@2@XZ 000000014005d9b0 f i Main.obj
 0002:0002e9f0       ?_Get_first@?$_Compressed_pair@V?$allocator@VCircleShape@sf@@@std@@V?$_Vector_val@U?$_Simple_types@VCircleShape@sf@@@std@@@2@$00@std@@QEAAAEAV?$allocator@VCircleShape@sf@@@2@XZ 000000014005d9f0 f i Main.obj
 0002:0002ea30       ?_Get_first@?$_Compressed_pair@V?$allocator@VCircleShape@sf@@@std@@V?$_Vector_val@U?$_Simple_types@VCircleShape@sf@@@std@@@2@$00@std@@QEBAAEBV?$allocator@VCircleShape@sf@@@2@XZ 000000014005da30 f i Main.obj
 0002:0002ea70       ?_Get_max_bucket_size@?$_Uhash_compare@PEAUFace@?$Diagram@N@mygal@@U?$hash@PEAUFace@?$Diagram@N@mygal@@@std@@U?$equal_to@PEAUFace@?$Diagram@N@mygal@@@5@@std@@QEAAAEAMXZ 000000014005da70 f i Main.obj
 0002:0002eab0       ?_Get_max_bucket_size@?$_Uhash_compare@PEAUFace@?$Diagram@N@mygal@@U?$hash@PEAUFace@?$Diagram@N@mygal@@@std@@U?$equal_to@PEAUFace@?$Diagram@N@mygal@@@5@@std@@QEBAAEBMXZ 000000014005dab0 f i Main.obj
 0002:0002eaf0       ?_Get_max_bucket_size@?$_Uhash_compare@PEAUHalfEdge@?$Diagram@N@mygal@@U?$hash@PEAUHalfEdge@?$Diagram@N@mygal@@@std@@U?$equal_to@PEAUHalfEdge@?$Diagram@N@mygal@@@5@@std@@QEAAAEAMXZ 000000014005daf0 f i Main.obj
 0002:0002eb30       ?_Get_max_bucket_size@?$_Uhash_compare@PEAUHalfEdge@?$Diagram@N@mygal@@U?$hash@PEAUHalfEdge@?$Diagram@N@mygal@@@std@@U?$equal_to@PEAUHalfEdge@?$Diagram@N@mygal@@@5@@std@@QEBAAEBMXZ 000000014005db30 f i Main.obj
 0002:0002eb70       ?_Get_max_bucket_size@?$_Uhash_compare@PEAUVertex@?$Diagram@N@mygal@@U?$hash@PEAUVertex@?$Diagram@N@mygal@@@std@@U?$equal_to@PEAUVertex@?$Diagram@N@mygal@@@5@@std@@QEAAAEAMXZ 000000014005db70 f i Main.obj
 0002:0002ebb0       ?_Get_max_bucket_size@?$_Uhash_compare@PEAUVertex@?$Diagram@N@mygal@@U?$hash@PEAUVertex@?$Diagram@N@mygal@@@std@@U?$equal_to@PEAUVertex@?$Diagram@N@mygal@@@5@@std@@QEBAAEBMXZ 000000014005dbb0 f i Main.obj
 0002:0002ebf0       ?_Getal@?$basic_string@DU?$char_traits@D@std@@V?$allocator@D@2@@std@@AEAAAEAV?$allocator@D@2@XZ 000000014005dbf0 f i Main.obj
 0002:0002ec40       ?_Getal@?$basic_string@DU?$char_traits@D@std@@V?$allocator@D@2@@std@@AEBAAEBV?$allocator@D@2@XZ 000000014005dc40 f i Main.obj
 0002:0002ec90       ?_Getal@?$list@U?$pair@QEAUFace@?$Diagram@N@mygal@@V?$shared_ptr@UFace@NewDiagram@Voronoi@@@std@@@std@@V?$allocator@U?$pair@QEAUFace@?$Diagram@N@mygal@@V?$shared_ptr@UFace@NewDiagram@Voronoi@@@std@@@std@@@2@@std@@AEAAAEAV?$allocator@U?$_List_node@U?$pair@QEAUFace@?$Diagram@N@mygal@@V?$shared_ptr@UFace@NewDiagram@Voronoi@@@std@@@std@@PEAX@std@@@2@XZ 000000014005dc90 f i Main.obj
 0002:0002ece0       ?_Getal@?$list@U?$pair@QEAUFace@?$Diagram@N@mygal@@V?$shared_ptr@UFace@NewDiagram@Voronoi@@@std@@@std@@V?$allocator@U?$pair@QEAUFace@?$Diagram@N@mygal@@V?$shared_ptr@UFace@NewDiagram@Voronoi@@@std@@@std@@@2@@std@@AEBAAEBV?$allocator@U?$_List_node@U?$pair@QEAUFace@?$Diagram@N@mygal@@V?$shared_ptr@UFace@NewDiagram@Voronoi@@@std@@@std@@PEAX@std@@@2@XZ 000000014005dce0 f i Main.obj
 0002:0002ed30       ?_Getal@?$list@U?$pair@QEAUHalfEdge@?$Diagram@N@mygal@@V?$shared_ptr@UHalfEdge@NewDiagram@Voronoi@@@std@@@std@@V?$allocator@U?$pair@QEAUHalfEdge@?$Diagram@N@mygal@@V?$shared_ptr@UHalfEdge@NewDiagram@Voronoi@@@std@@@std@@@2@@std@@AEAAAEAV?$allocator@U?$_List_node@U?$pair@QEAUHalfEdge@?$Diagram@N@mygal@@V?$shared_ptr@UHalfEdge@NewDiagram@Voronoi@@@std@@@std@@PEAX@std@@@2@XZ 000000014005dd30 f i Main.obj
 0002:0002ed80       ?_Getal@?$list@U?$pair@QEAUHalfEdge@?$Diagram@N@mygal@@V?$shared_ptr@UHalfEdge@NewDiagram@Voronoi@@@std@@@std@@V?$allocator@U?$pair@QEAUHalfEdge@?$Diagram@N@mygal@@V?$shared_ptr@UHalfEdge@NewDiagram@Voronoi@@@std@@@std@@@2@@std@@AEBAAEBV?$allocator@U?$_List_node@U?$pair@QEAUHalfEdge@?$Diagram@N@mygal@@V?$shared_ptr@UHalfEdge@NewDiagram@Voronoi@@@std@@@std@@PEAX@std@@@2@XZ 000000014005dd80 f i Main.obj
 0002:0002edd0       ?_Getal@?$list@U?$pair@QEAUVertex@?$Diagram@N@mygal@@V?$shared_ptr@UVertex@NewDiagram@Voronoi@@@std@@@std@@V?$allocator@U?$pair@QEAUVertex@?$Diagram@N@mygal@@V?$shared_ptr@UVertex@NewDiagram@Voronoi@@@std@@@std@@@2@@std@@AEAAAEAV?$allocator@U?$_List_node@U?$pair@QEAUVertex@?$Diagram@N@mygal@@V?$shared_ptr@UVertex@NewDiagram@Voronoi@@@std@@@std@@PEAX@std@@@2@XZ 000000014005ddd0 f i Main.obj
 0002:0002ee20       ?_Getal@?$list@U?$pair@QEAUVertex@?$Diagram@N@mygal@@V?$shared_ptr@UVertex@NewDiagram@Voronoi@@@std@@@std@@V?$allocator@U?$pair@QEAUVertex@?$Diagram@N@mygal@@V?$shared_ptr@UVertex@NewDiagram@Voronoi@@@std@@@std@@@2@@std@@AEBAAEBV?$allocator@U?$_List_node@U?$pair@QEAUVertex@?$Diagram@N@mygal@@V?$shared_ptr@UVertex@NewDiagram@Voronoi@@@std@@@std@@PEAX@std@@@2@XZ 000000014005de20 f i Main.obj
 0002:0002ee70       ?_Getal@?$list@UHalfEdge@?$Diagram@N@mygal@@V?$allocator@UHalfEdge@?$Diagram@N@mygal@@@std@@@std@@AEAAAEAV?$allocator@U?$_List_node@UHalfEdge@?$Diagram@N@mygal@@PEAX@std@@@2@XZ 000000014005de70 f i Main.obj
 0002:0002eec0       ?_Getal@?$list@UHalfEdge@?$Diagram@N@mygal@@V?$allocator@UHalfEdge@?$Diagram@N@mygal@@@std@@@std@@AEBAAEBV?$allocator@U?$_List_node@UHalfEdge@?$Diagram@N@mygal@@PEAX@std@@@2@XZ 000000014005dec0 f i Main.obj
 0002:0002ef10       ?_Getal@?$list@UVertex@?$Diagram@N@mygal@@V?$allocator@UVertex@?$Diagram@N@mygal@@@std@@@std@@AEAAAEAV?$allocator@U?$_List_node@UVertex@?$Diagram@N@mygal@@PEAX@std@@@2@XZ 000000014005df10 f i Main.obj
 0002:0002ef60       ?_Getal@?$list@UVertex@?$Diagram@N@mygal@@V?$allocator@UVertex@?$Diagram@N@mygal@@@std@@@std@@AEBAAEBV?$allocator@U?$_List_node@UVertex@?$Diagram@N@mygal@@PEAX@std@@@2@XZ 000000014005df60 f i Main.obj
 0002:0002efb0       ?_Getal@?$list@V?$shared_ptr@UFace@NewDiagram@Voronoi@@@std@@V?$allocator@V?$shared_ptr@UFace@NewDiagram@Voronoi@@@std@@@2@@std@@AEAAAEAV?$allocator@U?$_List_node@V?$shared_ptr@UFace@NewDiagram@Voronoi@@@std@@PEAX@std@@@2@XZ 000000014005dfb0 f i Main.obj
 0002:0002f000       ?_Getal@?$list@V?$shared_ptr@UFace@NewDiagram@Voronoi@@@std@@V?$allocator@V?$shared_ptr@UFace@NewDiagram@Voronoi@@@std@@@2@@std@@AEBAAEBV?$allocator@U?$_List_node@V?$shared_ptr@UFace@NewDiagram@Voronoi@@@std@@PEAX@std@@@2@XZ 000000014005e000 f i Main.obj
 0002:0002f050       ?_Getal@?$vector@U?$pair@VPoint2D@@N@std@@V?$allocator@U?$pair@VPoint2D@@N@std@@@2@@std@@AEAAAEAV?$allocator@U?$pair@VPoint2D@@N@std@@@2@XZ 000000014005e050 f i Main.obj
 0002:0002f0a0       ?_Getal@?$vector@U?$pair@VPoint2D@@N@std@@V?$allocator@U?$pair@VPoint2D@@N@std@@@2@@std@@AEBAAEBV?$allocator@U?$pair@VPoint2D@@N@std@@@2@XZ 000000014005e0a0 f i Main.obj
 0002:0002f0f0       ?_Getal@?$vector@UFace@?$Diagram@N@mygal@@V?$allocator@UFace@?$Diagram@N@mygal@@@std@@@std@@AEAAAEAV?$allocator@UFace@?$Diagram@N@mygal@@@2@XZ 000000014005e0f0 f i Main.obj
 0002:0002f140       ?_Getal@?$vector@UFace@?$Diagram@N@mygal@@V?$allocator@UFace@?$Diagram@N@mygal@@@std@@@std@@AEBAAEBV?$allocator@UFace@?$Diagram@N@mygal@@@2@XZ 000000014005e140 f i Main.obj
 0002:0002f190       ?_Getal@?$vector@USite@?$Diagram@N@mygal@@V?$allocator@USite@?$Diagram@N@mygal@@@std@@@std@@AEAAAEAV?$allocator@USite@?$Diagram@N@mygal@@@2@XZ 000000014005e190 f i Main.obj
 0002:0002f1e0       ?_Getal@?$vector@USite@?$Diagram@N@mygal@@V?$allocator@USite@?$Diagram@N@mygal@@@std@@@std@@AEBAAEBV?$allocator@USite@?$Diagram@N@mygal@@@2@XZ 000000014005e1e0 f i Main.obj
 0002:0002f230       ?_Getal@?$vector@V?$Vector2@N@mygal@@V?$allocator@V?$Vector2@N@mygal@@@std@@@std@@AEAAAEAV?$allocator@V?$Vector2@N@mygal@@@2@XZ 000000014005e230 f i Main.obj
 0002:0002f280       ?_Getal@?$vector@V?$Vector2@N@mygal@@V?$allocator@V?$Vector2@N@mygal@@@std@@@std@@AEBAAEBV?$allocator@V?$Vector2@N@mygal@@@2@XZ 000000014005e280 f i Main.obj
 0002:0002f2d0       ?_Getal@?$vector@V?$shared_ptr@USite@NewDiagram@Voronoi@@@std@@V?$allocator@V?$shared_ptr@USite@NewDiagram@Voronoi@@@std@@@2@@std@@AEAAAEAV?$allocator@V?$shared_ptr@USite@NewDiagram@Voronoi@@@std@@@2@XZ 000000014005e2d0 f i Main.obj
 0002:0002f320       ?_Getal@?$vector@V?$shared_ptr@USite@NewDiagram@Voronoi@@@std@@V?$allocator@V?$shared_ptr@USite@NewDiagram@Voronoi@@@std@@@2@@std@@AEBAAEBV?$allocator@V?$shared_ptr@USite@NewDiagram@Voronoi@@@std@@@2@XZ 000000014005e320 f i Main.obj
 0002:0002f370       ?_Getal@?$vector@V?$unique_ptr@V?$Event@N@mygal@@U?$default_delete@V?$Event@N@mygal@@@std@@@std@@V?$allocator@V?$unique_ptr@V?$Event@N@mygal@@U?$default_delete@V?$Event@N@mygal@@@std@@@std@@@2@@std@@AEAAAEAV?$allocator@V?$unique_ptr@V?$Event@N@mygal@@U?$default_delete@V?$Event@N@mygal@@@std@@@std@@@2@XZ 000000014005e370 f i Main.obj
 0002:0002f3c0       ?_Getal@?$vector@V?$unique_ptr@V?$Event@N@mygal@@U?$default_delete@V?$Event@N@mygal@@@std@@@std@@V?$allocator@V?$unique_ptr@V?$Event@N@mygal@@U?$default_delete@V?$Event@N@mygal@@@std@@@std@@@2@@std@@AEBAAEBV?$allocator@V?$unique_ptr@V?$Event@N@mygal@@U?$default_delete@V?$Event@N@mygal@@@std@@@std@@@2@XZ 000000014005e3c0 f i Main.obj
 0002:0002f410       ?_Getal@?$vector@VCircleShape@sf@@V?$allocator@VCircleShape@sf@@@std@@@std@@AEAAAEAV?$allocator@VCircleShape@sf@@@2@XZ 000000014005e410 f i Main.obj
 0002:0002f460       ?_Getal@?$vector@VCircleShape@sf@@V?$allocator@VCircleShape@sf@@@std@@@std@@AEBAAEBV?$allocator@VCircleShape@sf@@@2@XZ 000000014005e460 f i Main.obj
 0002:0002f4b0       ?_Getcont@_Iterator_base12@std@@QEBAPEBU_Container_base12@2@XZ 000000014005e4b0 f i Main.obj
 0002:0002f530       ?_Getfacet@locale@std@@QEBAPEBVfacet@12@_K@Z 000000014005e530 f i Main.obj
 0002:0002f640       ?_Incref@?$_Ptr_base@UFace@NewDiagram@Voronoi@@@std@@IEBAXXZ 000000014005e640 f i Main.obj
 0002:0002f6a0       ?_Incref@?$_Ptr_base@UHalfEdge@NewDiagram@Voronoi@@@std@@IEBAXXZ 000000014005e6a0 f i Main.obj
 0002:0002f700       ?_Incref@?$_Ptr_base@USite@NewDiagram@Voronoi@@@std@@IEBAXXZ 000000014005e700 f i Main.obj
 0002:0002f760       ?_Incref@?$_Ptr_base@UVertex@NewDiagram@Voronoi@@@std@@IEBAXXZ 000000014005e760 f i Main.obj
 0002:0002f7c0       ?_Incref@_Ref_count_base@std@@QEAAXXZ 000000014005e7c0 f i Main.obj
 0002:0002f810       ?_Init@?$basic_filebuf@DU?$char_traits@D@std@@@std@@IEAAXPEAU_iobuf@@W4_Initfl@12@@Z 000000014005e810 f i Main.obj
 0002:0002f9f0       ?_Initcvt@?$basic_filebuf@DU?$char_traits@D@std@@@std@@IEAAXAEBV?$codecvt@DDU_Mbstatet@@@2@@Z 000000014005e9f0 f i Main.obj
 0002:0002fa90       ?_Insert_new_node_before@?$_Hash@V?$_Umap_traits@PEAUFace@?$Diagram@N@mygal@@V?$shared_ptr@UFace@NewDiagram@Voronoi@@@std@@V?$_Uhash_compare@PEAUFace@?$Diagram@N@mygal@@U?$hash@PEAUFace@?$Diagram@N@mygal@@@std@@U?$equal_to@PEAUFace@?$Diagram@N@mygal@@@5@@5@V?$allocator@U?$pair@QEAUFace@?$Diagram@N@mygal@@V?$shared_ptr@UFace@NewDiagram@Voronoi@@@std@@@std@@@5@$0A@@std@@@std@@IEAAPEAU?$_List_node@U?$pair@QEAUFace@?$Diagram@N@mygal@@V?$shared_ptr@UFace@NewDiagram@Voronoi@@@std@@@std@@PEAX@2@_KQEAU32@1@Z 000000014005ea90 f i Main.obj
 0002:0002fd00       ?_Insert_new_node_before@?$_Hash@V?$_Umap_traits@PEAUHalfEdge@?$Diagram@N@mygal@@V?$shared_ptr@UHalfEdge@NewDiagram@Voronoi@@@std@@V?$_Uhash_compare@PEAUHalfEdge@?$Diagram@N@mygal@@U?$hash@PEAUHalfEdge@?$Diagram@N@mygal@@@std@@U?$equal_to@PEAUHalfEdge@?$Diagram@N@mygal@@@5@@5@V?$allocator@U?$pair@QEAUHalfEdge@?$Diagram@N@mygal@@V?$shared_ptr@UHalfEdge@NewDiagram@Voronoi@@@std@@@std@@@5@$0A@@std@@@std@@IEAAPEAU?$_List_node@U?$pair@QEAUHalfEdge@?$Diagram@N@mygal@@V?$shared_ptr@UHalfEdge@NewDiagram@Voronoi@@@std@@@std@@PEAX@2@_KQEAU32@1@Z 000000014005ed00 f i Main.obj
 0002:0002ff70       ?_Insert_new_node_before@?$_Hash@V?$_Umap_traits@PEAUVertex@?$Diagram@N@mygal@@V?$shared_ptr@UVertex@NewDiagram@Voronoi@@@std@@V?$_Uhash_compare@PEAUVertex@?$Diagram@N@mygal@@U?$hash@PEAUVertex@?$Diagram@N@mygal@@@std@@U?$equal_to@PEAUVertex@?$Diagram@N@mygal@@@5@@5@V?$allocator@U?$pair@QEAUVertex@?$Diagram@N@mygal@@V?$shared_ptr@UVertex@NewDiagram@Voronoi@@@std@@@std@@@5@$0A@@std@@@std@@IEAAPEAU?$_List_node@U?$pair@QEAUVertex@?$Diagram@N@mygal@@V?$shared_ptr@UVertex@NewDiagram@Voronoi@@@std@@@std@@PEAX@2@_KQEAU32@1@Z 000000014005ef70 f i Main.obj
 0002:000301e0       ?_Large_mode_engaged@?$_String_val@U?$_Simple_types@D@std@@@std@@QEBA_NXZ 000000014005f1e0 f i Main.obj
 0002:00030250       ?_Lock@?$basic_filebuf@DU?$char_traits@D@std@@@std@@UEAAXXZ 000000014005f250 f i Main.obj
 0002:000302c0       ?_Make_iter@?$list@U?$pair@QEAUFace@?$Diagram@N@mygal@@V?$shared_ptr@UFace@NewDiagram@Voronoi@@@std@@@std@@V?$allocator@U?$pair@QEAUFace@?$Diagram@N@mygal@@V?$shared_ptr@UFace@NewDiagram@Voronoi@@@std@@@std@@@2@@std@@QEBA?AV?$_List_iterator@V?$_List_val@U?$_List_simple_types@U?$pair@QEAUFace@?$Diagram@N@mygal@@V?$shared_ptr@UFace@NewDiagram@Voronoi@@@std@@@std@@@std@@@std@@@2@PEAU?$_List_node@U?$pair@QEAUFace@?$Diagram@N@mygal@@V?$shared_ptr@UFace@NewDiagram@Voronoi@@@std@@@std@@PEAX@2@@Z 000000014005f2c0 f i Main.obj
 0002:00030340       ?_Make_iter@?$list@U?$pair@QEAUHalfEdge@?$Diagram@N@mygal@@V?$shared_ptr@UHalfEdge@NewDiagram@Voronoi@@@std@@@std@@V?$allocator@U?$pair@QEAUHalfEdge@?$Diagram@N@mygal@@V?$shared_ptr@UHalfEdge@NewDiagram@Voronoi@@@std@@@std@@@2@@std@@QEBA?AV?$_List_iterator@V?$_List_val@U?$_List_simple_types@U?$pair@QEAUHalfEdge@?$Diagram@N@mygal@@V?$shared_ptr@UHalfEdge@NewDiagram@Voronoi@@@std@@@std@@@std@@@std@@@2@PEAU?$_List_node@U?$pair@QEAUHalfEdge@?$Diagram@N@mygal@@V?$shared_ptr@UHalfEdge@NewDiagram@Voronoi@@@std@@@std@@PEAX@2@@Z 000000014005f340 f i Main.obj
 0002:000303c0       ?_Make_iter@?$list@U?$pair@QEAUVertex@?$Diagram@N@mygal@@V?$shared_ptr@UVertex@NewDiagram@Voronoi@@@std@@@std@@V?$allocator@U?$pair@QEAUVertex@?$Diagram@N@mygal@@V?$shared_ptr@UVertex@NewDiagram@Voronoi@@@std@@@std@@@2@@std@@QEBA?AV?$_List_iterator@V?$_List_val@U?$_List_simple_types@U?$pair@QEAUVertex@?$Diagram@N@mygal@@V?$shared_ptr@UVertex@NewDiagram@Voronoi@@@std@@@std@@@std@@@std@@@2@PEAU?$_List_node@U?$pair@QEAUVertex@?$Diagram@N@mygal@@V?$shared_ptr@UVertex@NewDiagram@Voronoi@@@std@@@std@@PEAX@2@@Z 000000014005f3c0 f i Main.obj
 0002:00030440       ?_Maklocwcs@std@@YAPEA_WPEB_W@Z 000000014005f440 f i Main.obj
 0002:00030500       ?_Max_bucket_size@?$_Hash@V?$_Umap_traits@PEAUFace@?$Diagram@N@mygal@@V?$shared_ptr@UFace@NewDiagram@Voronoi@@@std@@V?$_Uhash_compare@PEAUFace@?$Diagram@N@mygal@@U?$hash@PEAUFace@?$Diagram@N@mygal@@@std@@U?$equal_to@PEAUFace@?$Diagram@N@mygal@@@5@@5@V?$allocator@U?$pair@QEAUFace@?$Diagram@N@mygal@@V?$shared_ptr@UFace@NewDiagram@Voronoi@@@std@@@std@@@5@$0A@@std@@@std@@IEAAAEAMXZ 000000014005f500 f i Main.obj
 0002:00030550       ?_Max_bucket_size@?$_Hash@V?$_Umap_traits@PEAUFace@?$Diagram@N@mygal@@V?$shared_ptr@UFace@NewDiagram@Voronoi@@@std@@V?$_Uhash_compare@PEAUFace@?$Diagram@N@mygal@@U?$hash@PEAUFace@?$Diagram@N@mygal@@@std@@U?$equal_to@PEAUFace@?$Diagram@N@mygal@@@5@@5@V?$allocator@U?$pair@QEAUFace@?$Diagram@N@mygal@@V?$shared_ptr@UFace@NewDiagram@Voronoi@@@std@@@std@@@5@$0A@@std@@@std@@IEBAAEBMXZ 000000014005f550 f i Main.obj
 0002:000305a0       ?_Max_bucket_size@?$_Hash@V?$_Umap_traits@PEAUHalfEdge@?$Diagram@N@mygal@@V?$shared_ptr@UHalfEdge@NewDiagram@Voronoi@@@std@@V?$_Uhash_compare@PEAUHalfEdge@?$Diagram@N@mygal@@U?$hash@PEAUHalfEdge@?$Diagram@N@mygal@@@std@@U?$equal_to@PEAUHalfEdge@?$Diagram@N@mygal@@@5@@5@V?$allocator@U?$pair@QEAUHalfEdge@?$Diagram@N@mygal@@V?$shared_ptr@UHalfEdge@NewDiagram@Voronoi@@@std@@@std@@@5@$0A@@std@@@std@@IEAAAEAMXZ 000000014005f5a0 f i Main.obj
 0002:000305f0       ?_Max_bucket_size@?$_Hash@V?$_Umap_traits@PEAUHalfEdge@?$Diagram@N@mygal@@V?$shared_ptr@UHalfEdge@NewDiagram@Voronoi@@@std@@V?$_Uhash_compare@PEAUHalfEdge@?$Diagram@N@mygal@@U?$hash@PEAUHalfEdge@?$Diagram@N@mygal@@@std@@U?$equal_to@PEAUHalfEdge@?$Diagram@N@mygal@@@5@@5@V?$allocator@U?$pair@QEAUHalfEdge@?$Diagram@N@mygal@@V?$shared_ptr@UHalfEdge@NewDiagram@Voronoi@@@std@@@std@@@5@$0A@@std@@@std@@IEBAAEBMXZ 000000014005f5f0 f i Main.obj
 0002:00030640       ?_Max_bucket_size@?$_Hash@V?$_Umap_traits@PEAUVertex@?$Diagram@N@mygal@@V?$shared_ptr@UVertex@NewDiagram@Voronoi@@@std@@V?$_Uhash_compare@PEAUVertex@?$Diagram@N@mygal@@U?$hash@PEAUVertex@?$Diagram@N@mygal@@@std@@U?$equal_to@PEAUVertex@?$Diagram@N@mygal@@@5@@5@V?$allocator@U?$pair@QEAUVertex@?$Diagram@N@mygal@@V?$shared_ptr@UVertex@NewDiagram@Voronoi@@@std@@@std@@@5@$0A@@std@@@std@@IEAAAEAMXZ 000000014005f640 f i Main.obj
 0002:00030690       ?_Max_bucket_size@?$_Hash@V?$_Umap_traits@PEAUVertex@?$Diagram@N@mygal@@V?$shared_ptr@UVertex@NewDiagram@Voronoi@@@std@@V?$_Uhash_compare@PEAUVertex@?$Diagram@N@mygal@@U?$hash@PEAUVertex@?$Diagram@N@mygal@@@std@@U?$equal_to@PEAUVertex@?$Diagram@N@mygal@@@5@@5@V?$allocator@U?$pair@QEAUVertex@?$Diagram@N@mygal@@V?$shared_ptr@UVertex@NewDiagram@Voronoi@@@std@@@std@@@5@$0A@@std@@@std@@IEBAAEBMXZ 000000014005f690 f i Main.obj
 0002:000306e0       ?_Min_load_factor_buckets@?$_Hash@V?$_Umap_traits@PEAUFace@?$Diagram@N@mygal@@V?$shared_ptr@UFace@NewDiagram@Voronoi@@@std@@V?$_Uhash_compare@PEAUFace@?$Diagram@N@mygal@@U?$hash@PEAUFace@?$Diagram@N@mygal@@@std@@U?$equal_to@PEAUFace@?$Diagram@N@mygal@@@5@@5@V?$allocator@U?$pair@QEAUFace@?$Diagram@N@mygal@@V?$shared_ptr@UFace@NewDiagram@Voronoi@@@std@@@std@@@5@$0A@@std@@@std@@IEBA_K_K@Z 000000014005f6e0 f i Main.obj
 0002:000307d0       ?_Min_load_factor_buckets@?$_Hash@V?$_Umap_traits@PEAUHalfEdge@?$Diagram@N@mygal@@V?$shared_ptr@UHalfEdge@NewDiagram@Voronoi@@@std@@V?$_Uhash_compare@PEAUHalfEdge@?$Diagram@N@mygal@@U?$hash@PEAUHalfEdge@?$Diagram@N@mygal@@@std@@U?$equal_to@PEAUHalfEdge@?$Diagram@N@mygal@@@5@@5@V?$allocator@U?$pair@QEAUHalfEdge@?$Diagram@N@mygal@@V?$shared_ptr@UHalfEdge@NewDiagram@Voronoi@@@std@@@std@@@5@$0A@@std@@@std@@IEBA_K_K@Z 000000014005f7d0 f i Main.obj
 0002:000308c0       ?_Min_load_factor_buckets@?$_Hash@V?$_Umap_traits@PEAUVertex@?$Diagram@N@mygal@@V?$shared_ptr@UVertex@NewDiagram@Voronoi@@@std@@V?$_Uhash_compare@PEAUVertex@?$Diagram@N@mygal@@U?$hash@PEAUVertex@?$Diagram@N@mygal@@@std@@U?$equal_to@PEAUVertex@?$Diagram@N@mygal@@@5@@5@V?$allocator@U?$pair@QEAUVertex@?$Diagram@N@mygal@@V?$shared_ptr@UVertex@NewDiagram@Voronoi@@@std@@@std@@@5@$0A@@std@@@std@@IEBA_K_K@Z 000000014005f8c0 f i Main.obj
 0002:000309b0       ?_Myptr@?$_String_val@U?$_Simple_types@D@std@@@std@@QEAAPEADXZ 000000014005f9b0 f i Main.obj
 0002:00030a30       ?_Myptr@?$_String_val@U?$_Simple_types@D@std@@@std@@QEBAPEBDXZ 000000014005fa30 f i Main.obj
 0002:00030ab0       ?_Orphan_all@_Container_base12@std@@QEAAXXZ 000000014005fab0 f i Main.obj
 0002:00030b00       ?_Orphan_all_locked_v3@_Container_base12@std@@AEAAXXZ 000000014005fb00 f i Main.obj
 0002:00030bd0       ?_Orphan_all_unlocked_v3@_Container_base12@std@@AEAAXXZ 000000014005fbd0 f i Main.obj
 0002:00030c80       ?_Orphan_me_locked_v3@_Iterator_base12@std@@AEAAXXZ 000000014005fc80 f i Main.obj
 0002:00030d50       ?_Orphan_me_unlocked_v3@_Iterator_base12@std@@AEAAXXZ 000000014005fd50 f i Main.obj
 0002:00030eb0       ?_Orphan_non_end@?$_List_val@U?$_List_simple_types@U?$pair@QEAUFace@?$Diagram@N@mygal@@V?$shared_ptr@UFace@NewDiagram@Voronoi@@@std@@@std@@@std@@@std@@QEAAXXZ 000000014005feb0 f i Main.obj
 0002:00031000       ?_Orphan_non_end@?$_List_val@U?$_List_simple_types@U?$pair@QEAUHalfEdge@?$Diagram@N@mygal@@V?$shared_ptr@UHalfEdge@NewDiagram@Voronoi@@@std@@@std@@@std@@@std@@QEAAXXZ 0000000140060000 f i Main.obj
 0002:00031150       ?_Orphan_non_end@?$_List_val@U?$_List_simple_types@U?$pair@QEAUVertex@?$Diagram@N@mygal@@V?$shared_ptr@UVertex@NewDiagram@Voronoi@@@std@@@std@@@std@@@std@@QEAAXXZ 0000000140060150 f i Main.obj
 0002:000312a0       ?_Orphan_range@?$vector@U?$pair@VPoint2D@@N@std@@V?$allocator@U?$pair@VPoint2D@@N@std@@@2@@std@@AEBAXPEAU?$pair@VPoint2D@@N@2@0@Z 00000001400602a0 f i Main.obj
 0002:00031310       ?_Orphan_range@?$vector@UFace@?$Diagram@N@mygal@@V?$allocator@UFace@?$Diagram@N@mygal@@@std@@@std@@AEBAXPEAUFace@?$Diagram@N@mygal@@0@Z 0000000140060310 f i Main.obj
 0002:00031380       ?_Orphan_range@?$vector@USite@?$Diagram@N@mygal@@V?$allocator@USite@?$Diagram@N@mygal@@@std@@@std@@AEBAXPEAUSite@?$Diagram@N@mygal@@0@Z 0000000140060380 f i Main.obj
 0002:000313f0       ?_Orphan_range@?$vector@V?$Vector2@N@mygal@@V?$allocator@V?$Vector2@N@mygal@@@std@@@std@@AEBAXPEAV?$Vector2@N@mygal@@0@Z 00000001400603f0 f i Main.obj
 0002:00031460       ?_Orphan_range@?$vector@V?$shared_ptr@USite@NewDiagram@Voronoi@@@std@@V?$allocator@V?$shared_ptr@USite@NewDiagram@Voronoi@@@std@@@2@@std@@AEBAXPEAV?$shared_ptr@USite@NewDiagram@Voronoi@@@2@0@Z 0000000140060460 f i Main.obj
 0002:000314d0       ?_Orphan_range@?$vector@V?$unique_ptr@V?$Event@N@mygal@@U?$default_delete@V?$Event@N@mygal@@@std@@@std@@V?$allocator@V?$unique_ptr@V?$Event@N@mygal@@U?$default_delete@V?$Event@N@mygal@@@std@@@std@@@2@@std@@AEBAXPEAV?$unique_ptr@V?$Event@N@mygal@@U?$default_delete@V?$Event@N@mygal@@@std@@@2@0@Z 00000001400604d0 f i Main.obj
 0002:00031540       ?_Orphan_range@?$vector@VCircleShape@sf@@V?$allocator@VCircleShape@sf@@@std@@@std@@AEBAXPEAVCircleShape@sf@@0@Z 0000000140060540 f i Main.obj
 0002:000315b0       ?_Orphan_range_locked@?$vector@U?$pair@VPoint2D@@N@std@@V?$allocator@U?$pair@VPoint2D@@N@std@@@2@@std@@AEBAXPEAU?$pair@VPoint2D@@N@2@0@Z 00000001400605b0 f i Main.obj
 0002:00031690       ?_Orphan_range_locked@?$vector@UFace@?$Diagram@N@mygal@@V?$allocator@UFace@?$Diagram@N@mygal@@@std@@@std@@AEBAXPEAUFace@?$Diagram@N@mygal@@0@Z 0000000140060690 f i Main.obj
 0002:00031770       ?_Orphan_range_locked@?$vector@USite@?$Diagram@N@mygal@@V?$allocator@USite@?$Diagram@N@mygal@@@std@@@std@@AEBAXPEAUSite@?$Diagram@N@mygal@@0@Z 0000000140060770 f i Main.obj
 0002:00031850       ?_Orphan_range_locked@?$vector@V?$Vector2@N@mygal@@V?$allocator@V?$Vector2@N@mygal@@@std@@@std@@AEBAXPEAV?$Vector2@N@mygal@@0@Z 0000000140060850 f i Main.obj
 0002:00031930       ?_Orphan_range_locked@?$vector@V?$shared_ptr@USite@NewDiagram@Voronoi@@@std@@V?$allocator@V?$shared_ptr@USite@NewDiagram@Voronoi@@@std@@@2@@std@@AEBAXPEAV?$shared_ptr@USite@NewDiagram@Voronoi@@@2@0@Z 0000000140060930 f i Main.obj
 0002:00031a10       ?_Orphan_range_locked@?$vector@V?$unique_ptr@V?$Event@N@mygal@@U?$default_delete@V?$Event@N@mygal@@@std@@@std@@V?$allocator@V?$unique_ptr@V?$Event@N@mygal@@U?$default_delete@V?$Event@N@mygal@@@std@@@std@@@2@@std@@AEBAXPEAV?$unique_ptr@V?$Event@N@mygal@@U?$default_delete@V?$Event@N@mygal@@@std@@@2@0@Z 0000000140060a10 f i Main.obj
 0002:00031af0       ?_Orphan_range_locked@?$vector@VCircleShape@sf@@V?$allocator@VCircleShape@sf@@@std@@@std@@AEBAXPEAVCircleShape@sf@@0@Z 0000000140060af0 f i Main.obj
 0002:00031bd0       ?_Orphan_range_unlocked@?$vector@U?$pair@VPoint2D@@N@std@@V?$allocator@U?$pair@VPoint2D@@N@std@@@2@@std@@AEBAXPEAU?$pair@VPoint2D@@N@2@0@Z 0000000140060bd0 f i Main.obj
 0002:00031cb0       ?_Orphan_range_unlocked@?$vector@UFace@?$Diagram@N@mygal@@V?$allocator@UFace@?$Diagram@N@mygal@@@std@@@std@@AEBAXPEAUFace@?$Diagram@N@mygal@@0@Z 0000000140060cb0 f i Main.obj
 0002:00031d90       ?_Orphan_range_unlocked@?$vector@USite@?$Diagram@N@mygal@@V?$allocator@USite@?$Diagram@N@mygal@@@std@@@std@@AEBAXPEAUSite@?$Diagram@N@mygal@@0@Z 0000000140060d90 f i Main.obj
 0002:00031e70       ?_Orphan_range_unlocked@?$vector@V?$Vector2@N@mygal@@V?$allocator@V?$Vector2@N@mygal@@@std@@@std@@AEBAXPEAV?$Vector2@N@mygal@@0@Z 0000000140060e70 f i Main.obj
 0002:00031f50       ?_Orphan_range_unlocked@?$vector@V?$shared_ptr@USite@NewDiagram@Voronoi@@@std@@V?$allocator@V?$shared_ptr@USite@NewDiagram@Voronoi@@@std@@@2@@std@@AEBAXPEAV?$shared_ptr@USite@NewDiagram@Voronoi@@@2@0@Z 0000000140060f50 f i Main.obj
 0002:00032030       ?_Orphan_range_unlocked@?$vector@V?$unique_ptr@V?$Event@N@mygal@@U?$default_delete@V?$Event@N@mygal@@@std@@@std@@V?$allocator@V?$unique_ptr@V?$Event@N@mygal@@U?$default_delete@V?$Event@N@mygal@@@std@@@std@@@2@@std@@AEBAXPEAV?$unique_ptr@V?$Event@N@mygal@@U?$default_delete@V?$Event@N@mygal@@@std@@@2@0@Z 0000000140061030 f i Main.obj
 0002:00032110       ?_Orphan_range_unlocked@?$vector@VCircleShape@sf@@V?$allocator@VCircleShape@sf@@@std@@@std@@AEBAXPEAVCircleShape@sf@@0@Z 0000000140061110 f i Main.obj
 0002:000321f0       ?_Rehash_for_1@?$_Hash@V?$_Umap_traits@PEAUFace@?$Diagram@N@mygal@@V?$shared_ptr@UFace@NewDiagram@Voronoi@@@std@@V?$_Uhash_compare@PEAUFace@?$Diagram@N@mygal@@U?$hash@PEAUFace@?$Diagram@N@mygal@@@std@@U?$equal_to@PEAUFace@?$Diagram@N@mygal@@@5@@5@V?$allocator@U?$pair@QEAUFace@?$Diagram@N@mygal@@V?$shared_ptr@UFace@NewDiagram@Voronoi@@@std@@@std@@@5@$0A@@std@@@std@@IEAAXXZ 00000001400611f0 f i Main.obj
 0002:00032270       ?_Rehash_for_1@?$_Hash@V?$_Umap_traits@PEAUHalfEdge@?$Diagram@N@mygal@@V?$shared_ptr@UHalfEdge@NewDiagram@Voronoi@@@std@@V?$_Uhash_compare@PEAUHalfEdge@?$Diagram@N@mygal@@U?$hash@PEAUHalfEdge@?$Diagram@N@mygal@@@std@@U?$equal_to@PEAUHalfEdge@?$Diagram@N@mygal@@@5@@5@V?$allocator@U?$pair@QEAUHalfEdge@?$Diagram@N@mygal@@V?$shared_ptr@UHalfEdge@NewDiagram@Voronoi@@@std@@@std@@@5@$0A@@std@@@std@@IEAAXXZ 0000000140061270 f i Main.obj
 0002:000322f0       ?_Rehash_for_1@?$_Hash@V?$_Umap_traits@PEAUVertex@?$Diagram@N@mygal@@V?$shared_ptr@UVertex@NewDiagram@Voronoi@@@std@@V?$_Uhash_compare@PEAUVertex@?$Diagram@N@mygal@@U?$hash@PEAUVertex@?$Diagram@N@mygal@@@std@@U?$equal_to@PEAUVertex@?$Diagram@N@mygal@@@5@@5@V?$allocator@U?$pair@QEAUVertex@?$Diagram@N@mygal@@V?$shared_ptr@UVertex@NewDiagram@Voronoi@@@std@@@std@@@5@$0A@@std@@@std@@IEAAXXZ 00000001400612f0 f i Main.obj
 0002:00032370       ?_Release@?$_Alloc_construct_ptr@V?$allocator@U?$_List_node@U?$pair@QEAUFace@?$Diagram@N@mygal@@V?$shared_ptr@UFace@NewDiagram@Voronoi@@@std@@@std@@PEAX@std@@@std@@@std@@QEAAPEAU?$_List_node@U?$pair@QEAUFace@?$Diagram@N@mygal@@V?$shared_ptr@UFace@NewDiagram@Voronoi@@@std@@@std@@PEAX@2@XZ 0000000140061370 f i Main.obj
 0002:000323e0       ?_Release@?$_Alloc_construct_ptr@V?$allocator@U?$_List_node@U?$pair@QEAUHalfEdge@?$Diagram@N@mygal@@V?$shared_ptr@UHalfEdge@NewDiagram@Voronoi@@@std@@@std@@PEAX@std@@@std@@@std@@QEAAPEAU?$_List_node@U?$pair@QEAUHalfEdge@?$Diagram@N@mygal@@V?$shared_ptr@UHalfEdge@NewDiagram@Voronoi@@@std@@@std@@PEAX@2@XZ 00000001400613e0 f i Main.obj
 0002:00032450       ?_Release@?$_Alloc_construct_ptr@V?$allocator@U?$_List_node@U?$pair@QEAUVertex@?$Diagram@N@mygal@@V?$shared_ptr@UVertex@NewDiagram@Voronoi@@@std@@@std@@PEAX@std@@@std@@@std@@QEAAPEAU?$_List_node@U?$pair@QEAUVertex@?$Diagram@N@mygal@@V?$shared_ptr@UVertex@NewDiagram@Voronoi@@@std@@@std@@PEAX@2@XZ 0000000140061450 f i Main.obj
 0002:000324c0       ?_Release@?$_Uninitialized_backout@PEAV?$_List_unchecked_iterator@V?$_List_val@U?$_List_simple_types@U?$pair@QEAUFace@?$Diagram@N@mygal@@V?$shared_ptr@UFace@NewDiagram@Voronoi@@@std@@@std@@@std@@@std@@@std@@@std@@QEAAPEAV?$_List_unchecked_iterator@V?$_List_val@U?$_List_simple_types@U?$pair@QEAUFace@?$Diagram@N@mygal@@V?$shared_ptr@UFace@NewDiagram@Voronoi@@@std@@@std@@@std@@@std@@@2@XZ 00000001400614c0 f i Main.obj
 0002:00032520       ?_Release@?$_Uninitialized_backout@PEAV?$_List_unchecked_iterator@V?$_List_val@U?$_List_simple_types@U?$pair@QEAUHalfEdge@?$Diagram@N@mygal@@V?$shared_ptr@UHalfEdge@NewDiagram@Voronoi@@@std@@@std@@@std@@@std@@@std@@@std@@QEAAPEAV?$_List_unchecked_iterator@V?$_List_val@U?$_List_simple_types@U?$pair@QEAUHalfEdge@?$Diagram@N@mygal@@V?$shared_ptr@UHalfEdge@NewDiagram@Voronoi@@@std@@@std@@@std@@@std@@@2@XZ 0000000140061520 f i Main.obj
 0002:00032580       ?_Release@?$_Uninitialized_backout@PEAV?$_List_unchecked_iterator@V?$_List_val@U?$_List_simple_types@U?$pair@QEAUVertex@?$Diagram@N@mygal@@V?$shared_ptr@UVertex@NewDiagram@Voronoi@@@std@@@std@@@std@@@std@@@std@@@std@@QEAAPEAV?$_List_unchecked_iterator@V?$_List_val@U?$_List_simple_types@U?$pair@QEAUVertex@?$Diagram@N@mygal@@V?$shared_ptr@UVertex@NewDiagram@Voronoi@@@std@@@std@@@std@@@std@@@2@XZ 0000000140061580 f i Main.obj
 0002:000325e0       ?_Release@?$_Uninitialized_backout_al@V?$allocator@U?$pair@VPoint2D@@N@std@@@std@@@std@@QEAAPEAU?$pair@VPoint2D@@N@2@XZ 00000001400615e0 f i Main.obj
 0002:00032640       ?_Release@?$_Uninitialized_backout_al@V?$allocator@UFace@?$Diagram@N@mygal@@@std@@@std@@QEAAPEAUFace@?$Diagram@N@mygal@@XZ 0000000140061640 f i Main.obj
 0002:000326a0       ?_Release@?$_Uninitialized_backout_al@V?$allocator@USite@?$Diagram@N@mygal@@@std@@@std@@QEAAPEAUSite@?$Diagram@N@mygal@@XZ 00000001400616a0 f i Main.obj
 0002:00032700       ?_Release@?$_Uninitialized_backout_al@V?$allocator@V?$Vector2@N@mygal@@@std@@@std@@QEAAPEAV?$Vector2@N@mygal@@XZ 0000000140061700 f i Main.obj
 0002:00032760       ?_Release@?$_Uninitialized_backout_al@V?$allocator@V?$shared_ptr@USite@NewDiagram@Voronoi@@@std@@@std@@@std@@QEAAPEAV?$shared_ptr@USite@NewDiagram@Voronoi@@@2@XZ 0000000140061760 f i Main.obj
 0002:000327c0       ?_Release@?$_Uninitialized_backout_al@V?$allocator@V?$unique_ptr@V?$Event@N@mygal@@U?$default_delete@V?$Event@N@mygal@@@std@@@std@@@std@@@std@@QEAAPEAV?$unique_ptr@V?$Event@N@mygal@@U?$default_delete@V?$Event@N@mygal@@@std@@@2@XZ 00000001400617c0 f i Main.obj
 0002:00032820       ?_Release@?$_Uninitialized_backout_al@V?$allocator@VCircleShape@sf@@@std@@@std@@QEAAPEAVCircleShape@sf@@XZ 0000000140061820 f i Main.obj
 0002:00032880       ?_Release@_Basic_container_proxy_ptr12@std@@QEAAXXZ 0000000140061880 f i Main.obj
 0002:000328d0       ?_Reset_back@?$basic_filebuf@DU?$char_traits@D@std@@@std@@AEAAXXZ 00000001400618d0 f i Main.obj
 0002:00032970       ?_Set_back@?$basic_filebuf@DU?$char_traits@D@std@@@std@@AEAAXXZ 0000000140061970 f i Main.obj
 0002:00032a50       ?_Swap@?$_Ptr_base@UFace@NewDiagram@Voronoi@@@std@@IEAAXAEAV12@@Z 0000000140061a50 f i Main.obj
 0002:00032ad0       ?_Swap@?$_Ptr_base@UHalfEdge@NewDiagram@Voronoi@@@std@@IEAAXAEAV12@@Z 0000000140061ad0 f i Main.obj
 0002:00032b50       ?_Swap@?$_Ptr_base@USite@NewDiagram@Voronoi@@@std@@IEAAXAEAV12@@Z 0000000140061b50 f i Main.obj
 0002:00032bd0       ?_Swap@?$_Ptr_base@UVertex@NewDiagram@Voronoi@@@std@@IEAAXAEAV12@@Z 0000000140061bd0 f i Main.obj
 0002:00032c50       ?_Swap_proxy_and_iterators@_Container_base12@std@@QEAAXAEAU12@@Z 0000000140061c50 f i Main.obj
 0002:00032cb0       ?_Swap_proxy_and_iterators_locked@_Container_base12@std@@AEAAXAEAU12@@Z 0000000140061cb0 f i Main.obj
 0002:00032d80       ?_Swap_proxy_and_iterators_unlocked@_Container_base12@std@@AEAAXAEAU12@@Z 0000000140061d80 f i Main.obj
 0002:00032e50       ?_Swap_val@?$list@UHalfEdge@?$Diagram@N@mygal@@V?$allocator@UHalfEdge@?$Diagram@N@mygal@@@std@@@std@@AEAAXAEAV12@@Z 0000000140061e50 f i Main.obj
 0002:00032f00       ?_Swap_val@?$list@UVertex@?$Diagram@N@mygal@@V?$allocator@UVertex@?$Diagram@N@mygal@@@std@@@std@@AEAAXAEAV12@@Z 0000000140061f00 f i Main.obj
 0002:00032fb0       ?_Switch_to_buf@_Bxty@?$_String_val@U?$_Simple_types@D@std@@@std@@QEAAXXZ 0000000140061fb0 f i Main.obj
 0002:00033000       ?_Throw_bad_array_new_length@std@@YAXXZ 0000000140062000 f i Main.obj
 0002:00033060       ?_Throw_bad_cast@std@@YAXXZ 0000000140062060 f i Main.obj
 0002:000330c0       ?_Tidy@?$_Hash_vec@V?$allocator@V?$_List_unchecked_iterator@V?$_List_val@U?$_List_simple_types@U?$pair@QEAUFace@?$Diagram@N@mygal@@V?$shared_ptr@UFace@NewDiagram@Voronoi@@@std@@@std@@@std@@@std@@@std@@@std@@@std@@QEAAXXZ 00000001400620c0 f i Main.obj
 0002:000331e0       ?_Tidy@?$_Hash_vec@V?$allocator@V?$_List_unchecked_iterator@V?$_List_val@U?$_List_simple_types@U?$pair@QEAUHalfEdge@?$Diagram@N@mygal@@V?$shared_ptr@UHalfEdge@NewDiagram@Voronoi@@@std@@@std@@@std@@@std@@@std@@@std@@@std@@QEAAXXZ 00000001400621e0 f i Main.obj
 0002:00033300       ?_Tidy@?$_Hash_vec@V?$allocator@V?$_List_unchecked_iterator@V?$_List_val@U?$_List_simple_types@U?$pair@QEAUVertex@?$Diagram@N@mygal@@V?$shared_ptr@UVertex@NewDiagram@Voronoi@@@std@@@std@@@std@@@std@@@std@@@std@@@std@@QEAAXXZ 0000000140062300 f i Main.obj
 0002:00033420       ?_Tidy@?$list@U?$pair@QEAUFace@?$Diagram@N@mygal@@V?$shared_ptr@UFace@NewDiagram@Voronoi@@@std@@@std@@V?$allocator@U?$pair@QEAUFace@?$Diagram@N@mygal@@V?$shared_ptr@UFace@NewDiagram@Voronoi@@@std@@@std@@@2@@std@@AEAAXXZ 0000000140062420 f i Main.obj
 0002:000334b0       ?_Tidy@?$list@U?$pair@QEAUHalfEdge@?$Diagram@N@mygal@@V?$shared_ptr@UHalfEdge@NewDiagram@Voronoi@@@std@@@std@@V?$allocator@U?$pair@QEAUHalfEdge@?$Diagram@N@mygal@@V?$shared_ptr@UHalfEdge@NewDiagram@Voronoi@@@std@@@std@@@2@@std@@AEAAXXZ 00000001400624b0 f i Main.obj
 0002:00033540       ?_Tidy@?$list@U?$pair@QEAUVertex@?$Diagram@N@mygal@@V?$shared_ptr@UVertex@NewDiagram@Voronoi@@@std@@@std@@V?$allocator@U?$pair@QEAUVertex@?$Diagram@N@mygal@@V?$shared_ptr@UVertex@NewDiagram@Voronoi@@@std@@@std@@@2@@std@@AEAAXXZ 0000000140062540 f i Main.obj
 0002:000335d0       ?_Tidy@?$list@UHalfEdge@?$Diagram@N@mygal@@V?$allocator@UHalfEdge@?$Diagram@N@mygal@@@std@@@std@@AEAAXXZ 00000001400625d0 f i Main.obj
 0002:00033660       ?_Tidy@?$list@UVertex@?$Diagram@N@mygal@@V?$allocator@UVertex@?$Diagram@N@mygal@@@std@@@std@@AEAAXXZ 0000000140062660 f i Main.obj
 0002:000336f0       ?_Tidy@?$list@V?$shared_ptr@UFace@NewDiagram@Voronoi@@@std@@V?$allocator@V?$shared_ptr@UFace@NewDiagram@Voronoi@@@std@@@2@@std@@AEAAXXZ 00000001400626f0 f i Main.obj
 0002:00033780       ?_Tidy@?$vector@U?$pair@VPoint2D@@N@std@@V?$allocator@U?$pair@VPoint2D@@N@std@@@2@@std@@AEAAXXZ 0000000140062780 f i Main.obj
 0002:000338b0       ?_Tidy@?$vector@UFace@?$Diagram@N@mygal@@V?$allocator@UFace@?$Diagram@N@mygal@@@std@@@std@@AEAAXXZ 00000001400628b0 f i Main.obj
 0002:000339e0       ?_Tidy@?$vector@USite@?$Diagram@N@mygal@@V?$allocator@USite@?$Diagram@N@mygal@@@std@@@std@@AEAAXXZ 00000001400629e0 f i Main.obj
 0002:00033b10       ?_Tidy@?$vector@V?$Vector2@N@mygal@@V?$allocator@V?$Vector2@N@mygal@@@std@@@std@@AEAAXXZ 0000000140062b10 f i Main.obj
 0002:00033c40       ?_Tidy@?$vector@V?$shared_ptr@USite@NewDiagram@Voronoi@@@std@@V?$allocator@V?$shared_ptr@USite@NewDiagram@Voronoi@@@std@@@2@@std@@AEAAXXZ 0000000140062c40 f i Main.obj
 0002:00033d70       ?_Tidy@?$vector@V?$unique_ptr@V?$Event@N@mygal@@U?$default_delete@V?$Event@N@mygal@@@std@@@std@@V?$allocator@V?$unique_ptr@V?$Event@N@mygal@@U?$default_delete@V?$Event@N@mygal@@@std@@@std@@@2@@std@@AEAAXXZ 0000000140062d70 f i Main.obj
 0002:00033ea0       ?_Tidy@?$vector@VCircleShape@sf@@V?$allocator@VCircleShape@sf@@@std@@@std@@AEAAXXZ 0000000140062ea0 f i Main.obj
 0002:00033fd0       ?_Tidy_deallocate@?$basic_string@DU?$char_traits@D@std@@V?$allocator@D@2@@std@@AEAAXXZ 0000000140062fd0 f i Main.obj
 0002:000340d0       ?_Transfer_before@?$_List_node_emplace_op2@V?$allocator@U?$_List_node@UHalfEdge@?$Diagram@N@mygal@@PEAX@std@@@std@@@std@@QEAAPEAU?$_List_node@UHalfEdge@?$Diagram@N@mygal@@PEAX@2@QEAU32@@Z 00000001400630d0 f i Main.obj
 0002:00034210       ?_Transfer_before@?$_List_node_emplace_op2@V?$allocator@U?$_List_node@UVertex@?$Diagram@N@mygal@@PEAX@std@@@std@@@std@@QEAAPEAU?$_List_node@UVertex@?$Diagram@N@mygal@@PEAX@2@QEAU32@@Z 0000000140063210 f i Main.obj
 0002:00034350       ?_Transfer_before@?$_List_node_emplace_op2@V?$allocator@U?$_List_node@V?$shared_ptr@UFace@NewDiagram@Voronoi@@@std@@PEAX@std@@@std@@@std@@QEAAPEAU?$_List_node@V?$shared_ptr@UFace@NewDiagram@Voronoi@@@std@@PEAX@2@QEAU32@@Z 0000000140063350 f i Main.obj
 0002:00034490       ?_Unchecked_begin@?$_Hash@V?$_Umap_traits@PEAUFace@?$Diagram@N@mygal@@V?$shared_ptr@UFace@NewDiagram@Voronoi@@@std@@V?$_Uhash_compare@PEAUFace@?$Diagram@N@mygal@@U?$hash@PEAUFace@?$Diagram@N@mygal@@@std@@U?$equal_to@PEAUFace@?$Diagram@N@mygal@@@5@@5@V?$allocator@U?$pair@QEAUFace@?$Diagram@N@mygal@@V?$shared_ptr@UFace@NewDiagram@Voronoi@@@std@@@std@@@5@$0A@@std@@@std@@QEAA?AV?$_List_unchecked_iterator@V?$_List_val@U?$_List_simple_types@U?$pair@QEAUFace@?$Diagram@N@mygal@@V?$shared_ptr@UFace@NewDiagram@Voronoi@@@std@@@std@@@std@@@std@@@2@XZ 0000000140063490 f i Main.obj
 0002:00034510       ?_Unchecked_begin@?$_Hash@V?$_Umap_traits@PEAUHalfEdge@?$Diagram@N@mygal@@V?$shared_ptr@UHalfEdge@NewDiagram@Voronoi@@@std@@V?$_Uhash_compare@PEAUHalfEdge@?$Diagram@N@mygal@@U?$hash@PEAUHalfEdge@?$Diagram@N@mygal@@@std@@U?$equal_to@PEAUHalfEdge@?$Diagram@N@mygal@@@5@@5@V?$allocator@U?$pair@QEAUHalfEdge@?$Diagram@N@mygal@@V?$shared_ptr@UHalfEdge@NewDiagram@Voronoi@@@std@@@std@@@5@$0A@@std@@@std@@QEAA?AV?$_List_unchecked_iterator@V?$_List_val@U?$_List_simple_types@U?$pair@QEAUHalfEdge@?$Diagram@N@mygal@@V?$shared_ptr@UHalfEdge@NewDiagram@Voronoi@@@std@@@std@@@std@@@std@@@2@XZ 0000000140063510 f i Main.obj
 0002:00034590       ?_Unchecked_begin@?$_Hash@V?$_Umap_traits@PEAUVertex@?$Diagram@N@mygal@@V?$shared_ptr@UVertex@NewDiagram@Voronoi@@@std@@V?$_Uhash_compare@PEAUVertex@?$Diagram@N@mygal@@U?$hash@PEAUVertex@?$Diagram@N@mygal@@@std@@U?$equal_to@PEAUVertex@?$Diagram@N@mygal@@@5@@5@V?$allocator@U?$pair@QEAUVertex@?$Diagram@N@mygal@@V?$shared_ptr@UVertex@NewDiagram@Voronoi@@@std@@@std@@@5@$0A@@std@@@std@@QEAA?AV?$_List_unchecked_iterator@V?$_List_val@U?$_List_simple_types@U?$pair@QEAUVertex@?$Diagram@N@mygal@@V?$shared_ptr@UVertex@NewDiagram@Voronoi@@@std@@@std@@@std@@@std@@@2@XZ 0000000140063590 f i Main.obj
 0002:00034610       ?_Unchecked_begin@?$list@U?$pair@QEAUFace@?$Diagram@N@mygal@@V?$shared_ptr@UFace@NewDiagram@Voronoi@@@std@@@std@@V?$allocator@U?$pair@QEAUFace@?$Diagram@N@mygal@@V?$shared_ptr@UFace@NewDiagram@Voronoi@@@std@@@std@@@2@@std@@QEAA?AV?$_List_unchecked_iterator@V?$_List_val@U?$_List_simple_types@U?$pair@QEAUFace@?$Diagram@N@mygal@@V?$shared_ptr@UFace@NewDiagram@Voronoi@@@std@@@std@@@std@@@std@@@2@XZ 0000000140063610 f i Main.obj
 0002:00034680       ?_Unchecked_begin@?$list@U?$pair@QEAUHalfEdge@?$Diagram@N@mygal@@V?$shared_ptr@UHalfEdge@NewDiagram@Voronoi@@@std@@@std@@V?$allocator@U?$pair@QEAUHalfEdge@?$Diagram@N@mygal@@V?$shared_ptr@UHalfEdge@NewDiagram@Voronoi@@@std@@@std@@@2@@std@@QEAA?AV?$_List_unchecked_iterator@V?$_List_val@U?$_List_simple_types@U?$pair@QEAUHalfEdge@?$Diagram@N@mygal@@V?$shared_ptr@UHalfEdge@NewDiagram@Voronoi@@@std@@@std@@@std@@@std@@@2@XZ 0000000140063680 f i Main.obj
 0002:000346f0       ?_Unchecked_begin@?$list@U?$pair@QEAUVertex@?$Diagram@N@mygal@@V?$shared_ptr@UVertex@NewDiagram@Voronoi@@@std@@@std@@V?$allocator@U?$pair@QEAUVertex@?$Diagram@N@mygal@@V?$shared_ptr@UVertex@NewDiagram@Voronoi@@@std@@@std@@@2@@std@@QEAA?AV?$_List_unchecked_iterator@V?$_List_val@U?$_List_simple_types@U?$pair@QEAUVertex@?$Diagram@N@mygal@@V?$shared_ptr@UVertex@NewDiagram@Voronoi@@@std@@@std@@@std@@@std@@@2@XZ 00000001400636f0 f i Main.obj
 0002:00034760       ?_Unchecked_begin@?$list@UHalfEdge@?$Diagram@N@mygal@@V?$allocator@UHalfEdge@?$Diagram@N@mygal@@@std@@@std@@QEBA?AV?$_List_unchecked_const_iterator@V?$_List_val@U?$_List_simple_types@UHalfEdge@?$Diagram@N@mygal@@@std@@@std@@U_Iterator_base0@2@@2@XZ 0000000140063760 f i Main.obj
 0002:000347d0       ?_Unchecked_begin@?$list@V?$shared_ptr@UFace@NewDiagram@Voronoi@@@std@@V?$allocator@V?$shared_ptr@UFace@NewDiagram@Voronoi@@@std@@@2@@std@@QEAA?AV?$_List_unchecked_iterator@V?$_List_val@U?$_List_simple_types@V?$shared_ptr@UFace@NewDiagram@Voronoi@@@std@@@std@@@std@@@2@XZ 00000001400637d0 f i Main.obj
 0002:00034840       ?_Unchecked_begin@?$vector@U?$pair@VPoint2D@@N@std@@V?$allocator@U?$pair@VPoint2D@@N@std@@@2@@std@@QEAAPEAU?$pair@VPoint2D@@N@2@XZ 0000000140063840 f i Main.obj
 0002:00034890       ?_Unchecked_begin@?$vector@VCircleShape@sf@@V?$allocator@VCircleShape@sf@@@std@@@std@@QEAAPEAVCircleShape@sf@@XZ 0000000140063890 f i Main.obj
 0002:000348e0       ?_Unchecked_end@?$_Hash@V?$_Umap_traits@PEAUFace@?$Diagram@N@mygal@@V?$shared_ptr@UFace@NewDiagram@Voronoi@@@std@@V?$_Uhash_compare@PEAUFace@?$Diagram@N@mygal@@U?$hash@PEAUFace@?$Diagram@N@mygal@@@std@@U?$equal_to@PEAUFace@?$Diagram@N@mygal@@@5@@5@V?$allocator@U?$pair@QEAUFace@?$Diagram@N@mygal@@V?$shared_ptr@UFace@NewDiagram@Voronoi@@@std@@@std@@@5@$0A@@std@@@std@@QEAA?AV?$_List_unchecked_iterator@V?$_List_val@U?$_List_simple_types@U?$pair@QEAUFace@?$Diagram@N@mygal@@V?$shared_ptr@UFace@NewDiagram@Voronoi@@@std@@@std@@@std@@@std@@@2@XZ 00000001400638e0 f i Main.obj
 0002:00034960       ?_Unchecked_end@?$_Hash@V?$_Umap_traits@PEAUHalfEdge@?$Diagram@N@mygal@@V?$shared_ptr@UHalfEdge@NewDiagram@Voronoi@@@std@@V?$_Uhash_compare@PEAUHalfEdge@?$Diagram@N@mygal@@U?$hash@PEAUHalfEdge@?$Diagram@N@mygal@@@std@@U?$equal_to@PEAUHalfEdge@?$Diagram@N@mygal@@@5@@5@V?$allocator@U?$pair@QEAUHalfEdge@?$Diagram@N@mygal@@V?$shared_ptr@UHalfEdge@NewDiagram@Voronoi@@@std@@@std@@@5@$0A@@std@@@std@@QEAA?AV?$_List_unchecked_iterator@V?$_List_val@U?$_List_simple_types@U?$pair@QEAUHalfEdge@?$Diagram@N@mygal@@V?$shared_ptr@UHalfEdge@NewDiagram@Voronoi@@@std@@@std@@@std@@@std@@@2@XZ 0000000140063960 f i Main.obj
 0002:000349e0       ?_Unchecked_end@?$_Hash@V?$_Umap_traits@PEAUVertex@?$Diagram@N@mygal@@V?$shared_ptr@UVertex@NewDiagram@Voronoi@@@std@@V?$_Uhash_compare@PEAUVertex@?$Diagram@N@mygal@@U?$hash@PEAUVertex@?$Diagram@N@mygal@@@std@@U?$equal_to@PEAUVertex@?$Diagram@N@mygal@@@5@@5@V?$allocator@U?$pair@QEAUVertex@?$Diagram@N@mygal@@V?$shared_ptr@UVertex@NewDiagram@Voronoi@@@std@@@std@@@5@$0A@@std@@@std@@QEAA?AV?$_List_unchecked_iterator@V?$_List_val@U?$_List_simple_types@U?$pair@QEAUVertex@?$Diagram@N@mygal@@V?$shared_ptr@UVertex@NewDiagram@Voronoi@@@std@@@std@@@std@@@std@@@2@XZ 00000001400639e0 f i Main.obj
 0002:00034a60       ?_Unchecked_end@?$list@U?$pair@QEAUFace@?$Diagram@N@mygal@@V?$shared_ptr@UFace@NewDiagram@Voronoi@@@std@@@std@@V?$allocator@U?$pair@QEAUFace@?$Diagram@N@mygal@@V?$shared_ptr@UFace@NewDiagram@Voronoi@@@std@@@std@@@2@@std@@QEAA?AV?$_List_unchecked_iterator@V?$_List_val@U?$_List_simple_types@U?$pair@QEAUFace@?$Diagram@N@mygal@@V?$shared_ptr@UFace@NewDiagram@Voronoi@@@std@@@std@@@std@@@std@@@2@XZ 0000000140063a60 f i Main.obj
 0002:00034ad0       ?_Unchecked_end@?$list@U?$pair@QEAUHalfEdge@?$Diagram@N@mygal@@V?$shared_ptr@UHalfEdge@NewDiagram@Voronoi@@@std@@@std@@V?$allocator@U?$pair@QEAUHalfEdge@?$Diagram@N@mygal@@V?$shared_ptr@UHalfEdge@NewDiagram@Voronoi@@@std@@@std@@@2@@std@@QEAA?AV?$_List_unchecked_iterator@V?$_List_val@U?$_List_simple_types@U?$pair@QEAUHalfEdge@?$Diagram@N@mygal@@V?$shared_ptr@UHalfEdge@NewDiagram@Voronoi@@@std@@@std@@@std@@@std@@@2@XZ 0000000140063ad0 f i Main.obj
 0002:00034b40       ?_Unchecked_end@?$list@U?$pair@QEAUVertex@?$Diagram@N@mygal@@V?$shared_ptr@UVertex@NewDiagram@Voronoi@@@std@@@std@@V?$allocator@U?$pair@QEAUVertex@?$Diagram@N@mygal@@V?$shared_ptr@UVertex@NewDiagram@Voronoi@@@std@@@std@@@2@@std@@QEAA?AV?$_List_unchecked_iterator@V?$_List_val@U?$_List_simple_types@U?$pair@QEAUVertex@?$Diagram@N@mygal@@V?$shared_ptr@UVertex@NewDiagram@Voronoi@@@std@@@std@@@std@@@std@@@2@XZ 0000000140063b40 f i Main.obj
 0002:00034bb0       ?_Unchecked_end@?$list@UHalfEdge@?$Diagram@N@mygal@@V?$allocator@UHalfEdge@?$Diagram@N@mygal@@@std@@@std@@QEBA?AV?$_List_unchecked_const_iterator@V?$_List_val@U?$_List_simple_types@UHalfEdge@?$Diagram@N@mygal@@@std@@@std@@U_Iterator_base0@2@@2@XZ 0000000140063bb0 f i Main.obj
 0002:00034c20       ?_Unchecked_end@?$list@V?$shared_ptr@UFace@NewDiagram@Voronoi@@@std@@V?$allocator@V?$shared_ptr@UFace@NewDiagram@Voronoi@@@std@@@2@@std@@QEAA?AV?$_List_unchecked_iterator@V?$_List_val@U?$_List_simple_types@V?$shared_ptr@UFace@NewDiagram@Voronoi@@@std@@@std@@@std@@@2@XZ 0000000140063c20 f i Main.obj
 0002:00034c90       ?_Unchecked_end@?$vector@U?$pair@VPoint2D@@N@std@@V?$allocator@U?$pair@VPoint2D@@N@std@@@2@@std@@QEAAPEAU?$pair@VPoint2D@@N@2@XZ 0000000140063c90 f i Main.obj
 0002:00034ce0       ?_Unchecked_end@?$vector@VCircleShape@sf@@V?$allocator@VCircleShape@sf@@@std@@@std@@QEAAPEAVCircleShape@sf@@XZ 0000000140063ce0 f i Main.obj
 0002:00034d30       ?_Unchecked_erase@?$_Hash@V?$_Umap_traits@PEAUFace@?$Diagram@N@mygal@@V?$shared_ptr@UFace@NewDiagram@Voronoi@@@std@@V?$_Uhash_compare@PEAUFace@?$Diagram@N@mygal@@U?$hash@PEAUFace@?$Diagram@N@mygal@@@std@@U?$equal_to@PEAUFace@?$Diagram@N@mygal@@@5@@5@V?$allocator@U?$pair@QEAUFace@?$Diagram@N@mygal@@V?$shared_ptr@UFace@NewDiagram@Voronoi@@@std@@@std@@@5@$0A@@std@@@std@@AEAAPEAU?$_List_node@U?$pair@QEAUFace@?$Diagram@N@mygal@@V?$shared_ptr@UFace@NewDiagram@Voronoi@@@std@@@std@@PEAX@2@PEAU32@QEAU32@@Z 0000000140063d30 f i Main.obj
 0002:000350b0       ??1?$vector@V?$shared_ptr@UHalfEdge@NewDiagram@Voronoi@@@std@@V?$allocator@V?$shared_ptr@UHalfEdge@NewDiagram@Voronoi@@@std@@@2@@std@@QEAA@XZ 00000001400640b0 f i MinKnapsack.obj
 0002:00035190       ?_Unchecked_erase@?$_Hash@V?$_Umap_traits@PEAUHalfEdge@?$Diagram@N@mygal@@V?$shared_ptr@UHalfEdge@NewDiagram@Voronoi@@@std@@V?$_Uhash_compare@PEAUHalfEdge@?$Diagram@N@mygal@@U?$hash@PEAUHalfEdge@?$Diagram@N@mygal@@@std@@U?$equal_to@PEAUHalfEdge@?$Diagram@N@mygal@@@5@@5@V?$allocator@U?$pair@QEAUHalfEdge@?$Diagram@N@mygal@@V?$shared_ptr@UHalfEdge@NewDiagram@Voronoi@@@std@@@std@@@5@$0A@@std@@@std@@AEAAPEAU?$_List_node@U?$pair@QEAUHalfEdge@?$Diagram@N@mygal@@V?$shared_ptr@UHalfEdge@NewDiagram@Voronoi@@@std@@@std@@PEAX@2@PEAU32@QEAU32@@Z 0000000140064190 f i Main.obj
 0002:00035510       ??F?$_List_iterator@V?$_List_val@U?$_List_simple_types@PEAUSpecial_vertex@@@std@@@std@@@std@@QEAA?AV01@H@Z 0000000140064510 f i MinKnapsack.obj
 0002:000355f0       ?_Unchecked_erase@?$_Hash@V?$_Umap_traits@PEAUVertex@?$Diagram@N@mygal@@V?$shared_ptr@UVertex@NewDiagram@Voronoi@@@std@@V?$_Uhash_compare@PEAUVertex@?$Diagram@N@mygal@@U?$hash@PEAUVertex@?$Diagram@N@mygal@@@std@@U?$equal_to@PEAUVertex@?$Diagram@N@mygal@@@5@@5@V?$allocator@U?$pair@QEAUVertex@?$Diagram@N@mygal@@V?$shared_ptr@UVertex@NewDiagram@Voronoi@@@std@@@std@@@5@$0A@@std@@@std@@AEAAPEAU?$_List_node@U?$pair@QEAUVertex@?$Diagram@N@mygal@@V?$shared_ptr@UVertex@NewDiagram@Voronoi@@@std@@@std@@PEAX@2@PEAU32@QEAU32@@Z 00000001400645f0 f i Main.obj
 0002:00035970       ?_Orphan_range_unlocked@?$vector@V?$shared_ptr@UFace@NewDiagram@Voronoi@@@std@@V?$allocator@V?$shared_ptr@UFace@NewDiagram@Voronoi@@@std@@@2@@std@@AEBAXPEAV?$shared_ptr@UFace@NewDiagram@Voronoi@@@2@0@Z 0000000140064970 f i MinKnapsack.obj
 0002:00035a50       ?_Unchecked_erase@?$list@U?$pair@QEAUFace@?$Diagram@N@mygal@@V?$shared_ptr@UFace@NewDiagram@Voronoi@@@std@@@std@@V?$allocator@U?$pair@QEAUFace@?$Diagram@N@mygal@@V?$shared_ptr@UFace@NewDiagram@Voronoi@@@std@@@std@@@2@@std@@AEAAPEAU?$_List_node@U?$pair@QEAUFace@?$Diagram@N@mygal@@V?$shared_ptr@UFace@NewDiagram@Voronoi@@@std@@@std@@PEAX@2@PEAU32@QEAU32@@Z 0000000140064a50 f i Main.obj
 0002:00035d70       ?_Unchecked_erase@?$list@U?$pair@QEAUHalfEdge@?$Diagram@N@mygal@@V?$shared_ptr@UHalfEdge@NewDiagram@Voronoi@@@std@@@std@@V?$allocator@U?$pair@QEAUHalfEdge@?$Diagram@N@mygal@@V?$shared_ptr@UHalfEdge@NewDiagram@Voronoi@@@std@@@std@@@2@@std@@AEAAPEAU?$_List_node@U?$pair@QEAUHalfEdge@?$Diagram@N@mygal@@V?$shared_ptr@UHalfEdge@NewDiagram@Voronoi@@@std@@@std@@PEAX@2@PEAU32@QEAU32@@Z 0000000140064d70 f i Main.obj
 0002:00036090       ?_Unchecked_erase@?$list@U?$pair@QEAUVertex@?$Diagram@N@mygal@@V?$shared_ptr@UVertex@NewDiagram@Voronoi@@@std@@@std@@V?$allocator@U?$pair@QEAUVertex@?$Diagram@N@mygal@@V?$shared_ptr@UVertex@NewDiagram@Voronoi@@@std@@@std@@@2@@std@@AEAAPEAU?$_List_node@U?$pair@QEAUVertex@?$Diagram@N@mygal@@V?$shared_ptr@UVertex@NewDiagram@Voronoi@@@std@@@std@@PEAX@2@PEAU32@QEAU32@@Z 0000000140065090 f i Main.obj
 0002:000363b0       ?_Unchecked_splice@?$_List_val@U?$_List_simple_types@U?$pair@QEAUFace@?$Diagram@N@mygal@@V?$shared_ptr@UFace@NewDiagram@Voronoi@@@std@@@std@@@std@@@std@@SAPEAU?$_List_node@U?$pair@QEAUFace@?$Diagram@N@mygal@@V?$shared_ptr@UFace@NewDiagram@Voronoi@@@std@@@std@@PEAX@2@QEAU32@00@Z 00000001400653b0 f i Main.obj
 0002:000364a0       ?_Unchecked_splice@?$_List_val@U?$_List_simple_types@U?$pair@QEAUHalfEdge@?$Diagram@N@mygal@@V?$shared_ptr@UHalfEdge@NewDiagram@Voronoi@@@std@@@std@@@std@@@std@@SAPEAU?$_List_node@U?$pair@QEAUHalfEdge@?$Diagram@N@mygal@@V?$shared_ptr@UHalfEdge@NewDiagram@Voronoi@@@std@@@std@@PEAX@2@QEAU32@00@Z 00000001400654a0 f i Main.obj
 0002:00036590       ?_Unchecked_splice@?$_List_val@U?$_List_simple_types@U?$pair@QEAUVertex@?$Diagram@N@mygal@@V?$shared_ptr@UVertex@NewDiagram@Voronoi@@@std@@@std@@@std@@@std@@SAPEAU?$_List_node@U?$pair@QEAUVertex@?$Diagram@N@mygal@@V?$shared_ptr@UVertex@NewDiagram@Voronoi@@@std@@@std@@PEAX@2@QEAU32@00@Z 0000000140065590 f i Main.obj
 0002:00036680       ?_Unlock@?$basic_filebuf@DU?$char_traits@D@std@@@std@@UEAAXXZ 0000000140065680 f i Main.obj
 0002:000366f0       ?_Xlen_string@std@@YAXXZ   00000001400656f0 f i Main.obj
 0002:00036730       ?_Xlength@?$vector@U?$pair@VPoint2D@@N@std@@V?$allocator@U?$pair@VPoint2D@@N@std@@@2@@std@@CAXXZ 0000000140065730 f i Main.obj
 0002:00036770       ?_Xlength@?$vector@UFace@?$Diagram@N@mygal@@V?$allocator@UFace@?$Diagram@N@mygal@@@std@@@std@@CAXXZ 0000000140065770 f i Main.obj
 0002:000367b0       ?_Xlength@?$vector@USite@?$Diagram@N@mygal@@V?$allocator@USite@?$Diagram@N@mygal@@@std@@@std@@CAXXZ 00000001400657b0 f i Main.obj
 0002:000367f0       ?_Xlength@?$vector@V?$Vector2@N@mygal@@V?$allocator@V?$Vector2@N@mygal@@@std@@@std@@CAXXZ 00000001400657f0 f i Main.obj
 0002:00036830       ?_Xlength@?$vector@V?$shared_ptr@USite@NewDiagram@Voronoi@@@std@@V?$allocator@V?$shared_ptr@USite@NewDiagram@Voronoi@@@std@@@2@@std@@CAXXZ 0000000140065830 f i Main.obj
 0002:00036870       ?_Xlength@?$vector@V?$unique_ptr@V?$Event@N@mygal@@U?$default_delete@V?$Event@N@mygal@@@std@@@std@@V?$allocator@V?$unique_ptr@V?$Event@N@mygal@@U?$default_delete@V?$Event@N@mygal@@@std@@@std@@@2@@std@@CAXXZ 0000000140065870 f i Main.obj
 0002:000368b0       ?_Xlength@?$vector@VCircleShape@sf@@V?$allocator@VCircleShape@sf@@@std@@@std@@CAXXZ 00000001400658b0 f i Main.obj
 0002:000368f0       ?_Xran@?$_String_val@U?$_Simple_types@D@std@@@std@@SAXXZ 00000001400658f0 f i Main.obj
 0002:00036930       ?__autoclassinit2@?$Diagram@N@mygal@@QEAAX_K@Z 0000000140065930 f i Main.obj
 0002:00036970       ?__autoclassinit2@?$Event@N@mygal@@QEAAX_K@Z 0000000140065970 f i Main.obj
 0002:000369b0       ?__autoclassinit2@?$FortuneAlgorithm@N@mygal@@QEAAX_K@Z 00000001400659b0 f i Main.obj
 0002:000369f0       ?__autoclassinit2@?$_List_unchecked_const_iterator@V?$_List_val@U?$_List_simple_types@U?$pair@QEAUFace@?$Diagram@N@mygal@@V?$shared_ptr@UFace@NewDiagram@Voronoi@@@std@@@std@@@std@@@std@@U_Iterator_base0@2@@std@@QEAAX_K@Z 00000001400659f0 f i Main.obj
 0002:00036a30       ?__autoclassinit2@?$_List_unchecked_const_iterator@V?$_List_val@U?$_List_simple_types@U?$pair@QEAUHalfEdge@?$Diagram@N@mygal@@V?$shared_ptr@UHalfEdge@NewDiagram@Voronoi@@@std@@@std@@@std@@@std@@U_Iterator_base0@2@@std@@QEAAX_K@Z 0000000140065a30 f i Main.obj
 0002:00036a70       ?__autoclassinit2@?$_List_unchecked_const_iterator@V?$_List_val@U?$_List_simple_types@U?$pair@QEAUVertex@?$Diagram@N@mygal@@V?$shared_ptr@UVertex@NewDiagram@Voronoi@@@std@@@std@@@std@@@std@@U_Iterator_base0@2@@std@@QEAAX_K@Z 0000000140065a70 f i Main.obj
 0002:00036ab0       ?__autoclassinit2@?$_List_unchecked_const_iterator@V?$_List_val@U?$_List_simple_types@UHalfEdge@?$Diagram@N@mygal@@@std@@@std@@U_Iterator_base0@2@@std@@QEAAX_K@Z 0000000140065ab0 f i Main.obj
 0002:00036af0       ?__autoclassinit2@?$_List_unchecked_iterator@V?$_List_val@U?$_List_simple_types@U?$pair@QEAUFace@?$Diagram@N@mygal@@V?$shared_ptr@UFace@NewDiagram@Voronoi@@@std@@@std@@@std@@@std@@@std@@QEAAX_K@Z 0000000140065af0 f i Main.obj
 0002:00036b30       ?__autoclassinit2@?$_List_unchecked_iterator@V?$_List_val@U?$_List_simple_types@U?$pair@QEAUHalfEdge@?$Diagram@N@mygal@@V?$shared_ptr@UHalfEdge@NewDiagram@Voronoi@@@std@@@std@@@std@@@std@@@std@@QEAAX_K@Z 0000000140065b30 f i Main.obj
 0002:00036b70       ?__autoclassinit2@?$_List_unchecked_iterator@V?$_List_val@U?$_List_simple_types@U?$pair@QEAUVertex@?$Diagram@N@mygal@@V?$shared_ptr@UVertex@NewDiagram@Voronoi@@@std@@@std@@@std@@@std@@@std@@QEAAX_K@Z 0000000140065b70 f i Main.obj
 0002:00036bb0       ?__autoclassinit2@?$_List_unchecked_iterator@V?$_List_val@U?$_List_simple_types@V?$shared_ptr@UFace@NewDiagram@Voronoi@@@std@@@std@@@std@@@std@@QEAAX_K@Z 0000000140065bb0 f i Main.obj
 0002:00036bf0       ?__autoclassinit2@?$_Uninitialized_backout_al@V?$allocator@U?$pair@VPoint2D@@N@std@@@std@@@std@@QEAAX_K@Z 0000000140065bf0 f i Main.obj
 0002:00036c30       ?__autoclassinit2@?$_Uninitialized_backout_al@V?$allocator@UFace@?$Diagram@N@mygal@@@std@@@std@@QEAAX_K@Z 0000000140065c30 f i Main.obj
 0002:00036c70       ?__autoclassinit2@?$_Uninitialized_backout_al@V?$allocator@USite@?$Diagram@N@mygal@@@std@@@std@@QEAAX_K@Z 0000000140065c70 f i Main.obj
 0002:00036cb0       ?__autoclassinit2@?$_Uninitialized_backout_al@V?$allocator@V?$Vector2@N@mygal@@@std@@@std@@QEAAX_K@Z 0000000140065cb0 f i Main.obj
 0002:00036cf0       ?__autoclassinit2@?$_Uninitialized_backout_al@V?$allocator@V?$shared_ptr@USite@NewDiagram@Voronoi@@@std@@@std@@@std@@QEAAX_K@Z 0000000140065cf0 f i Main.obj
 0002:00036d30       ?__autoclassinit2@?$_Uninitialized_backout_al@V?$allocator@V?$unique_ptr@V?$Event@N@mygal@@U?$default_delete@V?$Event@N@mygal@@@std@@@std@@@std@@@std@@QEAAX_K@Z 0000000140065d30 f i Main.obj
 0002:00036d70       ?__autoclassinit2@?$_Uninitialized_backout_al@V?$allocator@VCircleShape@sf@@@std@@@std@@QEAAX_K@Z 0000000140065d70 f i Main.obj
 0002:00036db0       ?__autoclassinit2@?$basic_ifstream@DU?$char_traits@D@std@@@std@@QEAAX_K@Z 0000000140065db0 f i Main.obj
 0002:00036df0       ?__autoclassinit2@?$shared_ptr@UFace@NewDiagram@Voronoi@@@std@@QEAAX_K@Z 0000000140065df0 f i Main.obj
 0002:00036e30       ?__autoclassinit2@?$shared_ptr@UHalfEdge@NewDiagram@Voronoi@@@std@@QEAAX_K@Z 0000000140065e30 f i Main.obj
 0002:00036e70       ?__autoclassinit2@?$shared_ptr@USite@NewDiagram@Voronoi@@@std@@QEAAX_K@Z 0000000140065e70 f i Main.obj
 0002:00036eb0       ?__autoclassinit2@?$shared_ptr@UVertex@NewDiagram@Voronoi@@@std@@QEAAX_K@Z 0000000140065eb0 f i Main.obj
 0002:00036ef0       ?__autoclassinit2@?$unique_ptr@V?$Event@N@mygal@@U?$default_delete@V?$Event@N@mygal@@@std@@@std@@QEAAX_K@Z 0000000140065ef0 f i Main.obj
 0002:00036f30       ?__autoclassinit2@?$unique_ptr@V_Facet_base@std@@U?$default_delete@V_Facet_base@std@@@2@@std@@QEAAX_K@Z 0000000140065f30 f i Main.obj
 0002:00036f70       ?__autoclassinit2@?$unordered_map@PEAUFace@?$Diagram@N@mygal@@V?$shared_ptr@UFace@NewDiagram@Voronoi@@@std@@U?$hash@PEAUFace@?$Diagram@N@mygal@@@5@U?$equal_to@PEAUFace@?$Diagram@N@mygal@@@5@V?$allocator@U?$pair@QEAUFace@?$Diagram@N@mygal@@V?$shared_ptr@UFace@NewDiagram@Voronoi@@@std@@@std@@@5@@std@@QEAAX_K@Z 0000000140065f70 f i Main.obj
 0002:00036fb0       ?__autoclassinit2@?$unordered_map@PEAUHalfEdge@?$Diagram@N@mygal@@V?$shared_ptr@UHalfEdge@NewDiagram@Voronoi@@@std@@U?$hash@PEAUHalfEdge@?$Diagram@N@mygal@@@5@U?$equal_to@PEAUHalfEdge@?$Diagram@N@mygal@@@5@V?$allocator@U?$pair@QEAUHalfEdge@?$Diagram@N@mygal@@V?$shared_ptr@UHalfEdge@NewDiagram@Voronoi@@@std@@@std@@@5@@std@@QEAAX_K@Z 0000000140065fb0 f i Main.obj
 0002:00036ff0       ?__autoclassinit2@?$unordered_map@PEAUVertex@?$Diagram@N@mygal@@V?$shared_ptr@UVertex@NewDiagram@Voronoi@@@std@@U?$hash@PEAUVertex@?$Diagram@N@mygal@@@5@U?$equal_to@PEAUVertex@?$Diagram@N@mygal@@@5@V?$allocator@U?$pair@QEAUVertex@?$Diagram@N@mygal@@V?$shared_ptr@UVertex@NewDiagram@Voronoi@@@std@@@std@@@5@@std@@QEAAX_K@Z 0000000140065ff0 f i Main.obj
 0002:00037030       ?__autoclassinit2@?$vector@U?$pair@VPoint2D@@N@std@@V?$allocator@U?$pair@VPoint2D@@N@std@@@2@@std@@QEAAX_K@Z 0000000140066030 f i Main.obj
 0002:00037070       ?__autoclassinit2@?$vector@V?$Vector2@N@mygal@@V?$allocator@V?$Vector2@N@mygal@@@std@@@std@@QEAAX_K@Z 0000000140066070 f i Main.obj
 0002:000370b0       ?__autoclassinit2@?$vector@V?$shared_ptr@USite@NewDiagram@Voronoi@@@std@@V?$allocator@V?$shared_ptr@USite@NewDiagram@Voronoi@@@std@@@2@@std@@QEAAX_K@Z 00000001400660b0 f i Main.obj
 0002:000370f0       ?__autoclassinit2@?$vector@VCircleShape@sf@@V?$allocator@VCircleShape@sf@@@std@@@std@@QEAAX_K@Z 00000001400660f0 f i Main.obj
 0002:00037130       ?__autoclassinit2@NewDiagram@Voronoi@@QEAAX_K@Z 0000000140066130 f i Main.obj
 0002:00037170       ?__empty_global_delete@@YAXPEAX@Z 0000000140066170 f i Main.obj
 0002:000371b0       ?__empty_global_delete@@YAXPEAXW4align_val_t@std@@@Z 00000001400661b0 f i Main.obj
 0002:000371f0       ?__empty_global_delete@@YAXPEAX_K@Z 00000001400661f0 f i Main.obj
 0002:000371f0       ?__global_delete@@YAXPEAX_K@Z 00000001400661f0 f i Main.obj
 0002:00037230       ?__empty_global_delete@@YAXPEAX_KW4align_val_t@std@@@Z 0000000140066230 f i Main.obj
 0002:00037280       ?addEdge@?$FortuneAlgorithm@N@mygal@@AEAAXPEAU?$Arc@N@2@0@Z 0000000140066280 f i Main.obj
 0002:00037390       ?addEvent@?$FortuneAlgorithm@N@mygal@@AEAAXPEAU?$Arc@N@2@00@Z 0000000140066390 f i Main.obj
 0002:00037650       ?insert@?$list@PEAUSpecial_vertex@@V?$allocator@PEAUSpecial_vertex@@@std@@@std@@QEAA?AV?$_List_iterator@V?$_List_val@U?$_List_simple_types@PEAUSpecial_vertex@@@std@@@std@@@2@V?$_List_const_iterator@V?$_List_val@U?$_List_simple_types@PEAUSpecial_vertex@@@std@@@std@@@2@$$QEAPEAUSpecial_vertex@@@Z 0000000140066650 f i MinKnapsack.obj
 0002:00037700       ?allocate@?$allocator@D@std@@QEAAPEAD_K@Z 0000000140066700 f i Main.obj
 0002:00037760       ?allocate@?$allocator@U?$_List_node@U?$pair@QEAUFace@?$Diagram@N@mygal@@V?$shared_ptr@UFace@NewDiagram@Voronoi@@@std@@@std@@PEAX@std@@@std@@QEAAPEAU?$_List_node@U?$pair@QEAUFace@?$Diagram@N@mygal@@V?$shared_ptr@UFace@NewDiagram@Voronoi@@@std@@@std@@PEAX@2@_K@Z 0000000140066760 f i Main.obj
 0002:000377c0       ?allocate@?$allocator@U?$_List_node@U?$pair@QEAUHalfEdge@?$Diagram@N@mygal@@V?$shared_ptr@UHalfEdge@NewDiagram@Voronoi@@@std@@@std@@PEAX@std@@@std@@QEAAPEAU?$_List_node@U?$pair@QEAUHalfEdge@?$Diagram@N@mygal@@V?$shared_ptr@UHalfEdge@NewDiagram@Voronoi@@@std@@@std@@PEAX@2@_K@Z 00000001400667c0 f i Main.obj
 0002:00037820       ?allocate@?$allocator@U?$_List_node@U?$pair@QEAUVertex@?$Diagram@N@mygal@@V?$shared_ptr@UVertex@NewDiagram@Voronoi@@@std@@@std@@PEAX@std@@@std@@QEAAPEAU?$_List_node@U?$pair@QEAUVertex@?$Diagram@N@mygal@@V?$shared_ptr@UVertex@NewDiagram@Voronoi@@@std@@@std@@PEAX@2@_K@Z 0000000140066820 f i Main.obj
 0002:00037880       ?allocate@?$allocator@U?$_List_node@UHalfEdge@?$Diagram@N@mygal@@PEAX@std@@@std@@QEAAPEAU?$_List_node@UHalfEdge@?$Diagram@N@mygal@@PEAX@2@_K@Z 0000000140066880 f i Main.obj
 0002:000378e0       ?allocate@?$allocator@U?$_List_node@UVertex@?$Diagram@N@mygal@@PEAX@std@@@std@@QEAAPEAU?$_List_node@UVertex@?$Diagram@N@mygal@@PEAX@2@_K@Z 00000001400668e0 f i Main.obj
 0002:00037940       ?allocate@?$allocator@U?$_List_node@V?$shared_ptr@UFace@NewDiagram@Voronoi@@@std@@PEAX@std@@@std@@QEAAPEAU?$_List_node@V?$shared_ptr@UFace@NewDiagram@Voronoi@@@std@@PEAX@2@_K@Z 0000000140066940 f i Main.obj
 0002:000379a0       ?allocate@?$allocator@U?$pair@VPoint2D@@N@std@@@std@@QEAAPEAU?$pair@VPoint2D@@N@2@_K@Z 00000001400669a0 f i Main.obj
 0002:00037a00       ?allocate@?$allocator@UFace@?$Diagram@N@mygal@@@std@@QEAAPEAUFace@?$Diagram@N@mygal@@_K@Z 0000000140066a00 f i Main.obj
 0002:00037a60       ?allocate@?$allocator@USite@?$Diagram@N@mygal@@@std@@QEAAPEAUSite@?$Diagram@N@mygal@@_K@Z 0000000140066a60 f i Main.obj
 0002:00037ac0       ?allocate@?$allocator@U_Container_proxy@std@@@std@@QEAAPEAU_Container_proxy@2@_K@Z 0000000140066ac0 f i Main.obj
 0002:00037b20       ?allocate@?$allocator@V?$Vector2@N@mygal@@@std@@QEAAPEAV?$Vector2@N@mygal@@_K@Z 0000000140066b20 f i Main.obj
 0002:00037b80       ?allocate@?$allocator@V?$_List_unchecked_iterator@V?$_List_val@U?$_List_simple_types@U?$pair@QEAUFace@?$Diagram@N@mygal@@V?$shared_ptr@UFace@NewDiagram@Voronoi@@@std@@@std@@@std@@@std@@@std@@@std@@QEAAPEAV?$_List_unchecked_iterator@V?$_List_val@U?$_List_simple_types@U?$pair@QEAUFace@?$Diagram@N@mygal@@V?$shared_ptr@UFace@NewDiagram@Voronoi@@@std@@@std@@@std@@@std@@@2@_K@Z 0000000140066b80 f i Main.obj
 0002:00037be0       ?allocate@?$allocator@V?$_List_unchecked_iterator@V?$_List_val@U?$_List_simple_types@U?$pair@QEAUHalfEdge@?$Diagram@N@mygal@@V?$shared_ptr@UHalfEdge@NewDiagram@Voronoi@@@std@@@std@@@std@@@std@@@std@@@std@@QEAAPEAV?$_List_unchecked_iterator@V?$_List_val@U?$_List_simple_types@U?$pair@QEAUHalfEdge@?$Diagram@N@mygal@@V?$shared_ptr@UHalfEdge@NewDiagram@Voronoi@@@std@@@std@@@std@@@std@@@2@_K@Z 0000000140066be0 f i Main.obj
 0002:00037c40       ?allocate@?$allocator@V?$_List_unchecked_iterator@V?$_List_val@U?$_List_simple_types@U?$pair@QEAUVertex@?$Diagram@N@mygal@@V?$shared_ptr@UVertex@NewDiagram@Voronoi@@@std@@@std@@@std@@@std@@@std@@@std@@QEAAPEAV?$_List_unchecked_iterator@V?$_List_val@U?$_List_simple_types@U?$pair@QEAUVertex@?$Diagram@N@mygal@@V?$shared_ptr@UVertex@NewDiagram@Voronoi@@@std@@@std@@@std@@@std@@@2@_K@Z 0000000140066c40 f i Main.obj
 0002:00037ca0       ?allocate@?$allocator@V?$shared_ptr@USite@NewDiagram@Voronoi@@@std@@@std@@QEAAPEAV?$shared_ptr@USite@NewDiagram@Voronoi@@@2@_K@Z 0000000140066ca0 f i Main.obj
 0002:00037d00       ?allocate@?$allocator@V?$unique_ptr@V?$Event@N@mygal@@U?$default_delete@V?$Event@N@mygal@@@std@@@std@@@std@@QEAAPEAV?$unique_ptr@V?$Event@N@mygal@@U?$default_delete@V?$Event@N@mygal@@@std@@@2@_K@Z 0000000140066d00 f i Main.obj
 0002:00037d60       ?allocate@?$allocator@VCircleShape@sf@@@std@@QEAAPEAVCircleShape@sf@@_K@Z 0000000140066d60 f i Main.obj
 0002:00037dc0       ?assign@?$_Narrow_char_traits@DH@std@@SAXAEADAEBD@Z 0000000140066dc0 f i Main.obj
 0002:00037e20       ?at@?$unordered_map@PEAUFace@?$Diagram@N@mygal@@V?$shared_ptr@UFace@NewDiagram@Voronoi@@@std@@U?$hash@PEAUFace@?$Diagram@N@mygal@@@5@U?$equal_to@PEAUFace@?$Diagram@N@mygal@@@5@V?$allocator@U?$pair@QEAUFace@?$Diagram@N@mygal@@V?$shared_ptr@UFace@NewDiagram@Voronoi@@@std@@@std@@@5@@std@@QEAAAEAV?$shared_ptr@UFace@NewDiagram@Voronoi@@@2@AEBQEAUFace@?$Diagram@N@mygal@@@Z 0000000140066e20 f i Main.obj
 0002:00037f20       ?at@?$unordered_map@PEAUHalfEdge@?$Diagram@N@mygal@@V?$shared_ptr@UHalfEdge@NewDiagram@Voronoi@@@std@@U?$hash@PEAUHalfEdge@?$Diagram@N@mygal@@@5@U?$equal_to@PEAUHalfEdge@?$Diagram@N@mygal@@@5@V?$allocator@U?$pair@QEAUHalfEdge@?$Diagram@N@mygal@@V?$shared_ptr@UHalfEdge@NewDiagram@Voronoi@@@std@@@std@@@5@@std@@QEAAAEAV?$shared_ptr@UHalfEdge@NewDiagram@Voronoi@@@2@AEBQEAUHalfEdge@?$Diagram@N@mygal@@@Z 0000000140066f20 f i Main.obj
 0002:00038020       ?at@?$unordered_map@PEAUVertex@?$Diagram@N@mygal@@V?$shared_ptr@UVertex@NewDiagram@Voronoi@@@std@@U?$hash@PEAUVertex@?$Diagram@N@mygal@@@5@U?$equal_to@PEAUVertex@?$Diagram@N@mygal@@@5@V?$allocator@U?$pair@QEAUVertex@?$Diagram@N@mygal@@V?$shared_ptr@UVertex@NewDiagram@Voronoi@@@std@@@std@@@5@@std@@QEAAAEAV?$shared_ptr@UVertex@NewDiagram@Voronoi@@@2@AEBQEAUVertex@?$Diagram@N@mygal@@@Z 0000000140067020 f i Main.obj
 0002:00038120       ?back@?$list@UHalfEdge@?$Diagram@N@mygal@@V?$allocator@UHalfEdge@?$Diagram@N@mygal@@@std@@@std@@QEAAAEAUHalfEdge@?$Diagram@N@mygal@@XZ 0000000140067120 f i Main.obj
 0002:00038220       ?back@?$list@UVertex@?$Diagram@N@mygal@@V?$allocator@UVertex@?$Diagram@N@mygal@@@std@@@std@@QEAAAEAUVertex@?$Diagram@N@mygal@@XZ 0000000140067220 f i Main.obj
 0002:00038320       ?back@?$list@V?$shared_ptr@UFace@NewDiagram@Voronoi@@@std@@V?$allocator@V?$shared_ptr@UFace@NewDiagram@Voronoi@@@std@@@2@@std@@QEAAAEAV?$shared_ptr@UFace@NewDiagram@Voronoi@@@2@XZ 0000000140067320 f i Main.obj
 0002:00038420       ?back@?$vector@UFace@?$Diagram@N@mygal@@V?$allocator@UFace@?$Diagram@N@mygal@@@std@@@std@@QEAAAEAUFace@?$Diagram@N@mygal@@XZ 0000000140067420 f i Main.obj
 0002:00038530       ?back@?$vector@USite@?$Diagram@N@mygal@@V?$allocator@USite@?$Diagram@N@mygal@@@std@@@std@@QEAAAEAUSite@?$Diagram@N@mygal@@XZ 0000000140067530 f i Main.obj
 0002:00038640       ?back@?$vector@V?$unique_ptr@V?$Event@N@mygal@@U?$default_delete@V?$Event@N@mygal@@@std@@@std@@V?$allocator@V?$unique_ptr@V?$Event@N@mygal@@U?$default_delete@V?$Event@N@mygal@@@std@@@std@@@2@@std@@QEAAAEAV?$unique_ptr@V?$Event@N@mygal@@U?$default_delete@V?$Event@N@mygal@@@std@@@2@XZ 0000000140067640 f i Main.obj
 0002:00038750       ?begin@?$initializer_list@V?$shared_ptr@USite@NewDiagram@Voronoi@@@std@@@std@@QEBAPEBV?$shared_ptr@USite@NewDiagram@Voronoi@@@2@XZ 0000000140067750 f i Main.obj
 0002:000387a0       ?breakArc@?$FortuneAlgorithm@N@mygal@@AEAAPEAU?$Arc@N@2@PEAU32@PEAUSite@?$Diagram@N@2@@Z 00000001400677a0 f i Main.obj
 0002:000389d0       ?bucket@?$_Hash@V?$_Umap_traits@PEAUFace@?$Diagram@N@mygal@@V?$shared_ptr@UFace@NewDiagram@Voronoi@@@std@@V?$_Uhash_compare@PEAUFace@?$Diagram@N@mygal@@U?$hash@PEAUFace@?$Diagram@N@mygal@@@std@@U?$equal_to@PEAUFace@?$Diagram@N@mygal@@@5@@5@V?$allocator@U?$pair@QEAUFace@?$Diagram@N@mygal@@V?$shared_ptr@UFace@NewDiagram@Voronoi@@@std@@@std@@@5@$0A@@std@@@std@@QEBA_KAEBQEAUFace@?$Diagram@N@mygal@@@Z 00000001400679d0 f i Main.obj
 0002:00038a50       ?bucket@?$_Hash@V?$_Umap_traits@PEAUHalfEdge@?$Diagram@N@mygal@@V?$shared_ptr@UHalfEdge@NewDiagram@Voronoi@@@std@@V?$_Uhash_compare@PEAUHalfEdge@?$Diagram@N@mygal@@U?$hash@PEAUHalfEdge@?$Diagram@N@mygal@@@std@@U?$equal_to@PEAUHalfEdge@?$Diagram@N@mygal@@@5@@5@V?$allocator@U?$pair@QEAUHalfEdge@?$Diagram@N@mygal@@V?$shared_ptr@UHalfEdge@NewDiagram@Voronoi@@@std@@@std@@@5@$0A@@std@@@std@@QEBA_KAEBQEAUHalfEdge@?$Diagram@N@mygal@@@Z 0000000140067a50 f i Main.obj
 0002:00038ad0       ?bucket@?$_Hash@V?$_Umap_traits@PEAUVertex@?$Diagram@N@mygal@@V?$shared_ptr@UVertex@NewDiagram@Voronoi@@@std@@V?$_Uhash_compare@PEAUVertex@?$Diagram@N@mygal@@U?$hash@PEAUVertex@?$Diagram@N@mygal@@@std@@U?$equal_to@PEAUVertex@?$Diagram@N@mygal@@@5@@5@V?$allocator@U?$pair@QEAUVertex@?$Diagram@N@mygal@@V?$shared_ptr@UVertex@NewDiagram@Voronoi@@@std@@@std@@@5@$0A@@std@@@std@@QEBA_KAEBQEAUVertex@?$Diagram@N@mygal@@@Z 0000000140067ad0 f i Main.obj
 0002:00038b50       ?bucket_count@?$_Hash@V?$_Umap_traits@PEAUFace@?$Diagram@N@mygal@@V?$shared_ptr@UFace@NewDiagram@Voronoi@@@std@@V?$_Uhash_compare@PEAUFace@?$Diagram@N@mygal@@U?$hash@PEAUFace@?$Diagram@N@mygal@@@std@@U?$equal_to@PEAUFace@?$Diagram@N@mygal@@@5@@5@V?$allocator@U?$pair@QEAUFace@?$Diagram@N@mygal@@V?$shared_ptr@UFace@NewDiagram@Voronoi@@@std@@@std@@@5@$0A@@std@@@std@@QEBA_KXZ 0000000140067b50 f i Main.obj
 0002:00038ba0       ?bucket_count@?$_Hash@V?$_Umap_traits@PEAUHalfEdge@?$Diagram@N@mygal@@V?$shared_ptr@UHalfEdge@NewDiagram@Voronoi@@@std@@V?$_Uhash_compare@PEAUHalfEdge@?$Diagram@N@mygal@@U?$hash@PEAUHalfEdge@?$Diagram@N@mygal@@@std@@U?$equal_to@PEAUHalfEdge@?$Diagram@N@mygal@@@5@@5@V?$allocator@U?$pair@QEAUHalfEdge@?$Diagram@N@mygal@@V?$shared_ptr@UHalfEdge@NewDiagram@Voronoi@@@std@@@std@@@5@$0A@@std@@@std@@QEBA_KXZ 0000000140067ba0 f i Main.obj
 0002:00038bf0       ?bucket_count@?$_Hash@V?$_Umap_traits@PEAUVertex@?$Diagram@N@mygal@@V?$shared_ptr@UVertex@NewDiagram@Voronoi@@@std@@V?$_Uhash_compare@PEAUVertex@?$Diagram@N@mygal@@U?$hash@PEAUVertex@?$Diagram@N@mygal@@@std@@U?$equal_to@PEAUVertex@?$Diagram@N@mygal@@@5@@5@V?$allocator@U?$pair@QEAUVertex@?$Diagram@N@mygal@@V?$shared_ptr@UVertex@NewDiagram@Voronoi@@@std@@@std@@@5@$0A@@std@@@std@@QEBA_KXZ 0000000140067bf0 f i Main.obj
 0002:00038c40       ?c_str@?$basic_string@DU?$char_traits@D@std@@V?$allocator@D@2@@std@@QEBAPEBDXZ 0000000140067c40 f i Main.obj
 0002:00038c90       ?capacity@?$_Hash_vec@V?$allocator@V?$_List_unchecked_iterator@V?$_List_val@U?$_List_simple_types@U?$pair@QEAUFace@?$Diagram@N@mygal@@V?$shared_ptr@UFace@NewDiagram@Voronoi@@@std@@@std@@@std@@@std@@@std@@@std@@@std@@QEBA_KXZ 0000000140067c90 f i Main.obj
 0002:00038cf0       ?capacity@?$_Hash_vec@V?$allocator@V?$_List_unchecked_iterator@V?$_List_val@U?$_List_simple_types@U?$pair@QEAUHalfEdge@?$Diagram@N@mygal@@V?$shared_ptr@UHalfEdge@NewDiagram@Voronoi@@@std@@@std@@@std@@@std@@@std@@@std@@@std@@QEBA_KXZ 0000000140067cf0 f i Main.obj
 0002:00038d50       ?capacity@?$_Hash_vec@V?$allocator@V?$_List_unchecked_iterator@V?$_List_val@U?$_List_simple_types@U?$pair@QEAUVertex@?$Diagram@N@mygal@@V?$shared_ptr@UVertex@NewDiagram@Voronoi@@@std@@@std@@@std@@@std@@@std@@@std@@@std@@QEBA_KXZ 0000000140067d50 f i Main.obj
 0002:00038db0       ?capacity@?$vector@U?$pair@VPoint2D@@N@std@@V?$allocator@U?$pair@VPoint2D@@N@std@@@2@@std@@QEBA_KXZ 0000000140067db0 f i Main.obj
 0002:00038e20       ?capacity@?$vector@UFace@?$Diagram@N@mygal@@V?$allocator@UFace@?$Diagram@N@mygal@@@std@@@std@@QEBA_KXZ 0000000140067e20 f i Main.obj
 0002:00038e80       ?capacity@?$vector@USite@?$Diagram@N@mygal@@V?$allocator@USite@?$Diagram@N@mygal@@@std@@@std@@QEBA_KXZ 0000000140067e80 f i Main.obj
 0002:00038ee0       ?capacity@?$vector@V?$Vector2@N@mygal@@V?$allocator@V?$Vector2@N@mygal@@@std@@@std@@QEBA_KXZ 0000000140067ee0 f i Main.obj
 0002:00038f40       ?capacity@?$vector@V?$shared_ptr@USite@NewDiagram@Voronoi@@@std@@V?$allocator@V?$shared_ptr@USite@NewDiagram@Voronoi@@@std@@@2@@std@@QEBA_KXZ 0000000140067f40 f i Main.obj
 0002:00038fa0       ?capacity@?$vector@V?$unique_ptr@V?$Event@N@mygal@@U?$default_delete@V?$Event@N@mygal@@@std@@@std@@V?$allocator@V?$unique_ptr@V?$Event@N@mygal@@U?$default_delete@V?$Event@N@mygal@@@std@@@std@@@2@@std@@QEBA_KXZ 0000000140067fa0 f i Main.obj
 0002:00039000       ?capacity@?$vector@VCircleShape@sf@@V?$allocator@VCircleShape@sf@@@std@@@std@@QEBA_KXZ 0000000140068000 f i Main.obj
 0002:00039070       ?clear@?$_Hash@V?$_Umap_traits@PEAUFace@?$Diagram@N@mygal@@V?$shared_ptr@UFace@NewDiagram@Voronoi@@@std@@V?$_Uhash_compare@PEAUFace@?$Diagram@N@mygal@@U?$hash@PEAUFace@?$Diagram@N@mygal@@@std@@U?$equal_to@PEAUFace@?$Diagram@N@mygal@@@5@@5@V?$allocator@U?$pair@QEAUFace@?$Diagram@N@mygal@@V?$shared_ptr@UFace@NewDiagram@Voronoi@@@std@@@std@@@5@$0A@@std@@@std@@QEAAXXZ 0000000140068070 f i Main.obj
 0002:000391b0       ?clear@?$_Hash@V?$_Umap_traits@PEAUHalfEdge@?$Diagram@N@mygal@@V?$shared_ptr@UHalfEdge@NewDiagram@Voronoi@@@std@@V?$_Uhash_compare@PEAUHalfEdge@?$Diagram@N@mygal@@U?$hash@PEAUHalfEdge@?$Diagram@N@mygal@@@std@@U?$equal_to@PEAUHalfEdge@?$Diagram@N@mygal@@@5@@5@V?$allocator@U?$pair@QEAUHalfEdge@?$Diagram@N@mygal@@V?$shared_ptr@UHalfEdge@NewDiagram@Voronoi@@@std@@@std@@@5@$0A@@std@@@std@@QEAAXXZ 00000001400681b0 f i Main.obj
 0002:000392f0       ?clear@?$_Hash@V?$_Umap_traits@PEAUVertex@?$Diagram@N@mygal@@V?$shared_ptr@UVertex@NewDiagram@Voronoi@@@std@@V?$_Uhash_compare@PEAUVertex@?$Diagram@N@mygal@@U?$hash@PEAUVertex@?$Diagram@N@mygal@@@std@@U?$equal_to@PEAUVertex@?$Diagram@N@mygal@@@5@@5@V?$allocator@U?$pair@QEAUVertex@?$Diagram@N@mygal@@V?$shared_ptr@UVertex@NewDiagram@Voronoi@@@std@@@std@@@5@$0A@@std@@@std@@QEAAXXZ 00000001400682f0 f i Main.obj
 0002:00039430       ?clear@?$list@U?$pair@QEAUFace@?$Diagram@N@mygal@@V?$shared_ptr@UFace@NewDiagram@Voronoi@@@std@@@std@@V?$allocator@U?$pair@QEAUFace@?$Diagram@N@mygal@@V?$shared_ptr@UFace@NewDiagram@Voronoi@@@std@@@std@@@2@@std@@QEAAXXZ 0000000140068430 f i Main.obj
 0002:00039510       ?clear@?$list@U?$pair@QEAUHalfEdge@?$Diagram@N@mygal@@V?$shared_ptr@UHalfEdge@NewDiagram@Voronoi@@@std@@@std@@V?$allocator@U?$pair@QEAUHalfEdge@?$Diagram@N@mygal@@V?$shared_ptr@UHalfEdge@NewDiagram@Voronoi@@@std@@@std@@@2@@std@@QEAAXXZ 0000000140068510 f i Main.obj
 0002:000395f0       ?clear@?$list@U?$pair@QEAUVertex@?$Diagram@N@mygal@@V?$shared_ptr@UVertex@NewDiagram@Voronoi@@@std@@@std@@V?$allocator@U?$pair@QEAUVertex@?$Diagram@N@mygal@@V?$shared_ptr@UVertex@NewDiagram@Voronoi@@@std@@@std@@@2@@std@@QEAAXXZ 00000001400685f0 f i Main.obj
 0002:000396d0       ?close@?$basic_filebuf@DU?$char_traits@D@std@@@std@@QEAAPEAV12@XZ 00000001400686d0 f i Main.obj
 0002:000397b0       ?computeBreakpoint@?$Beachline@N@mygal@@AEBANAEBV?$Vector2@N@2@0NW4Side@?$Arc@N@2@@Z 00000001400687b0 f i Main.obj
 0002:00039a90       ?_Orphan_range_unlocked@?$vector@V?$shared_ptr@UHalfEdge@NewDiagram@Voronoi@@@std@@V?$allocator@V?$shared_ptr@UHalfEdge@NewDiagram@Voronoi@@@std@@@2@@std@@AEBAXPEAV?$shared_ptr@UHalfEdge@NewDiagram@Voronoi@@@2@0@Z 0000000140068a90 f i MinKnapsack.obj
 0002:00039b40       ?computeConvergencePoint@?$FortuneAlgorithm@N@mygal@@AEBA?AV?$Vector2@N@2@AEBV32@00AEAN@Z 0000000140068b40 f i Main.obj
 0002:00039e70       ?_Release@?$_Uninitialized_backout_al@V?$allocator@V?$shared_ptr@UHalfEdge@NewDiagram@Voronoi@@@std@@@std@@@std@@QEAAPEAV?$shared_ptr@UHalfEdge@NewDiagram@Voronoi@@@2@XZ 0000000140068e70 f i MinKnapsack.obj
 0002:00039f40       ?construct@?$FortuneAlgorithm@N@mygal@@QEAAXXZ 0000000140068f40 f i Main.obj
 0002:0003a1b0       ?copy@?$_Char_traits@DH@std@@SAPEADQEADQEBD_K@Z 00000001400691b0 f i Main.obj
 0002:0003a220       ?createArc@?$Beachline@N@mygal@@QEAAPEAU?$Arc@N@2@PEAUSite@?$Diagram@N@2@W4Side@32@@Z 0000000140069220 f i Main.obj
 0002:0003a3b0       ?createFace@NewDiagram@Voronoi@@QEAA?AV?$shared_ptr@UFace@NewDiagram@Voronoi@@@std@@J@Z 00000001400693b0 f i Main.obj
 0002:0003a4e0       ?createHalfEdge@?$Diagram@N@mygal@@AEAAPEAUHalfEdge@12@PEAUFace@12@@Z 00000001400694e0 f i Main.obj
 0002:0003a670       ?createHalfEdge@NewDiagram@Voronoi@@QEAA?AV?$shared_ptr@UHalfEdge@NewDiagram@Voronoi@@@std@@V?$shared_ptr@USite@NewDiagram@Voronoi@@@4@@Z 0000000140069670 f i Main.obj
 0002:0003a790       ?createVertex@?$Diagram@N@mygal@@AEAAPEAUVertex@12@V?$Vector2@N@2@@Z 0000000140069790 f i Main.obj
 0002:0003a910       ?createVertex@NewDiagram@Voronoi@@QEAA?AV?$shared_ptr@UVertex@NewDiagram@Voronoi@@@std@@VPoint2D@@@Z 0000000140069910 f i Main.obj
 0002:0003aa30       ?data@?$basic_string@DU?$char_traits@D@std@@V?$allocator@D@2@@std@@QEAAPEADXZ 0000000140069a30 f i Main.obj
 0002:0003aa80       ?deallocate@?$_Default_allocator_traits@V?$allocator@U?$_List_node@U?$pair@QEAUFace@?$Diagram@N@mygal@@V?$shared_ptr@UFace@NewDiagram@Voronoi@@@std@@@std@@PEAX@std@@@std@@@std@@SAXAEAV?$allocator@U?$_List_node@U?$pair@QEAUFace@?$Diagram@N@mygal@@V?$shared_ptr@UFace@NewDiagram@Voronoi@@@std@@@std@@PEAX@std@@@2@QEAU?$_List_node@U?$pair@QEAUFace@?$Diagram@N@mygal@@V?$shared_ptr@UFace@NewDiagram@Voronoi@@@std@@@std@@PEAX@2@_K@Z 0000000140069a80 f i Main.obj
 0002:0003aae0       ?deallocate@?$_Default_allocator_traits@V?$allocator@U?$_List_node@U?$pair@QEAUHalfEdge@?$Diagram@N@mygal@@V?$shared_ptr@UHalfEdge@NewDiagram@Voronoi@@@std@@@std@@PEAX@std@@@std@@@std@@SAXAEAV?$allocator@U?$_List_node@U?$pair@QEAUHalfEdge@?$Diagram@N@mygal@@V?$shared_ptr@UHalfEdge@NewDiagram@Voronoi@@@std@@@std@@PEAX@std@@@2@QEAU?$_List_node@U?$pair@QEAUHalfEdge@?$Diagram@N@mygal@@V?$shared_ptr@UHalfEdge@NewDiagram@Voronoi@@@std@@@std@@PEAX@2@_K@Z 0000000140069ae0 f i Main.obj
 0002:0003ab40       ?deallocate@?$_Default_allocator_traits@V?$allocator@U?$_List_node@U?$pair@QEAUVertex@?$Diagram@N@mygal@@V?$shared_ptr@UVertex@NewDiagram@Voronoi@@@std@@@std@@PEAX@std@@@std@@@std@@SAXAEAV?$allocator@U?$_List_node@U?$pair@QEAUVertex@?$Diagram@N@mygal@@V?$shared_ptr@UVertex@NewDiagram@Voronoi@@@std@@@std@@PEAX@std@@@2@QEAU?$_List_node@U?$pair@QEAUVertex@?$Diagram@N@mygal@@V?$shared_ptr@UVertex@NewDiagram@Voronoi@@@std@@@std@@PEAX@2@_K@Z 0000000140069b40 f i Main.obj
 0002:0003aba0       ?deallocate@?$_Default_allocator_traits@V?$allocator@U?$_List_node@UHalfEdge@?$Diagram@N@mygal@@PEAX@std@@@std@@@std@@SAXAEAV?$allocator@U?$_List_node@UHalfEdge@?$Diagram@N@mygal@@PEAX@std@@@2@QEAU?$_List_node@UHalfEdge@?$Diagram@N@mygal@@PEAX@2@_K@Z 0000000140069ba0 f i Main.obj
 0002:0003ac00       ?deallocate@?$_Default_allocator_traits@V?$allocator@U?$_List_node@UVertex@?$Diagram@N@mygal@@PEAX@std@@@std@@@std@@SAXAEAV?$allocator@U?$_List_node@UVertex@?$Diagram@N@mygal@@PEAX@std@@@2@QEAU?$_List_node@UVertex@?$Diagram@N@mygal@@PEAX@2@_K@Z 0000000140069c00 f i Main.obj
 0002:0003ac60       ?deallocate@?$_Default_allocator_traits@V?$allocator@U?$_List_node@V?$shared_ptr@UFace@NewDiagram@Voronoi@@@std@@PEAX@std@@@std@@@std@@SAXAEAV?$allocator@U?$_List_node@V?$shared_ptr@UFace@NewDiagram@Voronoi@@@std@@PEAX@std@@@2@QEAU?$_List_node@V?$shared_ptr@UFace@NewDiagram@Voronoi@@@std@@PEAX@2@_K@Z 0000000140069c60 f i Main.obj
 0002:0003acc0       ?deallocate@?$_Default_allocator_traits@V?$allocator@U_Container_proxy@std@@@std@@@std@@SAXAEAV?$allocator@U_Container_proxy@std@@@2@QEAU_Container_proxy@2@_K@Z 0000000140069cc0 f i Main.obj
 0002:0003ad20       ?deallocate@?$allocator@D@std@@QEAAXQEAD_K@Z 0000000140069d20 f i Main.obj
 0002:0003ae30       ?deallocate@?$allocator@U?$_List_node@U?$pair@QEAUFace@?$Diagram@N@mygal@@V?$shared_ptr@UFace@NewDiagram@Voronoi@@@std@@@std@@PEAX@std@@@std@@QEAAXQEAU?$_List_node@U?$pair@QEAUFace@?$Diagram@N@mygal@@V?$shared_ptr@UFace@NewDiagram@Voronoi@@@std@@@std@@PEAX@2@_K@Z 0000000140069e30 f i Main.obj
 0002:0003af40       ?deallocate@?$allocator@U?$_List_node@U?$pair@QEAUHalfEdge@?$Diagram@N@mygal@@V?$shared_ptr@UHalfEdge@NewDiagram@Voronoi@@@std@@@std@@PEAX@std@@@std@@QEAAXQEAU?$_List_node@U?$pair@QEAUHalfEdge@?$Diagram@N@mygal@@V?$shared_ptr@UHalfEdge@NewDiagram@Voronoi@@@std@@@std@@PEAX@2@_K@Z 0000000140069f40 f i Main.obj
 0002:0003b050       ?deallocate@?$allocator@U?$_List_node@U?$pair@QEAUVertex@?$Diagram@N@mygal@@V?$shared_ptr@UVertex@NewDiagram@Voronoi@@@std@@@std@@PEAX@std@@@std@@QEAAXQEAU?$_List_node@U?$pair@QEAUVertex@?$Diagram@N@mygal@@V?$shared_ptr@UVertex@NewDiagram@Voronoi@@@std@@@std@@PEAX@2@_K@Z 000000014006a050 f i Main.obj
 0002:0003b160       ?deallocate@?$allocator@U?$_List_node@UHalfEdge@?$Diagram@N@mygal@@PEAX@std@@@std@@QEAAXQEAU?$_List_node@UHalfEdge@?$Diagram@N@mygal@@PEAX@2@_K@Z 000000014006a160 f i Main.obj
 0002:0003b270       ?deallocate@?$allocator@U?$_List_node@UVertex@?$Diagram@N@mygal@@PEAX@std@@@std@@QEAAXQEAU?$_List_node@UVertex@?$Diagram@N@mygal@@PEAX@2@_K@Z 000000014006a270 f i Main.obj
 0002:0003b380       ?deallocate@?$allocator@U?$_List_node@V?$shared_ptr@UFace@NewDiagram@Voronoi@@@std@@PEAX@std@@@std@@QEAAXQEAU?$_List_node@V?$shared_ptr@UFace@NewDiagram@Voronoi@@@std@@PEAX@2@_K@Z 000000014006a380 f i Main.obj
 0002:0003b490       ?deallocate@?$allocator@U?$pair@VPoint2D@@N@std@@@std@@QEAAXQEAU?$pair@VPoint2D@@N@2@_K@Z 000000014006a490 f i Main.obj
 0002:0003b5a0       ?deallocate@?$allocator@UFace@?$Diagram@N@mygal@@@std@@QEAAXQEAUFace@?$Diagram@N@mygal@@_K@Z 000000014006a5a0 f i Main.obj
 0002:0003b6b0       ?deallocate@?$allocator@USite@?$Diagram@N@mygal@@@std@@QEAAXQEAUSite@?$Diagram@N@mygal@@_K@Z 000000014006a6b0 f i Main.obj
 0002:0003b7c0       ?deallocate@?$allocator@V?$Vector2@N@mygal@@@std@@QEAAXQEAV?$Vector2@N@mygal@@_K@Z 000000014006a7c0 f i Main.obj
 0002:0003b8d0       ?deallocate@?$allocator@V?$_List_unchecked_iterator@V?$_List_val@U?$_List_simple_types@U?$pair@QEAUFace@?$Diagram@N@mygal@@V?$shared_ptr@UFace@NewDiagram@Voronoi@@@std@@@std@@@std@@@std@@@std@@@std@@QEAAXQEAV?$_List_unchecked_iterator@V?$_List_val@U?$_List_simple_types@U?$pair@QEAUFace@?$Diagram@N@mygal@@V?$shared_ptr@UFace@NewDiagram@Voronoi@@@std@@@std@@@std@@@std@@@2@_K@Z 000000014006a8d0 f i Main.obj
 0002:0003b9f0       ?deallocate@?$allocator@V?$_List_unchecked_iterator@V?$_List_val@U?$_List_simple_types@U?$pair@QEAUHalfEdge@?$Diagram@N@mygal@@V?$shared_ptr@UHalfEdge@NewDiagram@Voronoi@@@std@@@std@@@std@@@std@@@std@@@std@@QEAAXQEAV?$_List_unchecked_iterator@V?$_List_val@U?$_List_simple_types@U?$pair@QEAUHalfEdge@?$Diagram@N@mygal@@V?$shared_ptr@UHalfEdge@NewDiagram@Voronoi@@@std@@@std@@@std@@@std@@@2@_K@Z 000000014006a9f0 f i Main.obj
 0002:0003bb10       ?deallocate@?$allocator@V?$_List_unchecked_iterator@V?$_List_val@U?$_List_simple_types@U?$pair@QEAUVertex@?$Diagram@N@mygal@@V?$shared_ptr@UVertex@NewDiagram@Voronoi@@@std@@@std@@@std@@@std@@@std@@@std@@QEAAXQEAV?$_List_unchecked_iterator@V?$_List_val@U?$_List_simple_types@U?$pair@QEAUVertex@?$Diagram@N@mygal@@V?$shared_ptr@UVertex@NewDiagram@Voronoi@@@std@@@std@@@std@@@std@@@2@_K@Z 000000014006ab10 f i Main.obj
 0002:0003bc30       ?deallocate@?$allocator@V?$shared_ptr@USite@NewDiagram@Voronoi@@@std@@@std@@QEAAXQEAV?$shared_ptr@USite@NewDiagram@Voronoi@@@2@_K@Z 000000014006ac30 f i Main.obj
 0002:0003bd40       ?deallocate@?$allocator@V?$unique_ptr@V?$Event@N@mygal@@U?$default_delete@V?$Event@N@mygal@@@std@@@std@@@std@@QEAAXQEAV?$unique_ptr@V?$Event@N@mygal@@U?$default_delete@V?$Event@N@mygal@@@std@@@2@_K@Z 000000014006ad40 f i Main.obj
 0002:0003be60       ?deallocate@?$allocator@VCircleShape@sf@@@std@@QEAAXQEAVCircleShape@sf@@_K@Z 000000014006ae60 f i Main.obj
 0002:0003bf80       ?deleteEvent@?$FortuneAlgorithm@N@mygal@@AEAAXPEAU?$Arc@N@2@@Z 000000014006af80 f i Main.obj
 0002:0003c020       ?drawGrid@@YAXAEAVRenderWindow@sf@@H@Z 000000014006b020 f   Main.obj
 0002:0003c330       ?pointInsideRegion@@YA_NVPoint2D@@00@Z 000000014006b330 f   MinKnapsack.obj
 0002:0003c3f0       ?empty@?$vector@V?$shared_ptr@USite@NewDiagram@Voronoi@@@std@@V?$allocator@V?$shared_ptr@USite@NewDiagram@Voronoi@@@std@@@2@@std@@QEBA_NXZ 000000014006b3f0 f i Main.obj
 0002:0003c470       ?empty@?$vector@V?$unique_ptr@V?$Event@N@mygal@@U?$default_delete@V?$Event@N@mygal@@@std@@@std@@V?$allocator@V?$unique_ptr@V?$Event@N@mygal@@U?$default_delete@V?$Event@N@mygal@@@std@@@std@@@2@@std@@QEBA_NXZ 000000014006b470 f i Main.obj
 0002:0003c4f0       ?end@?$_Hash@V?$_Umap_traits@PEAUFace@?$Diagram@N@mygal@@V?$shared_ptr@UFace@NewDiagram@Voronoi@@@std@@V?$_Uhash_compare@PEAUFace@?$Diagram@N@mygal@@U?$hash@PEAUFace@?$Diagram@N@mygal@@@std@@U?$equal_to@PEAUFace@?$Diagram@N@mygal@@@5@@5@V?$allocator@U?$pair@QEAUFace@?$Diagram@N@mygal@@V?$shared_ptr@UFace@NewDiagram@Voronoi@@@std@@@std@@@5@$0A@@std@@@std@@QEAA?AV?$_List_iterator@V?$_List_val@U?$_List_simple_types@U?$pair@QEAUFace@?$Diagram@N@mygal@@V?$shared_ptr@UFace@NewDiagram@Voronoi@@@std@@@std@@@std@@@std@@@2@XZ 000000014006b4f0 f i Main.obj
 0002:0003c570       ?end@?$_Hash@V?$_Umap_traits@PEAUHalfEdge@?$Diagram@N@mygal@@V?$shared_ptr@UHalfEdge@NewDiagram@Voronoi@@@std@@V?$_Uhash_compare@PEAUHalfEdge@?$Diagram@N@mygal@@U?$hash@PEAUHalfEdge@?$Diagram@N@mygal@@@std@@U?$equal_to@PEAUHalfEdge@?$Diagram@N@mygal@@@5@@5@V?$allocator@U?$pair@QEAUHalfEdge@?$Diagram@N@mygal@@V?$shared_ptr@UHalfEdge@NewDiagram@Voronoi@@@std@@@std@@@5@$0A@@std@@@std@@QEAA?AV?$_List_iterator@V?$_List_val@U?$_List_simple_types@U?$pair@QEAUHalfEdge@?$Diagram@N@mygal@@V?$shared_ptr@UHalfEdge@NewDiagram@Voronoi@@@std@@@std@@@std@@@std@@@2@XZ 000000014006b570 f i Main.obj
 0002:0003c5f0       ?end@?$_Hash@V?$_Umap_traits@PEAUVertex@?$Diagram@N@mygal@@V?$shared_ptr@UVertex@NewDiagram@Voronoi@@@std@@V?$_Uhash_compare@PEAUVertex@?$Diagram@N@mygal@@U?$hash@PEAUVertex@?$Diagram@N@mygal@@@std@@U?$equal_to@PEAUVertex@?$Diagram@N@mygal@@@5@@5@V?$allocator@U?$pair@QEAUVertex@?$Diagram@N@mygal@@V?$shared_ptr@UVertex@NewDiagram@Voronoi@@@std@@@std@@@5@$0A@@std@@@std@@QEAA?AV?$_List_iterator@V?$_List_val@U?$_List_simple_types@U?$pair@QEAUVertex@?$Diagram@N@mygal@@V?$shared_ptr@UVertex@NewDiagram@Voronoi@@@std@@@std@@@std@@@std@@@2@XZ 000000014006b5f0 f i Main.obj
 0002:0003c670       ?end@?$list@U?$pair@QEAUFace@?$Diagram@N@mygal@@V?$shared_ptr@UFace@NewDiagram@Voronoi@@@std@@@std@@V?$allocator@U?$pair@QEAUFace@?$Diagram@N@mygal@@V?$shared_ptr@UFace@NewDiagram@Voronoi@@@std@@@std@@@2@@std@@QEAA?AV?$_List_iterator@V?$_List_val@U?$_List_simple_types@U?$pair@QEAUFace@?$Diagram@N@mygal@@V?$shared_ptr@UFace@NewDiagram@Voronoi@@@std@@@std@@@std@@@std@@@2@XZ 000000014006b670 f i Main.obj
 0002:0003c710       ?end@?$list@U?$pair@QEAUHalfEdge@?$Diagram@N@mygal@@V?$shared_ptr@UHalfEdge@NewDiagram@Voronoi@@@std@@@std@@V?$allocator@U?$pair@QEAUHalfEdge@?$Diagram@N@mygal@@V?$shared_ptr@UHalfEdge@NewDiagram@Voronoi@@@std@@@std@@@2@@std@@QEAA?AV?$_List_iterator@V?$_List_val@U?$_List_simple_types@U?$pair@QEAUHalfEdge@?$Diagram@N@mygal@@V?$shared_ptr@UHalfEdge@NewDiagram@Voronoi@@@std@@@std@@@std@@@std@@@2@XZ 000000014006b710 f i Main.obj
 0002:0003c7b0       ?end@?$list@U?$pair@QEAUVertex@?$Diagram@N@mygal@@V?$shared_ptr@UVertex@NewDiagram@Voronoi@@@std@@@std@@V?$allocator@U?$pair@QEAUVertex@?$Diagram@N@mygal@@V?$shared_ptr@UVertex@NewDiagram@Voronoi@@@std@@@std@@@2@@std@@QEAA?AV?$_List_iterator@V?$_List_val@U?$_List_simple_types@U?$pair@QEAUVertex@?$Diagram@N@mygal@@V?$shared_ptr@UVertex@NewDiagram@Voronoi@@@std@@@std@@@std@@@std@@@2@XZ 000000014006b7b0 f i Main.obj
 0002:0003c850       ?end@?$list@UHalfEdge@?$Diagram@N@mygal@@V?$allocator@UHalfEdge@?$Diagram@N@mygal@@@std@@@std@@QEAA?AV?$_List_iterator@V?$_List_val@U?$_List_simple_types@UHalfEdge@?$Diagram@N@mygal@@@std@@@std@@@2@XZ 000000014006b850 f i Main.obj
 0002:0003c8f0       ?end@?$list@UVertex@?$Diagram@N@mygal@@V?$allocator@UVertex@?$Diagram@N@mygal@@@std@@@std@@QEAA?AV?$_List_iterator@V?$_List_val@U?$_List_simple_types@UVertex@?$Diagram@N@mygal@@@std@@@std@@@2@XZ 000000014006b8f0 f i Main.obj
 0002:0003c990       ?eof@?$_Narrow_char_traits@DH@std@@SAHXZ 000000014006b990 f i Main.obj
 0002:0003c9d0       ?eq_int_type@?$_Narrow_char_traits@DH@std@@SA_NHH@Z 000000014006b9d0 f i Main.obj
 0002:0003ca40       ?erase@?$basic_string@DU?$char_traits@D@std@@V?$allocator@D@2@@std@@QEAAAEAV12@_K0@Z 000000014006ba40 f i Main.obj
 0002:0003cad0       ?free@?$Beachline@N@mygal@@AEAAXPEAU?$Arc@N@2@@Z 000000014006bad0 f i Main.obj
 0002:0003cbe0       ?front@?$basic_string@DU?$char_traits@D@std@@V?$allocator@D@2@@std@@QEAAAEADXZ 000000014006bbe0 f i Main.obj
 0002:0003cce0       ?get@?$_Ptr_base@UFace@NewDiagram@Voronoi@@@std@@IEBAPEAUFace@NewDiagram@Voronoi@@XZ 000000014006bce0 f i Main.obj
 0002:0003cd30       ?get@?$_Ptr_base@UHalfEdge@NewDiagram@Voronoi@@@std@@IEBAPEAUHalfEdge@NewDiagram@Voronoi@@XZ 000000014006bd30 f i Main.obj
 0002:0003cd80       ?get@?$_Ptr_base@USite@NewDiagram@Voronoi@@@std@@IEBAPEAUSite@NewDiagram@Voronoi@@XZ 000000014006bd80 f i Main.obj
 0002:0003cdd0       ?get@?$_Ptr_base@UVertex@NewDiagram@Voronoi@@@std@@IEBAPEAUVertex@NewDiagram@Voronoi@@XZ 000000014006bdd0 f i Main.obj
 0002:0003ce20       ?get@?$unique_ptr@V?$Event@N@mygal@@U?$default_delete@V?$Event@N@mygal@@@std@@@std@@QEBAPEAV?$Event@N@mygal@@XZ 000000014006be20 f i Main.obj
 0002:0003ce70       ?getDet@?$Vector2@N@mygal@@QEBANAEBV12@@Z 000000014006be70 f i Main.obj
 0002:0003cef0       ?getDiagram@?$FortuneAlgorithm@N@mygal@@QEAA?AV?$Diagram@N@2@XZ 000000014006bef0 f i Main.obj
 0002:0003cf70       ?getDistance@?$Vector2@N@mygal@@QEBANAEBV12@@Z 000000014006bf70 f i Main.obj
 0002:0003d000       ?getFaces@NewDiagram@Voronoi@@QEAAAEAV?$list@V?$shared_ptr@UFace@NewDiagram@Voronoi@@@std@@V?$allocator@V?$shared_ptr@UFace@NewDiagram@Voronoi@@@std@@@2@@std@@XZ 000000014006c000 f i Main.obj
 0002:0003d050       ?getHalfEdges@?$Diagram@N@mygal@@QEBAAEBV?$list@UHalfEdge@?$Diagram@N@mygal@@V?$allocator@UHalfEdge@?$Diagram@N@mygal@@@std@@@std@@XZ 000000014006c050 f i Main.obj
 0002:0003d0a0       ?getInitialX@?$FortuneAlgorithm@N@mygal@@AEBANPEBU?$Arc@N@2@0_N@Z 000000014006c0a0 f i Main.obj
 0002:0003d140       ?getLeftChild@?$PriorityQueue@V?$Event@N@mygal@@@mygal@@AEBA_K_K@Z 000000014006c140 f i Main.obj
 0002:0003d190       ?getNbSites@?$Diagram@N@mygal@@QEBA_KXZ 000000014006c190 f i Main.obj
 0002:0003d1e0       ?getNorm@?$Vector2@N@mygal@@QEBANXZ 000000014006c1e0 f i Main.obj
 0002:0003d260       ?getNullVertex@Vertex@NewDiagram@Voronoi@@SA?AV?$shared_ptr@UVertex@NewDiagram@Voronoi@@@std@@XZ 000000014006c260 f i Main.obj
 0002:0003d390       ?getOrthogonal@?$Vector2@N@mygal@@QEBA?AV12@XZ 000000014006c390 f i Main.obj
 0002:0003d410       ?getParent@?$PriorityQueue@V?$Event@N@mygal@@@mygal@@AEBAHH@Z 000000014006c410 f i Main.obj
 0002:0003d460       ?getRightChild@?$PriorityQueue@V?$Event@N@mygal@@@mygal@@AEBA_K_K@Z 000000014006c460 f i Main.obj
 0002:0003d4b0       ?getSite@?$Diagram@N@mygal@@AEAAPEAUSite@12@_K@Z 000000014006c4b0 f i Main.obj
 0002:0003d520       ?getSite@NewDiagram@Voronoi@@QEAA?AV?$shared_ptr@USite@NewDiagram@Voronoi@@@std@@_K@Z 000000014006c520 f i Main.obj
 0002:0003d5d0       ?getTotal@NewDiagram@Voronoi@@QEBA?BNXZ 000000014006c5d0 f i Main.obj
 0002:0003d620       ?getWeight@NewDiagram@Voronoi@@QEBA?BN_K@Z 000000014006c620 f i Main.obj
 0002:0003d6a0       ?get_deleter@?$unique_ptr@V?$Event@N@mygal@@U?$default_delete@V?$Event@N@mygal@@@std@@@std@@QEAAAEAU?$default_delete@V?$Event@N@mygal@@@2@XZ 000000014006c6a0 f i Main.obj
 0002:0003d6f0       ?handleCircleEvent@?$FortuneAlgorithm@N@mygal@@AEAAXPEAV?$Event@N@2@@Z 000000014006c6f0 f i Main.obj
 0002:0003d940       ?handleSiteEvent@?$FortuneAlgorithm@N@mygal@@AEAAXPEAV?$Event@N@2@@Z 000000014006c940 f i Main.obj
 0002:0003dbc0       ?imbue@?$basic_filebuf@DU?$char_traits@D@std@@@std@@MEAAXAEBVlocale@2@@Z 000000014006cbc0 f i Main.obj
 0002:0003dc20       ?infinity@?$numeric_limits@N@std@@SANXZ 000000014006cc20 f i Main.obj
 0002:0003dc60       ?initEdgePointsVis@@YAXAEAV?$shared_ptr@UHalfEdge@NewDiagram@Voronoi@@@std@@AEAVVertexArray@sf@@AEBV?$vector@U?$pair@VPoint2D@@N@std@@V?$allocator@U?$pair@VPoint2D@@N@std@@@2@@2@@Z 000000014006cc60 f   Main.obj
 0002:0003e4d0       ??$_Construct_n@PEBV?$shared_ptr@USite@NewDiagram@Voronoi@@@std@@PEBV12@@?$vector@V?$shared_ptr@USite@NewDiagram@Voronoi@@@std@@V?$allocator@V?$shared_ptr@USite@NewDiagram@Voronoi@@@std@@@2@@std@@AEAAX_K$$QEAPEBV?$shared_ptr@USite@NewDiagram@Voronoi@@@1@1@Z 000000014006d4d0 f i MinKnapsack.obj
 0002:0003e6f0       ?insertAfter@?$Beachline@N@mygal@@QEAAXPEAU?$Arc@N@2@0@Z 000000014006d6f0 f i Main.obj
 0002:0003e860       ?insertBefore@?$Beachline@N@mygal@@QEAAXPEAU?$Arc@N@2@0@Z 000000014006d860 f i Main.obj
 0002:0003e9d0       ?insertFixup@?$Beachline@N@mygal@@AEAAXPEAU?$Arc@N@2@@Z 000000014006d9d0 f i Main.obj
 0002:0003eca0       ?isEmpty@?$Beachline@N@mygal@@QEBA_NXZ 000000014006dca0 f i Main.obj
 0002:0003ed00       ?isEmpty@?$PriorityQueue@V?$Event@N@mygal@@@mygal@@QEBA_NXZ 000000014006dd00 f i Main.obj
 0002:0003ed50       ?isMovingRight@?$FortuneAlgorithm@N@mygal@@AEBA_NPEBU?$Arc@N@2@0@Z 000000014006dd50 f i Main.obj
 0002:0003ede0       ?isNil@?$Beachline@N@mygal@@QEBA_NPEBU?$Arc@N@2@@Z 000000014006dde0 f i Main.obj
 0002:0003ee60       ?leftRotate@?$Beachline@N@mygal@@AEAAXPEAU?$Arc@N@2@@Z 000000014006de60 f i Main.obj
 0002:0003efc0       ?length@?$_Narrow_char_traits@DH@std@@SA_KQEBD@Z 000000014006dfc0 f i Main.obj
 0002:0003f040       ?locateArcAbove@?$Beachline@N@mygal@@QEBAPEAU?$Arc@N@2@AEBV?$Vector2@N@2@N@Z 000000014006e040 f i Main.obj
 0002:0003f220       ?max_load_factor@?$_Hash@V?$_Umap_traits@PEAUFace@?$Diagram@N@mygal@@V?$shared_ptr@UFace@NewDiagram@Voronoi@@@std@@V?$_Uhash_compare@PEAUFace@?$Diagram@N@mygal@@U?$hash@PEAUFace@?$Diagram@N@mygal@@@std@@U?$equal_to@PEAUFace@?$Diagram@N@mygal@@@5@@5@V?$allocator@U?$pair@QEAUFace@?$Diagram@N@mygal@@V?$shared_ptr@UFace@NewDiagram@Voronoi@@@std@@@std@@@5@$0A@@std@@@std@@QEBAMXZ 000000014006e220 f i Main.obj
 0002:0003f270       ?max_load_factor@?$_Hash@V?$_Umap_traits@PEAUHalfEdge@?$Diagram@N@mygal@@V?$shared_ptr@UHalfEdge@NewDiagram@Voronoi@@@std@@V?$_Uhash_compare@PEAUHalfEdge@?$Diagram@N@mygal@@U?$hash@PEAUHalfEdge@?$Diagram@N@mygal@@@std@@U?$equal_to@PEAUHalfEdge@?$Diagram@N@mygal@@@5@@5@V?$allocator@U?$pair@QEAUHalfEdge@?$Diagram@N@mygal@@V?$shared_ptr@UHalfEdge@NewDiagram@Voronoi@@@std@@@std@@@5@$0A@@std@@@std@@QEBAMXZ 000000014006e270 f i Main.obj
 0002:0003f2c0       ?max_load_factor@?$_Hash@V?$_Umap_traits@PEAUVertex@?$Diagram@N@mygal@@V?$shared_ptr@UVertex@NewDiagram@Voronoi@@@std@@V?$_Uhash_compare@PEAUVertex@?$Diagram@N@mygal@@U?$hash@PEAUVertex@?$Diagram@N@mygal@@@std@@U?$equal_to@PEAUVertex@?$Diagram@N@mygal@@@5@@5@V?$allocator@U?$pair@QEAUVertex@?$Diagram@N@mygal@@V?$shared_ptr@UVertex@NewDiagram@Voronoi@@@std@@@std@@@5@$0A@@std@@@std@@QEBAMXZ 000000014006e2c0 f i Main.obj
 0002:0003f310       ?max_size@?$_Default_allocator_traits@V?$allocator@D@std@@@std@@SA_KAEBV?$allocator@D@2@@Z 000000014006e310 f i Main.obj
 0002:0003f350       ?max_size@?$_Default_allocator_traits@V?$allocator@U?$_List_node@U?$pair@QEAUFace@?$Diagram@N@mygal@@V?$shared_ptr@UFace@NewDiagram@Voronoi@@@std@@@std@@PEAX@std@@@std@@@std@@SA_KAEBV?$allocator@U?$_List_node@U?$pair@QEAUFace@?$Diagram@N@mygal@@V?$shared_ptr@UFace@NewDiagram@Voronoi@@@std@@@std@@PEAX@std@@@2@@Z 000000014006e350 f i Main.obj
 0002:0003f3a0       ?max_size@?$_Default_allocator_traits@V?$allocator@U?$_List_node@U?$pair@QEAUHalfEdge@?$Diagram@N@mygal@@V?$shared_ptr@UHalfEdge@NewDiagram@Voronoi@@@std@@@std@@PEAX@std@@@std@@@std@@SA_KAEBV?$allocator@U?$_List_node@U?$pair@QEAUHalfEdge@?$Diagram@N@mygal@@V?$shared_ptr@UHalfEdge@NewDiagram@Voronoi@@@std@@@std@@PEAX@std@@@2@@Z 000000014006e3a0 f i Main.obj
 0002:0003f3f0       ?max_size@?$_Default_allocator_traits@V?$allocator@U?$_List_node@U?$pair@QEAUVertex@?$Diagram@N@mygal@@V?$shared_ptr@UVertex@NewDiagram@Voronoi@@@std@@@std@@PEAX@std@@@std@@@std@@SA_KAEBV?$allocator@U?$_List_node@U?$pair@QEAUVertex@?$Diagram@N@mygal@@V?$shared_ptr@UVertex@NewDiagram@Voronoi@@@std@@@std@@PEAX@std@@@2@@Z 000000014006e3f0 f i Main.obj
 0002:0003f440       ?max_size@?$_Default_allocator_traits@V?$allocator@U?$_List_node@UHalfEdge@?$Diagram@N@mygal@@PEAX@std@@@std@@@std@@SA_KAEBV?$allocator@U?$_List_node@UHalfEdge@?$Diagram@N@mygal@@PEAX@std@@@2@@Z 000000014006e440 f i Main.obj
 0002:0003f490       ?max_size@?$_Default_allocator_traits@V?$allocator@U?$_List_node@UVertex@?$Diagram@N@mygal@@PEAX@std@@@std@@@std@@SA_KAEBV?$allocator@U?$_List_node@UVertex@?$Diagram@N@mygal@@PEAX@std@@@2@@Z 000000014006e490 f i Main.obj
 0002:0003f4e0       ?max_size@?$_Default_allocator_traits@V?$allocator@U?$_List_node@V?$shared_ptr@UFace@NewDiagram@Voronoi@@@std@@PEAX@std@@@std@@@std@@SA_KAEBV?$allocator@U?$_List_node@V?$shared_ptr@UFace@NewDiagram@Voronoi@@@std@@PEAX@std@@@2@@Z 000000014006e4e0 f i Main.obj
 0002:0003f530       ?max_size@?$_Default_allocator_traits@V?$allocator@U?$pair@VPoint2D@@N@std@@@std@@@std@@SA_KAEBV?$allocator@U?$pair@VPoint2D@@N@std@@@2@@Z 000000014006e530 f i Main.obj
 0002:0003f580       ?max_size@?$_Default_allocator_traits@V?$allocator@UFace@?$Diagram@N@mygal@@@std@@@std@@SA_KAEBV?$allocator@UFace@?$Diagram@N@mygal@@@2@@Z 000000014006e580 f i Main.obj
 0002:0003f5d0       ?max_size@?$_Default_allocator_traits@V?$allocator@USite@?$Diagram@N@mygal@@@std@@@std@@SA_KAEBV?$allocator@USite@?$Diagram@N@mygal@@@2@@Z 000000014006e5d0 f i Main.obj
 0002:0003f620       ?max_size@?$_Default_allocator_traits@V?$allocator@V?$Vector2@N@mygal@@@std@@@std@@SA_KAEBV?$allocator@V?$Vector2@N@mygal@@@2@@Z 000000014006e620 f i Main.obj
 0002:0003f670       ?max_size@?$_Default_allocator_traits@V?$allocator@V?$_List_unchecked_iterator@V?$_List_val@U?$_List_simple_types@U?$pair@QEAUFace@?$Diagram@N@mygal@@V?$shared_ptr@UFace@NewDiagram@Voronoi@@@std@@@std@@@std@@@std@@@std@@@std@@@std@@SA_KAEBV?$allocator@V?$_List_unchecked_iterator@V?$_List_val@U?$_List_simple_types@U?$pair@QEAUFace@?$Diagram@N@mygal@@V?$shared_ptr@UFace@NewDiagram@Voronoi@@@std@@@std@@@std@@@std@@@std@@@2@@Z 000000014006e670 f i Main.obj
 0002:0003f6c0       ?max_size@?$_Default_allocator_traits@V?$allocator@V?$_List_unchecked_iterator@V?$_List_val@U?$_List_simple_types@U?$pair@QEAUHalfEdge@?$Diagram@N@mygal@@V?$shared_ptr@UHalfEdge@NewDiagram@Voronoi@@@std@@@std@@@std@@@std@@@std@@@std@@@std@@SA_KAEBV?$allocator@V?$_List_unchecked_iterator@V?$_List_val@U?$_List_simple_types@U?$pair@QEAUHalfEdge@?$Diagram@N@mygal@@V?$shared_ptr@UHalfEdge@NewDiagram@Voronoi@@@std@@@std@@@std@@@std@@@std@@@2@@Z 000000014006e6c0 f i Main.obj
 0002:0003f710       ?max_size@?$_Default_allocator_traits@V?$allocator@V?$_List_unchecked_iterator@V?$_List_val@U?$_List_simple_types@U?$pair@QEAUVertex@?$Diagram@N@mygal@@V?$shared_ptr@UVertex@NewDiagram@Voronoi@@@std@@@std@@@std@@@std@@@std@@@std@@@std@@SA_KAEBV?$allocator@V?$_List_unchecked_iterator@V?$_List_val@U?$_List_simple_types@U?$pair@QEAUVertex@?$Diagram@N@mygal@@V?$shared_ptr@UVertex@NewDiagram@Voronoi@@@std@@@std@@@std@@@std@@@std@@@2@@Z 000000014006e710 f i Main.obj
 0002:0003f760       ?max_size@?$_Default_allocator_traits@V?$allocator@V?$shared_ptr@USite@NewDiagram@Voronoi@@@std@@@std@@@std@@SA_KAEBV?$allocator@V?$shared_ptr@USite@NewDiagram@Voronoi@@@std@@@2@@Z 000000014006e760 f i Main.obj
 0002:0003f7b0       ?max_size@?$_Default_allocator_traits@V?$allocator@V?$unique_ptr@V?$Event@N@mygal@@U?$default_delete@V?$Event@N@mygal@@@std@@@std@@@std@@@std@@SA_KAEBV?$allocator@V?$unique_ptr@V?$Event@N@mygal@@U?$default_delete@V?$Event@N@mygal@@@std@@@std@@@2@@Z 000000014006e7b0 f i Main.obj
 0002:0003f800       ?max_size@?$_Default_allocator_traits@V?$allocator@VCircleShape@sf@@@std@@@std@@SA_KAEBV?$allocator@VCircleShape@sf@@@2@@Z 000000014006e800 f i Main.obj
 0002:0003f850       ?max_size@?$_Hash_vec@V?$allocator@V?$_List_unchecked_iterator@V?$_List_val@U?$_List_simple_types@U?$pair@QEAUFace@?$Diagram@N@mygal@@V?$shared_ptr@UFace@NewDiagram@Voronoi@@@std@@@std@@@std@@@std@@@std@@@std@@@std@@QEBA_KXZ 000000014006e850 f i Main.obj
 0002:0003f8e0       ?max_size@?$_Hash_vec@V?$allocator@V?$_List_unchecked_iterator@V?$_List_val@U?$_List_simple_types@U?$pair@QEAUHalfEdge@?$Diagram@N@mygal@@V?$shared_ptr@UHalfEdge@NewDiagram@Voronoi@@@std@@@std@@@std@@@std@@@std@@@std@@@std@@QEBA_KXZ 000000014006e8e0 f i Main.obj
 0002:0003f970       ?max_size@?$_Hash_vec@V?$allocator@V?$_List_unchecked_iterator@V?$_List_val@U?$_List_simple_types@U?$pair@QEAUVertex@?$Diagram@N@mygal@@V?$shared_ptr@UVertex@NewDiagram@Voronoi@@@std@@@std@@@std@@@std@@@std@@@std@@@std@@QEBA_KXZ 000000014006e970 f i Main.obj
 0002:0003fa00       ?max_size@?$basic_string@DU?$char_traits@D@std@@V?$allocator@D@2@@std@@QEBA_KXZ 000000014006ea00 f i Main.obj
 0002:0003fb20       ?max_size@?$list@U?$pair@QEAUFace@?$Diagram@N@mygal@@V?$shared_ptr@UFace@NewDiagram@Voronoi@@@std@@@std@@V?$allocator@U?$pair@QEAUFace@?$Diagram@N@mygal@@V?$shared_ptr@UFace@NewDiagram@Voronoi@@@std@@@std@@@2@@std@@QEBA_KXZ 000000014006eb20 f i Main.obj
 0002:0003fba0       ?max_size@?$list@U?$pair@QEAUHalfEdge@?$Diagram@N@mygal@@V?$shared_ptr@UHalfEdge@NewDiagram@Voronoi@@@std@@@std@@V?$allocator@U?$pair@QEAUHalfEdge@?$Diagram@N@mygal@@V?$shared_ptr@UHalfEdge@NewDiagram@Voronoi@@@std@@@std@@@2@@std@@QEBA_KXZ 000000014006eba0 f i Main.obj
 0002:0003fc20       ?max_size@?$list@U?$pair@QEAUVertex@?$Diagram@N@mygal@@V?$shared_ptr@UVertex@NewDiagram@Voronoi@@@std@@@std@@V?$allocator@U?$pair@QEAUVertex@?$Diagram@N@mygal@@V?$shared_ptr@UVertex@NewDiagram@Voronoi@@@std@@@std@@@2@@std@@QEBA_KXZ 000000014006ec20 f i Main.obj
 0002:0003fca0       ?max_size@?$list@UHalfEdge@?$Diagram@N@mygal@@V?$allocator@UHalfEdge@?$Diagram@N@mygal@@@std@@@std@@QEBA_KXZ 000000014006eca0 f i Main.obj
 0002:0003fd20       ?max_size@?$list@UVertex@?$Diagram@N@mygal@@V?$allocator@UVertex@?$Diagram@N@mygal@@@std@@@std@@QEBA_KXZ 000000014006ed20 f i Main.obj
 0002:0003fda0       ?max_size@?$list@V?$shared_ptr@UFace@NewDiagram@Voronoi@@@std@@V?$allocator@V?$shared_ptr@UFace@NewDiagram@Voronoi@@@std@@@2@@std@@QEBA_KXZ 000000014006eda0 f i Main.obj
 0002:0003fe20       ?max_size@?$vector@U?$pair@VPoint2D@@N@std@@V?$allocator@U?$pair@VPoint2D@@N@std@@@2@@std@@QEBA_KXZ 000000014006ee20 f i Main.obj
 0002:0003fea0       ?max_size@?$vector@UFace@?$Diagram@N@mygal@@V?$allocator@UFace@?$Diagram@N@mygal@@@std@@@std@@QEBA_KXZ 000000014006eea0 f i Main.obj
 0002:0003ff20       ?max_size@?$vector@USite@?$Diagram@N@mygal@@V?$allocator@USite@?$Diagram@N@mygal@@@std@@@std@@QEBA_KXZ 000000014006ef20 f i Main.obj
 0002:0003ffa0       ?max_size@?$vector@V?$Vector2@N@mygal@@V?$allocator@V?$Vector2@N@mygal@@@std@@@std@@QEBA_KXZ 000000014006efa0 f i Main.obj
 0002:00040020       ?max_size@?$vector@V?$shared_ptr@USite@NewDiagram@Voronoi@@@std@@V?$allocator@V?$shared_ptr@USite@NewDiagram@Voronoi@@@std@@@2@@std@@QEBA_KXZ 000000014006f020 f i Main.obj
 0002:000400a0       ?max_size@?$vector@V?$unique_ptr@V?$Event@N@mygal@@U?$default_delete@V?$Event@N@mygal@@@std@@@std@@V?$allocator@V?$unique_ptr@V?$Event@N@mygal@@U?$default_delete@V?$Event@N@mygal@@@std@@@std@@@2@@std@@QEBA_KXZ 000000014006f0a0 f i Main.obj
 0002:00040120       ?max_size@?$vector@VCircleShape@sf@@V?$allocator@VCircleShape@sf@@@std@@@std@@QEBA_KXZ 000000014006f120 f i Main.obj
 0002:000401a0       ?minimum@?$Beachline@N@mygal@@AEBAPEAU?$Arc@N@2@PEAU32@@Z 000000014006f1a0 f i Main.obj
 0002:00040230       ?modifyStructure@@YAXAEBV?$Diagram@N@mygal@@AEAVNewDiagram@Voronoi@@@Z 000000014006f230 f   Main.obj
 0002:00041540       ??$_Emplace_reallocate@V?$shared_ptr@UFace@NewDiagram@Voronoi@@@std@@@?$vector@V?$shared_ptr@UFace@NewDiagram@Voronoi@@@std@@V?$allocator@V?$shared_ptr@UFace@NewDiagram@Voronoi@@@std@@@2@@std@@AEAAPEAV?$shared_ptr@UFace@NewDiagram@Voronoi@@@1@QEAV21@$$QEAV21@@Z 0000000140070540 f i MinKnapsack.obj
 0002:000417d0       ??$_Uninitialized_move@PEAV?$shared_ptr@UHalfEdge@NewDiagram@Voronoi@@@std@@V?$allocator@V?$shared_ptr@UHalfEdge@NewDiagram@Voronoi@@@std@@@2@@std@@YAPEAV?$shared_ptr@UHalfEdge@NewDiagram@Voronoi@@@0@QEAV10@0PEAV10@AEAV?$allocator@V?$shared_ptr@UHalfEdge@NewDiagram@Voronoi@@@std@@@0@@Z 00000001400707d0 f i MinKnapsack.obj
 0002:000418f0       ??8?$_List_const_iterator@V?$_List_val@U?$_List_simple_types@PEAUSpecial_vertex@@@std@@@std@@@std@@QEBA_NAEBV01@@Z 00000001400708f0 f i MinKnapsack.obj
 0002:00041a00       ?move@?$_Char_traits@DH@std@@SAPEADQEADQEBD_K@Z 0000000140070a00 f i Main.obj
 0002:00041a70       ?not_eof@?$_Narrow_char_traits@DH@std@@SAHH@Z 0000000140070a70 f i Main.obj
 0002:00041b10       ?open@?$basic_filebuf@DU?$char_traits@D@std@@@std@@QEAAPEAV12@PEBDHH@Z 0000000140070b10 f i Main.obj
 0002:00041c40       ?overflow@?$basic_filebuf@DU?$char_traits@D@std@@@std@@MEAAHH@Z 0000000140070c40 f i Main.obj
 0002:00042020       ?pbackfail@?$basic_filebuf@DU?$char_traits@D@std@@@std@@MEAAHH@Z 0000000140071020 f i Main.obj
 0002:00042250       ?pop@?$PriorityQueue@V?$Event@N@mygal@@@mygal@@QEAA?AV?$unique_ptr@V?$Event@N@mygal@@U?$default_delete@V?$Event@N@mygal@@@std@@@std@@XZ 0000000140071250 f i Main.obj
 0002:00042390       ?pop_back@?$vector@V?$unique_ptr@V?$Event@N@mygal@@U?$default_delete@V?$Event@N@mygal@@@std@@@std@@V?$allocator@V?$unique_ptr@V?$Event@N@mygal@@U?$default_delete@V?$Event@N@mygal@@@std@@@std@@@2@@std@@QEAAXXZ 0000000140071390 f i Main.obj
 0002:00042520       ?push@?$PriorityQueue@V?$Event@N@mygal@@@mygal@@QEAAX$$QEAV?$unique_ptr@V?$Event@N@mygal@@U?$default_delete@V?$Event@N@mygal@@@std@@@std@@@Z 0000000140071520 f i Main.obj
 0002:000425f0       ?push_back@?$basic_string@DU?$char_traits@D@std@@V?$allocator@D@2@@std@@QEAAXD@Z 00000001400715f0 f i Main.obj
 0002:00042720       ?push_back@?$vector@U?$pair@VPoint2D@@N@std@@V?$allocator@U?$pair@VPoint2D@@N@std@@@2@@std@@QEAAX$$QEAU?$pair@VPoint2D@@N@2@@Z 0000000140071720 f i Main.obj
 0002:00042780       ?push_back@?$vector@UFace@?$Diagram@N@mygal@@V?$allocator@UFace@?$Diagram@N@mygal@@@std@@@std@@QEAAX$$QEAUFace@?$Diagram@N@mygal@@@Z 0000000140071780 f i Main.obj
 0002:000427e0       ?push_back@?$vector@USite@?$Diagram@N@mygal@@V?$allocator@USite@?$Diagram@N@mygal@@@std@@@std@@QEAAX$$QEAUSite@?$Diagram@N@mygal@@@Z 00000001400717e0 f i Main.obj
 0002:00042840       ?push_back@?$vector@V?$Vector2@N@mygal@@V?$allocator@V?$Vector2@N@mygal@@@std@@@std@@QEAAX$$QEAV?$Vector2@N@mygal@@@Z 0000000140071840 f i Main.obj
 0002:000428a0       ?push_back@?$vector@V?$shared_ptr@USite@NewDiagram@Voronoi@@@std@@V?$allocator@V?$shared_ptr@USite@NewDiagram@Voronoi@@@std@@@2@@std@@QEAAX$$QEAV?$shared_ptr@USite@NewDiagram@Voronoi@@@2@@Z 00000001400718a0 f i Main.obj
 0002:00042900       ?push_back@?$vector@VCircleShape@sf@@V?$allocator@VCircleShape@sf@@@std@@@std@@QEAAXAEBVCircleShape@sf@@@Z 0000000140071900 f i Main.obj
 0002:00042960       ?readCapacity@@YANAEBV?$basic_string@DU?$char_traits@D@std@@V?$allocator@D@2@@std@@H@Z 0000000140071960 f   Main.obj
 0002:00042ac0       ?readPoints@@YA?AV?$vector@U?$pair@VPoint2D@@N@std@@V?$allocator@U?$pair@VPoint2D@@N@std@@@2@@std@@AEBV?$basic_string@DU?$char_traits@D@std@@V?$allocator@D@2@@2@H@Z 0000000140071ac0 f   Main.obj
 0002:00042da0       ?release@?$unique_ptr@V?$Event@N@mygal@@U?$default_delete@V?$Event@N@mygal@@@std@@@std@@QEAAPEAV?$Event@N@mygal@@XZ 0000000140071da0 f i Main.obj
 0002:00042e00       ?release@?$unique_ptr@V_Facet_base@std@@U?$default_delete@V_Facet_base@std@@@2@@std@@QEAAPEAV_Facet_base@2@XZ 0000000140071e00 f i Main.obj
 0002:00042e60       ?remove@?$Beachline@N@mygal@@QEAAXPEAU?$Arc@N@2@@Z 0000000140071e60 f i Main.obj
 0002:00043150       ?remove@?$PriorityQueue@V?$Event@N@mygal@@@mygal@@QEAAX_K@Z 0000000140072150 f i Main.obj
 0002:00043210       ?removeArc@?$FortuneAlgorithm@N@mygal@@AEAAXPEAU?$Arc@N@2@PEAUVertex@?$Diagram@N@2@@Z 0000000140072210 f i Main.obj
 0002:00043470       ?removeFixup@?$Beachline@N@mygal@@AEAAXPEAU?$Arc@N@2@@Z 0000000140072470 f i Main.obj
 0002:00043850       ?replace@?$Beachline@N@mygal@@QEAAXPEAU?$Arc@N@2@0@Z 0000000140072850 f i Main.obj
 0002:00043a40       ?reserve@?$vector@UFace@?$Diagram@N@mygal@@V?$allocator@UFace@?$Diagram@N@mygal@@@std@@@std@@QEAAX_K@Z 0000000140072a40 f i Main.obj
 0002:00043ad0       ?reserve@?$vector@USite@?$Diagram@N@mygal@@V?$allocator@USite@?$Diagram@N@mygal@@@std@@@std@@QEAAX_K@Z 0000000140072ad0 f i Main.obj
 0002:00043b60       ?reserve@?$vector@V?$shared_ptr@USite@NewDiagram@Voronoi@@@std@@V?$allocator@V?$shared_ptr@USite@NewDiagram@Voronoi@@@std@@@2@@std@@QEAAX_K@Z 0000000140072b60 f i Main.obj
 0002:00043bf0       ?rightRotate@?$Beachline@N@mygal@@AEAAXPEAU?$Arc@N@2@@Z 0000000140072bf0 f i Main.obj
 0002:00043d50       ?seekoff@?$basic_filebuf@DU?$char_traits@D@std@@@std@@MEAA?AV?$fpos@U_Mbstatet@@@2@_JHH@Z 0000000140072d50 f i Main.obj
 0002:00043f50       ?seekpos@?$basic_filebuf@DU?$char_traits@D@std@@@std@@MEAA?AV?$fpos@U_Mbstatet@@@2@V32@H@Z 0000000140072f50 f i Main.obj
 0002:000440f0       ?select_on_container_copy_construction@?$_Default_allocator_traits@V?$allocator@V?$Vector2@N@mygal@@@std@@@std@@SA?AV?$allocator@V?$Vector2@N@mygal@@@2@AEBV32@@Z 00000001400730f0 f i Main.obj
 0002:00044140       ?setDestination@?$FortuneAlgorithm@N@mygal@@AEAAXPEAU?$Arc@N@2@0PEAUVertex@?$Diagram@N@2@@Z 0000000140073140 f i Main.obj
 0002:000441c0       ?setOrigin@?$FortuneAlgorithm@N@mygal@@AEAAXPEAU?$Arc@N@2@0PEAUVertex@?$Diagram@N@2@@Z 00000001400731c0 f i Main.obj
 0002:00044240       ?setPrevHalfEdge@?$FortuneAlgorithm@N@mygal@@AEAAXPEAUHalfEdge@?$Diagram@N@2@0@Z 0000000140073240 f i Main.obj
 0002:000442b0       ?setRoot@?$Beachline@N@mygal@@QEAAXPEAU?$Arc@N@2@@Z 00000001400732b0 f i Main.obj
 0002:00044320       ?setbuf@?$basic_filebuf@DU?$char_traits@D@std@@@std@@MEAAPEAV?$basic_streambuf@DU?$char_traits@D@std@@@2@PEAD_J@Z 0000000140073320 f i Main.obj
 0002:00044420       ?siftDown@?$PriorityQueue@V?$Event@N@mygal@@@mygal@@AEAAX_K@Z 0000000140073420 f i Main.obj
 0002:00044650       ?siftUp@?$PriorityQueue@V?$Event@N@mygal@@@mygal@@AEAAX_K@Z 0000000140073650 f i Main.obj
 0002:00044790       ?size@?$_Hash_vec@V?$allocator@V?$_List_unchecked_iterator@V?$_List_val@U?$_List_simple_types@U?$pair@QEAUFace@?$Diagram@N@mygal@@V?$shared_ptr@UFace@NewDiagram@Voronoi@@@std@@@std@@@std@@@std@@@std@@@std@@@std@@QEBA_KXZ 0000000140073790 f i Main.obj
 0002:000447f0       ?size@?$_Hash_vec@V?$allocator@V?$_List_unchecked_iterator@V?$_List_val@U?$_List_simple_types@U?$pair@QEAUHalfEdge@?$Diagram@N@mygal@@V?$shared_ptr@UHalfEdge@NewDiagram@Voronoi@@@std@@@std@@@std@@@std@@@std@@@std@@@std@@QEBA_KXZ 00000001400737f0 f i Main.obj
 0002:00044850       ?size@?$_Hash_vec@V?$allocator@V?$_List_unchecked_iterator@V?$_List_val@U?$_List_simple_types@U?$pair@QEAUVertex@?$Diagram@N@mygal@@V?$shared_ptr@UVertex@NewDiagram@Voronoi@@@std@@@std@@@std@@@std@@@std@@@std@@@std@@QEBA_KXZ 0000000140073850 f i Main.obj
 0002:000448b0       ?size@?$basic_string@DU?$char_traits@D@std@@V?$allocator@D@2@@std@@QEBA_KXZ 00000001400738b0 f i Main.obj
 0002:00044900       ?size@?$initializer_list@V?$shared_ptr@USite@NewDiagram@Voronoi@@@std@@@std@@QEBA_KXZ 0000000140073900 f i Main.obj
 0002:00044960       ?size@?$vector@U?$pair@VPoint2D@@N@std@@V?$allocator@U?$pair@VPoint2D@@N@std@@@2@@std@@QEBA_KXZ 0000000140073960 f i Main.obj
 0002:000449d0       ?size@?$vector@USite@?$Diagram@N@mygal@@V?$allocator@USite@?$Diagram@N@mygal@@@std@@@std@@QEBA_KXZ 00000001400739d0 f i Main.obj
 0002:00044a30       ?size@?$vector@V?$Vector2@N@mygal@@V?$allocator@V?$Vector2@N@mygal@@@std@@@std@@QEBA_KXZ 0000000140073a30 f i Main.obj
 0002:00044a90       ?size@?$vector@V?$unique_ptr@V?$Event@N@mygal@@U?$default_delete@V?$Event@N@mygal@@@std@@@std@@V?$allocator@V?$unique_ptr@V?$Event@N@mygal@@U?$default_delete@V?$Event@N@mygal@@@std@@@std@@@2@@std@@QEBA_KXZ 0000000140073a90 f i Main.obj
 0002:00044af0       ?state@?$fpos@U_Mbstatet@@@std@@QEBA?AU_Mbstatet@@XZ 0000000140073af0 f i Main.obj
 0002:00044b50       ?swap@?$PriorityQueue@V?$Event@N@mygal@@@mygal@@AEAAX_K0@Z 0000000140073b50 f i Main.obj
 0002:00044c90       ?swap@?$shared_ptr@UFace@NewDiagram@Voronoi@@@std@@QEAAXAEAV12@@Z 0000000140073c90 f i Main.obj
 0002:00044cf0       ?swap@?$shared_ptr@UHalfEdge@NewDiagram@Voronoi@@@std@@QEAAXAEAV12@@Z 0000000140073cf0 f i Main.obj
 0002:00044d50       ?swap@?$shared_ptr@USite@NewDiagram@Voronoi@@@std@@QEAAXAEAV12@@Z 0000000140073d50 f i Main.obj
 0002:00044db0       ?swap@?$shared_ptr@UVertex@NewDiagram@Voronoi@@@std@@QEAAXAEAV12@@Z 0000000140073db0 f i Main.obj
 0002:00044e10       ?swap@?$unique_ptr@V?$Event@N@mygal@@U?$default_delete@V?$Event@N@mygal@@@std@@@std@@QEAAXAEAV12@@Z 0000000140073e10 f i Main.obj
 0002:00044ec0       ?sync@?$basic_filebuf@DU?$char_traits@D@std@@@std@@MEAAHXZ 0000000140073ec0 f i Main.obj
 0002:00044fb0       ?to_char_type@?$_Narrow_char_traits@DH@std@@SADH@Z 0000000140073fb0 f i Main.obj
 0002:00044ff0       ?to_int_type@?$_Narrow_char_traits@DH@std@@SAHD@Z 0000000140073ff0 f i Main.obj
 0002:00045030       ?transplant@?$Beachline@N@mygal@@AEAAXPEAU?$Arc@N@2@0@Z 0000000140074030 f i Main.obj
 0002:00045120       ?uflow@?$basic_filebuf@DU?$char_traits@D@std@@@std@@MEAAHXZ 0000000140074120 f i Main.obj
 0002:000454c0       ?_Unwrapped@?$_List_iterator@V?$_List_val@U?$_List_simple_types@PEAUSpecial_vertex@@@std@@@std@@@std@@QEBA?AV?$_List_unchecked_iterator@V?$_List_val@U?$_List_simple_types@PEAUSpecial_vertex@@@std@@@std@@@2@XZ 00000001400744c0 f i MinKnapsack.obj
 0002:000455b0       ?underflow@?$basic_filebuf@DU?$char_traits@D@std@@@std@@MEAAHXZ 00000001400745b0 f i Main.obj
 0002:000456f0       ?update@?$PriorityQueue@V?$Event@N@mygal@@@mygal@@QEAAX_K@Z 00000001400746f0 f i Main.obj
 0002:00045820       ?what@exception@std@@UEBAPEBDXZ 0000000140074820 f i Main.obj
 0002:000458a0       ?xsgetn@?$basic_filebuf@DU?$char_traits@D@std@@@std@@MEAA_JPEAD_J@Z 00000001400748a0 f i Main.obj
 0002:00045bc0       ?xsputn@?$basic_filebuf@DU?$char_traits@D@std@@@std@@MEAA_JPEBD_J@Z 0000000140074bc0 f i Main.obj
 0002:00045da0       __JustMyCode_Default       0000000140074da0 f i Main.obj
 0002:00045db0       main                       0000000140074db0 f   Main.obj
 0002:00046ae0       ??$emplace@PEAUSpecial_vertex@@@?$list@PEAUSpecial_vertex@@V?$allocator@PEAUSpecial_vertex@@@std@@@std@@QEAA?AV?$_List_iterator@V?$_List_val@U?$_List_simple_types@PEAUSpecial_vertex@@@std@@@std@@@1@V?$_List_const_iterator@V?$_List_val@U?$_List_simple_types@PEAUSpecial_vertex@@@std@@@std@@@1@$$QEAPEAUSpecial_vertex@@@Z 0000000140075ae0 f i MinKnapsack.obj
 0002:00046c20       ??D?$_List_const_iterator@V?$_List_val@U?$_List_simple_types@PEAUSpecial_vertex@@@std@@@std@@@std@@QEBAAEBQEAUSpecial_vertex@@XZ 0000000140075c20 f i MinKnapsack.obj
 0002:00046e20       wmemcpy                    0000000140075e20 f i Main.obj
 0002:00046e90       ??$?0$$V@?$_Compressed_pair@V?$allocator@U?$_List_node@PEAUSpecial_vertex@@PEAX@std@@@std@@V?$_List_val@U?$_List_simple_types@PEAUSpecial_vertex@@@std@@@2@$00@std@@QEAA@U_Zero_then_variadic_args_t@1@@Z 0000000140075e90 f i MinKnapsack.obj
 0002:00046f00       ??$?0$$V@?$_Compressed_pair@V?$allocator@V?$shared_ptr@UFace@NewDiagram@Voronoi@@@std@@@std@@V?$_Vector_val@U?$_Simple_types@V?$shared_ptr@UFace@NewDiagram@Voronoi@@@std@@@std@@@2@$00@std@@QEAA@U_Zero_then_variadic_args_t@1@@Z 0000000140075f00 f i MinKnapsack.obj
 0002:00046f70       ??$?0$$V@?$_Compressed_pair@V?$allocator@V?$shared_ptr@UHalfEdge@NewDiagram@Voronoi@@@std@@@std@@V?$_Vector_val@U?$_Simple_types@V?$shared_ptr@UHalfEdge@NewDiagram@Voronoi@@@std@@@std@@@2@$00@std@@QEAA@U_Zero_then_variadic_args_t@1@@Z 0000000140075f70 f i MinKnapsack.obj
 0002:00046fe0       ??$?0AEAPEAV?$vector@V?$shared_ptr@UFace@NewDiagram@Voronoi@@@std@@V?$allocator@V?$shared_ptr@UFace@NewDiagram@Voronoi@@@std@@@2@@std@@@?$_Compressed_pair@U?$default_delete@V?$vector@V?$shared_ptr@UFace@NewDiagram@Voronoi@@@std@@V?$allocator@V?$shared_ptr@UFace@NewDiagram@Voronoi@@@std@@@2@@std@@@std@@PEAV?$vector@V?$shared_ptr@UFace@NewDiagram@Voronoi@@@std@@V?$allocator@V?$shared_ptr@UFace@NewDiagram@Voronoi@@@std@@@2@@2@$00@std@@QEAA@U_Zero_then_variadic_args_t@1@AEAPEAV?$vector@V?$shared_ptr@UFace@NewDiagram@Voronoi@@@std@@V?$allocator@V?$shared_ptr@UFace@NewDiagram@Voronoi@@@std@@@2@@1@@Z 0000000140075fe0 f i MinKnapsack.obj
 0002:00047050       ??$?0AEAPEAV?$vector@V?$shared_ptr@UHalfEdge@NewDiagram@Voronoi@@@std@@V?$allocator@V?$shared_ptr@UHalfEdge@NewDiagram@Voronoi@@@std@@@2@@std@@@?$_Compressed_pair@U?$default_delete@V?$vector@V?$shared_ptr@UHalfEdge@NewDiagram@Voronoi@@@std@@V?$allocator@V?$shared_ptr@UHalfEdge@NewDiagram@Voronoi@@@std@@@2@@std@@@std@@PEAV?$vector@V?$shared_ptr@UHalfEdge@NewDiagram@Voronoi@@@std@@V?$allocator@V?$shared_ptr@UHalfEdge@NewDiagram@Voronoi@@@std@@@2@@2@$00@std@@QEAA@U_Zero_then_variadic_args_t@1@AEAPEAV?$vector@V?$shared_ptr@UHalfEdge@NewDiagram@Voronoi@@@std@@V?$allocator@V?$shared_ptr@UHalfEdge@NewDiagram@Voronoi@@@std@@@2@@1@@Z 0000000140076050 f i MinKnapsack.obj
 0002:000470c0       ??$?0AEAPEAV?$vector@V?$shared_ptr@USite@NewDiagram@Voronoi@@@std@@V?$allocator@V?$shared_ptr@USite@NewDiagram@Voronoi@@@std@@@2@@std@@@?$_Compressed_pair@U?$default_delete@V?$vector@V?$shared_ptr@USite@NewDiagram@Voronoi@@@std@@V?$allocator@V?$shared_ptr@USite@NewDiagram@Voronoi@@@std@@@2@@std@@@std@@PEAV?$vector@V?$shared_ptr@USite@NewDiagram@Voronoi@@@std@@V?$allocator@V?$shared_ptr@USite@NewDiagram@Voronoi@@@std@@@2@@2@$00@std@@QEAA@U_Zero_then_variadic_args_t@1@AEAPEAV?$vector@V?$shared_ptr@USite@NewDiagram@Voronoi@@@std@@V?$allocator@V?$shared_ptr@USite@NewDiagram@Voronoi@@@std@@@2@@1@@Z 00000001400760c0 f i MinKnapsack.obj
 0002:00047130       ??$?0AEBV?$shared_ptr@UFace@NewDiagram@Voronoi@@@std@@@?$_List_node_emplace_op2@V?$allocator@U?$_List_node@V?$shared_ptr@UFace@NewDiagram@Voronoi@@@std@@PEAX@std@@@std@@@std@@QEAA@AEAV?$allocator@U?$_List_node@V?$shared_ptr@UFace@NewDiagram@Voronoi@@@std@@PEAX@std@@@1@AEBV?$shared_ptr@UFace@NewDiagram@Voronoi@@@1@@Z 0000000140076130 f i MinKnapsack.obj
 0002:00047200       ??$?0PEAUSpecial_vertex@@@?$_List_node_emplace_op2@V?$allocator@U?$_List_node@PEAUSpecial_vertex@@PEAX@std@@@std@@@std@@QEAA@AEAV?$allocator@U?$_List_node@PEAUSpecial_vertex@@PEAX@std@@@1@$$QEAPEAUSpecial_vertex@@@Z 0000000140076200 f i MinKnapsack.obj
 0002:000472d0       ??$?0U?$_List_node@PEAUSpecial_vertex@@PEAX@std@@@?$allocator@U_Container_proxy@std@@@std@@QEAA@AEBV?$allocator@U?$_List_node@PEAUSpecial_vertex@@PEAX@std@@@1@@Z 00000001400762d0 f i MinKnapsack.obj
 0002:00047320       ??$?0U?$default_delete@V?$vector@V?$shared_ptr@UFace@NewDiagram@Voronoi@@@std@@V?$allocator@V?$shared_ptr@UFace@NewDiagram@Voronoi@@@std@@@2@@std@@@std@@$0A@@?$unique_ptr@V?$vector@V?$shared_ptr@UFace@NewDiagram@Voronoi@@@std@@V?$allocator@V?$shared_ptr@UFace@NewDiagram@Voronoi@@@std@@@2@@std@@U?$default_delete@V?$vector@V?$shared_ptr@UFace@NewDiagram@Voronoi@@@std@@V?$allocator@V?$shared_ptr@UFace@NewDiagram@Voronoi@@@std@@@2@@std@@@2@@std@@QEAA@PEAV?$vector@V?$shared_ptr@UFace@NewDiagram@Voronoi@@@std@@V?$allocator@V?$shared_ptr@UFace@NewDiagram@Voronoi@@@std@@@2@@1@@Z 0000000140076320 f i MinKnapsack.obj
 0002:000473a0       ??$?0U?$default_delete@V?$vector@V?$shared_ptr@UHalfEdge@NewDiagram@Voronoi@@@std@@V?$allocator@V?$shared_ptr@UHalfEdge@NewDiagram@Voronoi@@@std@@@2@@std@@@std@@$0A@@?$unique_ptr@V?$vector@V?$shared_ptr@UHalfEdge@NewDiagram@Voronoi@@@std@@V?$allocator@V?$shared_ptr@UHalfEdge@NewDiagram@Voronoi@@@std@@@2@@std@@U?$default_delete@V?$vector@V?$shared_ptr@UHalfEdge@NewDiagram@Voronoi@@@std@@V?$allocator@V?$shared_ptr@UHalfEdge@NewDiagram@Voronoi@@@std@@@2@@std@@@2@@std@@QEAA@PEAV?$vector@V?$shared_ptr@UHalfEdge@NewDiagram@Voronoi@@@std@@V?$allocator@V?$shared_ptr@UHalfEdge@NewDiagram@Voronoi@@@std@@@2@@1@@Z 00000001400763a0 f i MinKnapsack.obj
 0002:00047420       ??$?0U?$default_delete@V?$vector@V?$shared_ptr@USite@NewDiagram@Voronoi@@@std@@V?$allocator@V?$shared_ptr@USite@NewDiagram@Voronoi@@@std@@@2@@std@@@std@@$0A@@?$unique_ptr@V?$vector@V?$shared_ptr@USite@NewDiagram@Voronoi@@@std@@V?$allocator@V?$shared_ptr@USite@NewDiagram@Voronoi@@@std@@@2@@std@@U?$default_delete@V?$vector@V?$shared_ptr@USite@NewDiagram@Voronoi@@@std@@V?$allocator@V?$shared_ptr@USite@NewDiagram@Voronoi@@@std@@@2@@std@@@2@@std@@QEAA@PEAV?$vector@V?$shared_ptr@USite@NewDiagram@Voronoi@@@std@@V?$allocator@V?$shared_ptr@USite@NewDiagram@Voronoi@@@std@@@2@@1@@Z 0000000140076420 f i MinKnapsack.obj
 0002:000474a0       ??$?0V?$allocator@V?$shared_ptr@USite@NewDiagram@Voronoi@@@std@@@std@@$$V@?$_Compressed_pair@V?$allocator@V?$shared_ptr@USite@NewDiagram@Voronoi@@@std@@@std@@V?$_Vector_val@U?$_Simple_types@V?$shared_ptr@USite@NewDiagram@Voronoi@@@std@@@std@@@2@$00@std@@QEAA@U_One_then_variadic_args_t@1@$$QEAV?$allocator@V?$shared_ptr@USite@NewDiagram@Voronoi@@@std@@@1@@Z 00000001400764a0 f i MinKnapsack.obj
 0002:00047500       ??$?0V?$shared_ptr@UFace@NewDiagram@Voronoi@@@std@@@?$allocator@U_Container_proxy@std@@@std@@QEAA@AEBV?$allocator@V?$shared_ptr@UFace@NewDiagram@Voronoi@@@std@@@1@@Z 0000000140076500 f i MinKnapsack.obj
 0002:00047550       ??$?0V?$shared_ptr@UHalfEdge@NewDiagram@Voronoi@@@std@@@?$allocator@U_Container_proxy@std@@@std@@QEAA@AEBV?$allocator@V?$shared_ptr@UHalfEdge@NewDiagram@Voronoi@@@std@@@1@@Z 0000000140076550 f i MinKnapsack.obj
 0002:000475a0       ??$?8USite@NewDiagram@Voronoi@@@std@@YA_NAEBV?$shared_ptr@USite@NewDiagram@Voronoi@@@0@$$T@Z 00000001400765a0 f i MinKnapsack.obj
 0002:00047620       ??$?8USite@NewDiagram@Voronoi@@U012@@std@@YA_NAEBV?$shared_ptr@USite@NewDiagram@Voronoi@@@0@0@Z 0000000140076620 f i MinKnapsack.obj
 0002:000476c0       ??$?9USite@NewDiagram@Voronoi@@@std@@YA_NAEBV?$shared_ptr@USite@NewDiagram@Voronoi@@@0@$$T@Z 00000001400766c0 f i MinKnapsack.obj
 0002:000477b0       ??$?DUFace@NewDiagram@Voronoi@@$0A@@?$shared_ptr@UFace@NewDiagram@Voronoi@@@std@@QEBAAEAUFace@NewDiagram@Voronoi@@XZ 00000001400767b0 f i MinKnapsack.obj
 0002:00047800       ??$?DUVertex@NewDiagram@Voronoi@@$0A@@?$shared_ptr@UVertex@NewDiagram@Voronoi@@@std@@QEBAAEAUVertex@NewDiagram@Voronoi@@XZ 0000000140076800 f i MinKnapsack.obj
 0002:00047860       ??$_Adl_verify_range@V?$_List_iterator@V?$_List_val@U?$_List_simple_types@PEAUSpecial_vertex@@@std@@@std@@@std@@V12@@std@@YAXAEBV?$_List_iterator@V?$_List_val@U?$_List_simple_types@PEAUSpecial_vertex@@@std@@@std@@@0@0@Z 0000000140076860 f i MinKnapsack.obj
 0002:000478c0       ??$_Allocate_at_least_helper@V?$allocator@V?$shared_ptr@UFace@NewDiagram@Voronoi@@@std@@@std@@@std@@YAPEAV?$shared_ptr@UFace@NewDiagram@Voronoi@@@0@AEAV?$allocator@V?$shared_ptr@UFace@NewDiagram@Voronoi@@@std@@@0@AEA_K@Z 00000001400768c0 f i MinKnapsack.obj
 0002:00047920       ??$_Allocate_at_least_helper@V?$allocator@V?$shared_ptr@UHalfEdge@NewDiagram@Voronoi@@@std@@@std@@@std@@YAPEAV?$shared_ptr@UHalfEdge@NewDiagram@Voronoi@@@0@AEAV?$allocator@V?$shared_ptr@UHalfEdge@NewDiagram@Voronoi@@@std@@@0@AEA_K@Z 0000000140076920 f i MinKnapsack.obj
 0002:000479a0       ??$_Construct_in_place@PEAU?$_List_node@PEAUSpecial_vertex@@PEAX@std@@AEAPEAU12@@std@@YAXAEAPEAU?$_List_node@PEAUSpecial_vertex@@PEAX@0@0@Z 00000001400769a0 f i MinKnapsack.obj
 0002:00047a20       ??$_Construct_in_place@PEAU?$_List_node@PEAUSpecial_vertex@@PEAX@std@@AEBQEAU12@@std@@YAXAEAPEAU?$_List_node@PEAUSpecial_vertex@@PEAX@0@AEBQEAU10@@Z 0000000140076a20 f i MinKnapsack.obj
 0002:00047aa0       ??$_Construct_in_place@V?$shared_ptr@UFace@NewDiagram@Voronoi@@@std@@V12@@std@@YAXAEAV?$shared_ptr@UFace@NewDiagram@Voronoi@@@0@$$QEAV10@@Z 0000000140076aa0 f i MinKnapsack.obj
 0002:00047b20       ??$_Construct_in_place@V?$shared_ptr@UHalfEdge@NewDiagram@Voronoi@@@std@@AEBV12@@std@@YAXAEAV?$shared_ptr@UHalfEdge@NewDiagram@Voronoi@@@0@AEBV10@@Z 0000000140076b20 f i MinKnapsack.obj
 0002:00047ba0       ??$_Construct_in_place@V?$shared_ptr@USite@NewDiagram@Voronoi@@@std@@AEBV12@@std@@YAXAEAV?$shared_ptr@USite@NewDiagram@Voronoi@@@0@AEBV10@@Z 0000000140076ba0 f i MinKnapsack.obj
 0002:00047c10       ??_G?$vector@V?$shared_ptr@USite@NewDiagram@Voronoi@@@std@@V?$allocator@V?$shared_ptr@USite@NewDiagram@Voronoi@@@std@@@2@@std@@QEAAPEAXI@Z 0000000140076c10 f i MinKnapsack.obj
 0002:00047c70       ?_Verify_range@std@@YAXAEBV?$_List_const_iterator@V?$_List_val@U?$_List_simple_types@PEAUSpecial_vertex@@@std@@@std@@@1@0@Z 0000000140076c70 f i MinKnapsack.obj
 0002:00047d50       ??$_Construct_n@AEBQEAV?$shared_ptr@USite@NewDiagram@Voronoi@@@std@@AEBQEAV12@@?$vector@V?$shared_ptr@USite@NewDiagram@Voronoi@@@std@@V?$allocator@V?$shared_ptr@USite@NewDiagram@Voronoi@@@std@@@2@@std@@AEAAX_KAEBQEAV?$shared_ptr@USite@NewDiagram@Voronoi@@@1@1@Z 0000000140076d50 f i MinKnapsack.obj
 0002:00047f40       ??$_Destroy_in_place@PEAU?$_List_node@PEAUSpecial_vertex@@PEAX@std@@@std@@YAXAEAPEAU?$_List_node@PEAUSpecial_vertex@@PEAX@0@@Z 0000000140076f40 f i MinKnapsack.obj
 0002:00047fe0       ??$_Destroy_range@V?$allocator@V?$shared_ptr@UFace@NewDiagram@Voronoi@@@std@@@std@@@std@@YAXPEAV?$shared_ptr@UFace@NewDiagram@Voronoi@@@0@QEAV10@AEAV?$allocator@V?$shared_ptr@UFace@NewDiagram@Voronoi@@@std@@@0@@Z 0000000140076fe0 f i MinKnapsack.obj
 0002:00048080       ??$_Destroy_range@V?$allocator@V?$shared_ptr@UHalfEdge@NewDiagram@Voronoi@@@std@@@std@@@std@@YAXPEAV?$shared_ptr@UHalfEdge@NewDiagram@Voronoi@@@0@QEAV10@AEAV?$allocator@V?$shared_ptr@UHalfEdge@NewDiagram@Voronoi@@@std@@@0@@Z 0000000140077080 f i MinKnapsack.obj
 0002:00048100       ?back@?$vector@V?$shared_ptr@UHalfEdge@NewDiagram@Voronoi@@@std@@V?$allocator@V?$shared_ptr@UHalfEdge@NewDiagram@Voronoi@@@std@@@2@@std@@QEAAAEAV?$shared_ptr@UHalfEdge@NewDiagram@Voronoi@@@2@XZ 0000000140077100 f i MinKnapsack.obj
 0002:000481d0       ??$_Emplace@AEBV?$shared_ptr@UFace@NewDiagram@Voronoi@@@std@@@?$list@V?$shared_ptr@UFace@NewDiagram@Voronoi@@@std@@V?$allocator@V?$shared_ptr@UFace@NewDiagram@Voronoi@@@std@@@2@@std@@QEAAPEAU?$_List_node@V?$shared_ptr@UFace@NewDiagram@Voronoi@@@std@@PEAX@1@QEAU21@AEBV?$shared_ptr@UFace@NewDiagram@Voronoi@@@1@@Z 00000001400771d0 f i MinKnapsack.obj
 0002:000482e0       ?deallocate@?$allocator@V?$shared_ptr@UFace@NewDiagram@Voronoi@@@std@@@std@@QEAAXQEAV?$shared_ptr@UFace@NewDiagram@Voronoi@@@2@_K@Z 00000001400772e0 f i MinKnapsack.obj
 0002:000483d0       ??$_Emplace_back@V?$shared_ptr@UFace@NewDiagram@Voronoi@@@std@@@?$_Uninitialized_backout_al@V?$allocator@V?$shared_ptr@UFace@NewDiagram@Voronoi@@@std@@@std@@@std@@QEAAX$$QEAV?$shared_ptr@UFace@NewDiagram@Voronoi@@@1@@Z 00000001400773d0 f i MinKnapsack.obj
 0002:00048480       ??$_Emplace_back@V?$shared_ptr@UHalfEdge@NewDiagram@Voronoi@@@std@@@?$_Uninitialized_backout_al@V?$allocator@V?$shared_ptr@UHalfEdge@NewDiagram@Voronoi@@@std@@@std@@@std@@QEAAX$$QEAV?$shared_ptr@UHalfEdge@NewDiagram@Voronoi@@@1@@Z 0000000140077480 f i MinKnapsack.obj
 0002:00048540       ??$_Emplace_back_with_unused_capacity@AEBV?$shared_ptr@UHalfEdge@NewDiagram@Voronoi@@@std@@@?$vector@V?$shared_ptr@UHalfEdge@NewDiagram@Voronoi@@@std@@V?$allocator@V?$shared_ptr@UHalfEdge@NewDiagram@Voronoi@@@std@@@2@@std@@AEAAAEAV?$shared_ptr@UHalfEdge@NewDiagram@Voronoi@@@1@AEBV21@@Z 0000000140077540 f i MinKnapsack.obj
 0002:00048600       ??$_Emplace_back_with_unused_capacity@AEBV?$shared_ptr@USite@NewDiagram@Voronoi@@@std@@@?$vector@V?$shared_ptr@USite@NewDiagram@Voronoi@@@std@@V?$allocator@V?$shared_ptr@USite@NewDiagram@Voronoi@@@std@@@2@@std@@AEAAAEAV?$shared_ptr@USite@NewDiagram@Voronoi@@@1@AEBV21@@Z 0000000140077600 f i MinKnapsack.obj
 0002:000486c0       ??$_Emplace_back_with_unused_capacity@V?$shared_ptr@UFace@NewDiagram@Voronoi@@@std@@@?$vector@V?$shared_ptr@UFace@NewDiagram@Voronoi@@@std@@V?$allocator@V?$shared_ptr@UFace@NewDiagram@Voronoi@@@std@@@2@@std@@AEAAAEAV?$shared_ptr@UFace@NewDiagram@Voronoi@@@1@$$QEAV21@@Z 00000001400776c0 f i MinKnapsack.obj
 0002:00048770       ??$_Emplace_one_at_back@AEBV?$shared_ptr@UHalfEdge@NewDiagram@Voronoi@@@std@@@?$vector@V?$shared_ptr@UHalfEdge@NewDiagram@Voronoi@@@std@@V?$allocator@V?$shared_ptr@UHalfEdge@NewDiagram@Voronoi@@@std@@@2@@std@@AEAAAEAV?$shared_ptr@UHalfEdge@NewDiagram@Voronoi@@@1@AEBV21@@Z 0000000140077770 f i MinKnapsack.obj
 0002:00048820       ??$_Emplace_one_at_back@AEBV?$shared_ptr@USite@NewDiagram@Voronoi@@@std@@@?$vector@V?$shared_ptr@USite@NewDiagram@Voronoi@@@std@@V?$allocator@V?$shared_ptr@USite@NewDiagram@Voronoi@@@std@@@2@@std@@AEAAAEAV?$shared_ptr@USite@NewDiagram@Voronoi@@@1@AEBV21@@Z 0000000140077820 f i MinKnapsack.obj
 0002:000488d0       ??$_Emplace_one_at_back@V?$shared_ptr@UFace@NewDiagram@Voronoi@@@std@@@?$vector@V?$shared_ptr@UFace@NewDiagram@Voronoi@@@std@@V?$allocator@V?$shared_ptr@UFace@NewDiagram@Voronoi@@@std@@@2@@std@@AEAAAEAV?$shared_ptr@UFace@NewDiagram@Voronoi@@@1@$$QEAV21@@Z 00000001400778d0 f i MinKnapsack.obj
 0002:00048960       ??E?$_List_const_iterator@V?$_List_val@U?$_List_simple_types@PEAUSpecial_vertex@@@std@@@std@@@std@@QEAAAEAV01@XZ 0000000140077960 f i MinKnapsack.obj
 0002:00048ad0       ?_Change_array@?$vector@V?$shared_ptr@UFace@NewDiagram@Voronoi@@@std@@V?$allocator@V?$shared_ptr@UFace@NewDiagram@Voronoi@@@std@@@2@@std@@AEAAXQEAV?$shared_ptr@UFace@NewDiagram@Voronoi@@@2@_K1@Z 0000000140077ad0 f i MinKnapsack.obj
 0002:00048c00       ??$_Emplace_reallocate@AEBV?$shared_ptr@UHalfEdge@NewDiagram@Voronoi@@@std@@@?$vector@V?$shared_ptr@UHalfEdge@NewDiagram@Voronoi@@@std@@V?$allocator@V?$shared_ptr@UHalfEdge@NewDiagram@Voronoi@@@std@@@2@@std@@AEAAPEAV?$shared_ptr@UHalfEdge@NewDiagram@Voronoi@@@1@QEAV21@AEBV21@@Z 0000000140077c00 f i MinKnapsack.obj
 0002:00048f30       ??$_Emplace_reallocate@AEBV?$shared_ptr@USite@NewDiagram@Voronoi@@@std@@@?$vector@V?$shared_ptr@USite@NewDiagram@Voronoi@@@std@@V?$allocator@V?$shared_ptr@USite@NewDiagram@Voronoi@@@std@@@2@@std@@AEAAPEAV?$shared_ptr@USite@NewDiagram@Voronoi@@@1@QEAV21@AEBV21@@Z 0000000140077f30 f i MinKnapsack.obj
 0002:000491c0       ?_Orphan_ptr2@?$_List_val@U?$_List_simple_types@PEAUSpecial_vertex@@@std@@@std@@QEAAXPEAU?$_List_node@PEAUSpecial_vertex@@PEAX@2@@Z 00000001400781c0 f i MinKnapsack.obj
 0002:00049300       ??$_Free_non_head@V?$allocator@U?$_List_node@PEAUSpecial_vertex@@PEAX@std@@@std@@@?$_List_node@PEAUSpecial_vertex@@PEAX@std@@SAXAEAV?$allocator@U?$_List_node@PEAUSpecial_vertex@@PEAX@std@@@1@PEAU01@@Z 0000000140078300 f i MinKnapsack.obj
 0002:00049390       ??$_Freenode0@V?$allocator@U?$_List_node@PEAUSpecial_vertex@@PEAX@std@@@std@@@?$_List_node@PEAUSpecial_vertex@@PEAX@std@@SAXAEAV?$allocator@U?$_List_node@PEAUSpecial_vertex@@PEAX@std@@@1@PEAU01@@Z 0000000140078390 f i MinKnapsack.obj
 0002:00049470       ??$_Get_unwrapped@AEAV?$_List_iterator@V?$_List_val@U?$_List_simple_types@PEAUSpecial_vertex@@@std@@@std@@@std@@@std@@YA?A_TAEAV?$_List_iterator@V?$_List_val@U?$_List_simple_types@PEAUSpecial_vertex@@@std@@@std@@@0@@Z 0000000140078470 f i MinKnapsack.obj
 0002:000494c0       ??$_Get_unwrapped@AEBQEAV?$shared_ptr@UFace@NewDiagram@Voronoi@@@std@@@std@@YA?A_TAEBQEAV?$shared_ptr@UFace@NewDiagram@Voronoi@@@0@@Z 00000001400784c0 f i MinKnapsack.obj
 0002:00049510       ??$_Get_unwrapped@AEBQEAV?$shared_ptr@UHalfEdge@NewDiagram@Voronoi@@@std@@@std@@YA?A_TAEBQEAV?$shared_ptr@UHalfEdge@NewDiagram@Voronoi@@@0@@Z 0000000140078510 f i MinKnapsack.obj
 0002:00049560       ??$_Get_unwrapped_n@V?$_List_iterator@V?$_List_val@U?$_List_simple_types@PEAUSpecial_vertex@@@std@@@std@@@std@@_J@std@@YA?A_T$$QEAV?$_List_iterator@V?$_List_val@U?$_List_simple_types@PEAUSpecial_vertex@@@std@@@std@@@0@_J@Z 0000000140078560 f i MinKnapsack.obj
 0002:00049640       ??$_Pocma@V?$allocator@V?$shared_ptr@USite@NewDiagram@Voronoi@@@std@@@std@@@std@@YAXAEAV?$allocator@V?$shared_ptr@USite@NewDiagram@Voronoi@@@std@@@0@0@Z 0000000140078640 f i MinKnapsack.obj
 0002:00049680       ??$_Unfancy@V?$shared_ptr@UFace@NewDiagram@Voronoi@@@std@@@std@@YAPEAV?$shared_ptr@UFace@NewDiagram@Voronoi@@@0@PEAV10@@Z 0000000140078680 f i MinKnapsack.obj
 0002:000496c0       ??$_Unfancy@V?$shared_ptr@UHalfEdge@NewDiagram@Voronoi@@@std@@@std@@YAPEAV?$shared_ptr@UHalfEdge@NewDiagram@Voronoi@@@0@PEAV10@@Z 00000001400786c0 f i MinKnapsack.obj
 0002:00049700       ?_Tidy@?$vector@V?$shared_ptr@UHalfEdge@NewDiagram@Voronoi@@@std@@V?$allocator@V?$shared_ptr@UHalfEdge@NewDiagram@Voronoi@@@std@@@2@@std@@AEAAXXZ 0000000140078700 f i MinKnapsack.obj
 0002:00049820       ??$_Uninitialized_copy@PEAV?$shared_ptr@USite@NewDiagram@Voronoi@@@std@@PEAV12@V?$allocator@V?$shared_ptr@USite@NewDiagram@Voronoi@@@std@@@2@@std@@YAPEAV?$shared_ptr@USite@NewDiagram@Voronoi@@@0@PEAV10@00AEAV?$allocator@V?$shared_ptr@USite@NewDiagram@Voronoi@@@std@@@0@@Z 0000000140078820 f i MinKnapsack.obj
 0002:00049980       ??$_Uninitialized_copy@PEBV?$shared_ptr@USite@NewDiagram@Voronoi@@@std@@PEBV12@V?$allocator@V?$shared_ptr@USite@NewDiagram@Voronoi@@@std@@@2@@std@@YAPEAV?$shared_ptr@USite@NewDiagram@Voronoi@@@0@PEBV10@0PEAV10@AEAV?$allocator@V?$shared_ptr@USite@NewDiagram@Voronoi@@@std@@@0@@Z 0000000140078980 f i MinKnapsack.obj
 0002:00049ae0       ??$_Uninitialized_move@PEAV?$shared_ptr@UFace@NewDiagram@Voronoi@@@std@@V?$allocator@V?$shared_ptr@UFace@NewDiagram@Voronoi@@@std@@@2@@std@@YAPEAV?$shared_ptr@UFace@NewDiagram@Voronoi@@@0@QEAV10@0PEAV10@AEAV?$allocator@V?$shared_ptr@UFace@NewDiagram@Voronoi@@@std@@@0@@Z 0000000140078ae0 f i MinKnapsack.obj
 0002:00049c80       ??$addressof@$$CBV?$_List_val@U?$_List_simple_types@PEAUSpecial_vertex@@@std@@@std@@@std@@YAPEBV?$_List_val@U?$_List_simple_types@PEAUSpecial_vertex@@@std@@@0@AEBV10@@Z 0000000140078c80 f i MinKnapsack.obj
 0002:00049cc0       ??$addressof@$$CBV?$_List_val@U?$_List_simple_types@V?$shared_ptr@UFace@NewDiagram@Voronoi@@@std@@@std@@@std@@@std@@YAPEBV?$_List_val@U?$_List_simple_types@V?$shared_ptr@UFace@NewDiagram@Voronoi@@@std@@@std@@@0@AEBV10@@Z 0000000140078cc0 f i MinKnapsack.obj
 0002:00049d00       ??$addressof@PEAU?$_List_node@PEAUSpecial_vertex@@PEAX@std@@@std@@YAPEAPEAU?$_List_node@PEAUSpecial_vertex@@PEAX@0@AEAPEAU10@@Z 0000000140078d00 f i MinKnapsack.obj
 0002:00049d40       ??$addressof@PEAUSpecial_vertex@@@std@@YAPEAPEAUSpecial_vertex@@AEAPEAU1@@Z 0000000140078d40 f i MinKnapsack.obj
 0002:00049d80       ??$addressof@V?$_List_val@U?$_List_simple_types@PEAUSpecial_vertex@@@std@@@std@@@std@@YAPEAV?$_List_val@U?$_List_simple_types@PEAUSpecial_vertex@@@std@@@0@AEAV10@@Z 0000000140078d80 f i MinKnapsack.obj
 0002:00049dc0       ??$addressof@V?$_List_val@U?$_List_simple_types@V?$shared_ptr@UFace@NewDiagram@Voronoi@@@std@@@std@@@std@@@std@@YAPEAV?$_List_val@U?$_List_simple_types@V?$shared_ptr@UFace@NewDiagram@Voronoi@@@std@@@std@@@0@AEAV10@@Z 0000000140078dc0 f i MinKnapsack.obj
 0002:00049e00       ??$addressof@V?$shared_ptr@UHalfEdge@NewDiagram@Voronoi@@@std@@@std@@YAPEAV?$shared_ptr@UHalfEdge@NewDiagram@Voronoi@@@0@AEAV10@@Z 0000000140078e00 f i MinKnapsack.obj
 0002:00049e40       ??$addressof@V?$vector@V?$shared_ptr@USite@NewDiagram@Voronoi@@@std@@V?$allocator@V?$shared_ptr@USite@NewDiagram@Voronoi@@@std@@@2@@std@@@std@@YAPEAV?$vector@V?$shared_ptr@USite@NewDiagram@Voronoi@@@std@@V?$allocator@V?$shared_ptr@USite@NewDiagram@Voronoi@@@std@@@2@@0@AEAV10@@Z 0000000140078e40 f i MinKnapsack.obj
 0002:00049e80       ??8?$_List_const_iterator@V?$_List_val@U?$_List_simple_types@V?$shared_ptr@UFace@NewDiagram@Voronoi@@@std@@@std@@@std@@@std@@QEBA_NAEBV01@@Z 0000000140078e80 f i MinKnapsack.obj
 0002:00049f90       ??$construct@PEAUSpecial_vertex@@PEAU1@@?$_Default_allocator_traits@V?$allocator@U?$_List_node@PEAUSpecial_vertex@@PEAX@std@@@std@@@std@@SAXAEAV?$allocator@U?$_List_node@PEAUSpecial_vertex@@PEAX@std@@@1@QEAPEAUSpecial_vertex@@$$QEAPEAU3@@Z 0000000140078f90 f i MinKnapsack.obj
 0002:0004a010       ??$construct@V?$shared_ptr@UFace@NewDiagram@Voronoi@@@std@@AEBV12@@?$_Default_allocator_traits@V?$allocator@U?$_List_node@V?$shared_ptr@UFace@NewDiagram@Voronoi@@@std@@PEAX@std@@@std@@@std@@SAXAEAV?$allocator@U?$_List_node@V?$shared_ptr@UFace@NewDiagram@Voronoi@@@std@@PEAX@std@@@1@QEAV?$shared_ptr@UFace@NewDiagram@Voronoi@@@1@AEBV31@@Z 0000000140079010 f i MinKnapsack.obj
 0002:0004a090       ??$construct@V?$shared_ptr@UFace@NewDiagram@Voronoi@@@std@@V12@@?$_Default_allocator_traits@V?$allocator@V?$shared_ptr@UFace@NewDiagram@Voronoi@@@std@@@std@@@std@@SAXAEAV?$allocator@V?$shared_ptr@UFace@NewDiagram@Voronoi@@@std@@@1@QEAV?$shared_ptr@UFace@NewDiagram@Voronoi@@@1@$$QEAV31@@Z 0000000140079090 f i MinKnapsack.obj
 0002:0004a110       ??$construct@V?$shared_ptr@UHalfEdge@NewDiagram@Voronoi@@@std@@AEBV12@@?$_Default_allocator_traits@V?$allocator@V?$shared_ptr@UHalfEdge@NewDiagram@Voronoi@@@std@@@std@@@std@@SAXAEAV?$allocator@V?$shared_ptr@UHalfEdge@NewDiagram@Voronoi@@@std@@@1@QEAV?$shared_ptr@UHalfEdge@NewDiagram@Voronoi@@@1@AEBV31@@Z 0000000140079110 f i MinKnapsack.obj
 0002:0004a1d0       ??$destroy@PEAUSpecial_vertex@@@?$_Default_allocator_traits@V?$allocator@U?$_List_node@PEAUSpecial_vertex@@PEAX@std@@@std@@@std@@SAXAEAV?$allocator@U?$_List_node@PEAUSpecial_vertex@@PEAX@std@@@1@QEAPEAUSpecial_vertex@@@Z 00000001400791d0 f i MinKnapsack.obj
 0002:0004a220       ??$destroy@V?$shared_ptr@UFace@NewDiagram@Voronoi@@@std@@@?$_Default_allocator_traits@V?$allocator@V?$shared_ptr@UFace@NewDiagram@Voronoi@@@std@@@std@@@std@@SAXAEAV?$allocator@V?$shared_ptr@UFace@NewDiagram@Voronoi@@@std@@@1@QEAV?$shared_ptr@UFace@NewDiagram@Voronoi@@@1@@Z 0000000140079220 f i MinKnapsack.obj
 0002:0004a270       ??$destroy@V?$shared_ptr@UHalfEdge@NewDiagram@Voronoi@@@std@@@?$_Default_allocator_traits@V?$allocator@V?$shared_ptr@UHalfEdge@NewDiagram@Voronoi@@@std@@@std@@@std@@SAXAEAV?$allocator@V?$shared_ptr@UHalfEdge@NewDiagram@Voronoi@@@std@@@1@QEAV?$shared_ptr@UHalfEdge@NewDiagram@Voronoi@@@1@@Z 0000000140079270 f i MinKnapsack.obj
 0002:0004a2b0       ??D?$_List_const_iterator@V?$_List_val@U?$_List_simple_types@V?$shared_ptr@UFace@NewDiagram@Voronoi@@@std@@@std@@@std@@@std@@QEBAAEBV?$shared_ptr@UFace@NewDiagram@Voronoi@@@1@XZ 00000001400792b0 f i MinKnapsack.obj
 0002:0004a410       ??$distance@V?$_List_iterator@V?$_List_val@U?$_List_simple_types@PEAUSpecial_vertex@@@std@@@std@@@std@@@std@@YA_JV?$_List_iterator@V?$_List_val@U?$_List_simple_types@PEAUSpecial_vertex@@@std@@@std@@@0@0@Z 0000000140079410 f i MinKnapsack.obj
 0002:0004a560       ?_Change_array@?$vector@V?$shared_ptr@UHalfEdge@NewDiagram@Voronoi@@@std@@V?$allocator@V?$shared_ptr@UHalfEdge@NewDiagram@Voronoi@@@std@@@2@@std@@AEAAXQEAV?$shared_ptr@UHalfEdge@NewDiagram@Voronoi@@@2@_K1@Z 0000000140079560 f i MinKnapsack.obj
 0002:0004a680       ??$make_unique@V?$vector@V?$shared_ptr@UFace@NewDiagram@Voronoi@@@std@@V?$allocator@V?$shared_ptr@UFace@NewDiagram@Voronoi@@@std@@@2@@std@@$$V$0A@@std@@YA?AV?$unique_ptr@V?$vector@V?$shared_ptr@UFace@NewDiagram@Voronoi@@@std@@V?$allocator@V?$shared_ptr@UFace@NewDiagram@Voronoi@@@std@@@2@@std@@U?$default_delete@V?$vector@V?$shared_ptr@UFace@NewDiagram@Voronoi@@@std@@V?$allocator@V?$shared_ptr@UFace@NewDiagram@Voronoi@@@std@@@2@@std@@@2@@0@XZ 0000000140079680 f i MinKnapsack.obj
 0002:0004a760       ??$make_unique@V?$vector@V?$shared_ptr@UHalfEdge@NewDiagram@Voronoi@@@std@@V?$allocator@V?$shared_ptr@UHalfEdge@NewDiagram@Voronoi@@@std@@@2@@std@@$$V$0A@@std@@YA?AV?$unique_ptr@V?$vector@V?$shared_ptr@UHalfEdge@NewDiagram@Voronoi@@@std@@V?$allocator@V?$shared_ptr@UHalfEdge@NewDiagram@Voronoi@@@std@@@2@@std@@U?$default_delete@V?$vector@V?$shared_ptr@UHalfEdge@NewDiagram@Voronoi@@@std@@V?$allocator@V?$shared_ptr@UHalfEdge@NewDiagram@Voronoi@@@std@@@2@@std@@@2@@0@XZ 0000000140079760 f i MinKnapsack.obj
 0002:0004a840       ??$make_unique@V?$vector@V?$shared_ptr@USite@NewDiagram@Voronoi@@@std@@V?$allocator@V?$shared_ptr@USite@NewDiagram@Voronoi@@@std@@@2@@std@@$$V$0A@@std@@YA?AV?$unique_ptr@V?$vector@V?$shared_ptr@USite@NewDiagram@Voronoi@@@std@@V?$allocator@V?$shared_ptr@USite@NewDiagram@Voronoi@@@std@@@2@@std@@U?$default_delete@V?$vector@V?$shared_ptr@USite@NewDiagram@Voronoi@@@std@@V?$allocator@V?$shared_ptr@USite@NewDiagram@Voronoi@@@std@@@2@@std@@@2@@0@XZ 0000000140079840 f i MinKnapsack.obj
 0002:0004a950       ??$pow@NH$0A@@@YANNH@Z     0000000140079950 f i MinKnapsack.obj
 0002:0004a9a0       ?_Alloc_sentinel_and_proxy@?$list@PEAUSpecial_vertex@@V?$allocator@PEAUSpecial_vertex@@@std@@@std@@AEAAXXZ 00000001400799a0 f i MinKnapsack.obj
 0002:0004aad0       ??0?$_List_const_iterator@V?$_List_val@U?$_List_simple_types@PEAUSpecial_vertex@@@std@@@std@@@std@@QEAA@$$QEAV01@@Z 0000000140079ad0 f i MinKnapsack.obj
 0002:0004ab20       ??0?$_List_const_iterator@V?$_List_val@U?$_List_simple_types@PEAUSpecial_vertex@@@std@@@std@@@std@@QEAA@AEBV01@@Z 0000000140079b20 f i MinKnapsack.obj
 0002:0004ab80       ??0?$_List_const_iterator@V?$_List_val@U?$_List_simple_types@PEAUSpecial_vertex@@@std@@@std@@@std@@QEAA@PEAU?$_List_node@PEAUSpecial_vertex@@PEAX@1@PEBV?$_List_val@U?$_List_simple_types@PEAUSpecial_vertex@@@std@@@1@@Z 0000000140079b80 f i MinKnapsack.obj
 0002:0004abd0       ??0?$_List_const_iterator@V?$_List_val@U?$_List_simple_types@V?$shared_ptr@UFace@NewDiagram@Voronoi@@@std@@@std@@@std@@@std@@QEAA@AEBV01@@Z 0000000140079bd0 f i MinKnapsack.obj
 0002:0004ac30       ??0?$_List_const_iterator@V?$_List_val@U?$_List_simple_types@V?$shared_ptr@UFace@NewDiagram@Voronoi@@@std@@@std@@@std@@@std@@QEAA@PEAU?$_List_node@V?$shared_ptr@UFace@NewDiagram@Voronoi@@@std@@PEAX@1@PEBV?$_List_val@U?$_List_simple_types@V?$shared_ptr@UFace@NewDiagram@Voronoi@@@std@@@std@@@1@@Z 0000000140079c30 f i MinKnapsack.obj
 0002:0004ac80       ??0?$_List_iterator@V?$_List_val@U?$_List_simple_types@PEAUSpecial_vertex@@@std@@@std@@@std@@QEAA@$$QEAV01@@Z 0000000140079c80 f i MinKnapsack.obj
 0002:0004acd0       ??0?$_List_iterator@V?$_List_val@U?$_List_simple_types@PEAUSpecial_vertex@@@std@@@std@@@std@@QEAA@AEBV01@@Z 0000000140079cd0 f i MinKnapsack.obj
 0002:0004ad30       ??0?$_List_iterator@V?$_List_val@U?$_List_simple_types@PEAUSpecial_vertex@@@std@@@std@@@std@@QEAA@PEAU?$_List_node@PEAUSpecial_vertex@@PEAX@1@PEBV?$_List_val@U?$_List_simple_types@PEAUSpecial_vertex@@@std@@@1@@Z 0000000140079d30 f i MinKnapsack.obj
 0002:0004ad90       ??0?$_List_iterator@V?$_List_val@U?$_List_simple_types@V?$shared_ptr@UFace@NewDiagram@Voronoi@@@std@@@std@@@std@@@std@@QEAA@PEAU?$_List_node@V?$shared_ptr@UFace@NewDiagram@Voronoi@@@std@@PEAX@1@PEBV?$_List_val@U?$_List_simple_types@V?$shared_ptr@UFace@NewDiagram@Voronoi@@@std@@@std@@@1@@Z 0000000140079d90 f i MinKnapsack.obj
 0002:0004ae10       ??0?$_List_unchecked_const_iterator@V?$_List_val@U?$_List_simple_types@PEAUSpecial_vertex@@@std@@@std@@U_Iterator_base0@2@@std@@QEAA@PEAU?$_List_node@PEAUSpecial_vertex@@PEAX@1@PEBV?$_List_val@U?$_List_simple_types@PEAUSpecial_vertex@@@std@@@1@@Z 0000000140079e10 f i MinKnapsack.obj
 0002:0004ae80       ??0?$_List_unchecked_const_iterator@V?$_List_val@U?$_List_simple_types@PEAUSpecial_vertex@@@std@@@std@@U_Iterator_base12@2@@std@@QEAA@$$QEAV01@@Z 0000000140079e80 f i MinKnapsack.obj
 0002:0004aef0       ??0?$_List_unchecked_const_iterator@V?$_List_val@U?$_List_simple_types@PEAUSpecial_vertex@@@std@@@std@@U_Iterator_base12@2@@std@@QEAA@AEBV01@@Z 0000000140079ef0 f i MinKnapsack.obj
 0002:0004af80       ??0?$_List_unchecked_const_iterator@V?$_List_val@U?$_List_simple_types@PEAUSpecial_vertex@@@std@@@std@@U_Iterator_base12@2@@std@@QEAA@PEAU?$_List_node@PEAUSpecial_vertex@@PEAX@1@PEBV?$_List_val@U?$_List_simple_types@PEAUSpecial_vertex@@@std@@@1@@Z 0000000140079f80 f i MinKnapsack.obj
 0002:0004aff0       ??0?$_List_unchecked_const_iterator@V?$_List_val@U?$_List_simple_types@V?$shared_ptr@UFace@NewDiagram@Voronoi@@@std@@@std@@@std@@U_Iterator_base12@2@@std@@QEAA@AEBV01@@Z 0000000140079ff0 f i MinKnapsack.obj
 0002:0004b0e0       ??0?$_List_unchecked_iterator@V?$_List_val@U?$_List_simple_types@PEAUSpecial_vertex@@@std@@@std@@@std@@QEAA@PEAU?$_List_node@PEAUSpecial_vertex@@PEAX@1@PEBV?$_List_val@U?$_List_simple_types@PEAUSpecial_vertex@@@std@@@1@@Z 000000014007a0e0 f i MinKnapsack.obj
 0002:0004b160       ??0?$_List_val@U?$_List_simple_types@PEAUSpecial_vertex@@@std@@@std@@QEAA@XZ 000000014007a160 f i MinKnapsack.obj
 0002:0004b1f0       ??0?$_Uninitialized_backout_al@V?$allocator@V?$shared_ptr@UFace@NewDiagram@Voronoi@@@std@@@std@@@std@@QEAA@PEAV?$shared_ptr@UFace@NewDiagram@Voronoi@@@1@AEAV?$allocator@V?$shared_ptr@UFace@NewDiagram@Voronoi@@@std@@@1@@Z 000000014007a1f0 f i MinKnapsack.obj
 0002:0004b280       ??0?$_Uninitialized_backout_al@V?$allocator@V?$shared_ptr@UHalfEdge@NewDiagram@Voronoi@@@std@@@std@@@std@@QEAA@PEAV?$shared_ptr@UHalfEdge@NewDiagram@Voronoi@@@1@AEAV?$allocator@V?$shared_ptr@UHalfEdge@NewDiagram@Voronoi@@@std@@@1@@Z 000000014007a280 f i MinKnapsack.obj
 0002:0004b310       ??0?$_Vector_val@U?$_Simple_types@V?$shared_ptr@UFace@NewDiagram@Voronoi@@@std@@@std@@@std@@QEAA@XZ 000000014007a310 f i MinKnapsack.obj
 0002:0004b3e0       ??0?$allocator@U?$_List_node@PEAUSpecial_vertex@@PEAX@std@@@std@@QEAA@XZ 000000014007a3e0 f i MinKnapsack.obj
 0002:0004b420       ??0?$allocator@V?$shared_ptr@UFace@NewDiagram@Voronoi@@@std@@@std@@QEAA@XZ 000000014007a420 f i MinKnapsack.obj
 0002:0004b460       ??0?$allocator@V?$shared_ptr@UHalfEdge@NewDiagram@Voronoi@@@std@@@std@@QEAA@XZ 000000014007a460 f i MinKnapsack.obj
 0002:0004b4e0       ??0?$list@PEAUSpecial_vertex@@V?$allocator@PEAUSpecial_vertex@@@std@@@std@@QEAA@XZ 000000014007a4e0 f i MinKnapsack.obj
 0002:0004b550       ??0?$shared_ptr@UHalfEdge@NewDiagram@Voronoi@@@std@@QEAA@$$QEAV01@@Z 000000014007a550 f i MinKnapsack.obj
 0002:0004b600       ??0?$vector@V?$shared_ptr@UFace@NewDiagram@Voronoi@@@std@@V?$allocator@V?$shared_ptr@UFace@NewDiagram@Voronoi@@@std@@@2@@std@@QEAA@XZ 000000014007a600 f i MinKnapsack.obj
 0002:0004b6b0       ??0?$vector@V?$shared_ptr@UHalfEdge@NewDiagram@Voronoi@@@std@@V?$allocator@V?$shared_ptr@UHalfEdge@NewDiagram@Voronoi@@@std@@@2@@std@@QEAA@XZ 000000014007a6b0 f i MinKnapsack.obj
 0002:0004b7d0       ??0?$vector@V?$shared_ptr@USite@NewDiagram@Voronoi@@@std@@V?$allocator@V?$shared_ptr@USite@NewDiagram@Voronoi@@@std@@@2@@std@@QEAA@AEBV01@@Z 000000014007a7d0 f i MinKnapsack.obj
 0002:0004b8b0       ?back@?$vector@V?$shared_ptr@USite@NewDiagram@Voronoi@@@std@@V?$allocator@V?$shared_ptr@USite@NewDiagram@Voronoi@@@std@@@2@@std@@QEAAAEAV?$shared_ptr@USite@NewDiagram@Voronoi@@@2@XZ 000000014007a8b0 f i MinKnapsack.obj
 0002:0004b980       ??1?$_List_const_iterator@V?$_List_val@U?$_List_simple_types@PEAUSpecial_vertex@@@std@@@std@@@std@@QEAA@XZ 000000014007a980 f i MinKnapsack.obj
 0002:0004b9c0       ??1?$_List_const_iterator@V?$_List_val@U?$_List_simple_types@V?$shared_ptr@UFace@NewDiagram@Voronoi@@@std@@@std@@@std@@@std@@QEAA@XZ 000000014007a9c0 f i MinKnapsack.obj
 0002:0004ba00       ??1?$_List_iterator@V?$_List_val@U?$_List_simple_types@PEAUSpecial_vertex@@@std@@@std@@@std@@QEAA@XZ 000000014007aa00 f i MinKnapsack.obj
 0002:0004ba40       ??1?$_List_iterator@V?$_List_val@U?$_List_simple_types@V?$shared_ptr@UFace@NewDiagram@Voronoi@@@std@@@std@@@std@@@std@@QEAA@XZ 000000014007aa40 f i MinKnapsack.obj
 0002:0004bb30       ??1?$_List_unchecked_const_iterator@V?$_List_val@U?$_List_simple_types@PEAUSpecial_vertex@@@std@@@std@@U_Iterator_base12@2@@std@@QEAA@XZ 000000014007ab30 f i MinKnapsack.obj
 0002:0004bb70       ??1?$_List_unchecked_const_iterator@V?$_List_val@U?$_List_simple_types@V?$shared_ptr@UFace@NewDiagram@Voronoi@@@std@@@std@@@std@@U_Iterator_base12@2@@std@@QEAA@XZ 000000014007ab70 f i MinKnapsack.obj
 0002:0004bbe0       ??1?$_Uninitialized_backout_al@V?$allocator@V?$shared_ptr@UFace@NewDiagram@Voronoi@@@std@@@std@@@std@@QEAA@XZ 000000014007abe0 f i MinKnapsack.obj
 0002:0004bc50       ??1?$_Uninitialized_backout_al@V?$allocator@V?$shared_ptr@UHalfEdge@NewDiagram@Voronoi@@@std@@@std@@@std@@QEAA@XZ 000000014007ac50 f i MinKnapsack.obj
 0002:0004bca0       ?_Orphan_ptr2@?$_List_val@U?$_List_simple_types@V?$shared_ptr@UFace@NewDiagram@Voronoi@@@std@@@std@@@std@@QEAAXPEAU?$_List_node@V?$shared_ptr@UFace@NewDiagram@Voronoi@@@std@@PEAX@2@@Z 000000014007aca0 f i MinKnapsack.obj
 0002:0004bdd0       ??1?$unique_ptr@V?$vector@V?$shared_ptr@UFace@NewDiagram@Voronoi@@@std@@V?$allocator@V?$shared_ptr@UFace@NewDiagram@Voronoi@@@std@@@2@@std@@U?$default_delete@V?$vector@V?$shared_ptr@UFace@NewDiagram@Voronoi@@@std@@V?$allocator@V?$shared_ptr@UFace@NewDiagram@Voronoi@@@std@@@2@@std@@@2@@std@@QEAA@XZ 000000014007add0 f i MinKnapsack.obj
 0002:0004be60       ??1?$unique_ptr@V?$vector@V?$shared_ptr@UHalfEdge@NewDiagram@Voronoi@@@std@@V?$allocator@V?$shared_ptr@UHalfEdge@NewDiagram@Voronoi@@@std@@@2@@std@@U?$default_delete@V?$vector@V?$shared_ptr@UHalfEdge@NewDiagram@Voronoi@@@std@@V?$allocator@V?$shared_ptr@UHalfEdge@NewDiagram@Voronoi@@@std@@@2@@std@@@2@@std@@QEAA@XZ 000000014007ae60 f i MinKnapsack.obj
 0002:0004bef0       ??1?$unique_ptr@V?$vector@V?$shared_ptr@USite@NewDiagram@Voronoi@@@std@@V?$allocator@V?$shared_ptr@USite@NewDiagram@Voronoi@@@std@@@2@@std@@U?$default_delete@V?$vector@V?$shared_ptr@USite@NewDiagram@Voronoi@@@std@@V?$allocator@V?$shared_ptr@USite@NewDiagram@Voronoi@@@std@@@2@@std@@@2@@std@@QEAA@XZ 000000014007aef0 f i MinKnapsack.obj
 0002:0004c000       ??1?$vector@V?$shared_ptr@UFace@NewDiagram@Voronoi@@@std@@V?$allocator@V?$shared_ptr@UFace@NewDiagram@Voronoi@@@std@@@2@@std@@QEAA@XZ 000000014007b000 f i MinKnapsack.obj
 0002:0004c0d0       ?_Transfer_before@?$_List_node_emplace_op2@V?$allocator@U?$_List_node@PEAUSpecial_vertex@@PEAX@std@@@std@@@std@@QEAAPEAU?$_List_node@PEAUSpecial_vertex@@PEAX@2@QEAU32@@Z 000000014007b0d0 f i MinKnapsack.obj
 0002:0004c200       ??4?$_List_const_iterator@V?$_List_val@U?$_List_simple_types@PEAUSpecial_vertex@@@std@@@std@@@std@@QEAAAEAV01@$$QEAV01@@Z 000000014007b200 f i MinKnapsack.obj
 0002:0004c250       ??4?$_List_const_iterator@V?$_List_val@U?$_List_simple_types@V?$shared_ptr@UFace@NewDiagram@Voronoi@@@std@@@std@@@std@@@std@@QEAAAEAV01@$$QEAV01@@Z 000000014007b250 f i MinKnapsack.obj
 0002:0004c2a0       ??4?$_List_const_iterator@V?$_List_val@U?$_List_simple_types@V?$shared_ptr@UFace@NewDiagram@Voronoi@@@std@@@std@@@std@@@std@@QEAAAEAV01@AEBV01@@Z 000000014007b2a0 f i MinKnapsack.obj
 0002:0004c2f0       ??4?$_List_iterator@V?$_List_val@U?$_List_simple_types@PEAUSpecial_vertex@@@std@@@std@@@std@@QEAAAEAV01@$$QEAV01@@Z 000000014007b2f0 f i MinKnapsack.obj
 0002:0004c340       ??4?$_List_iterator@V?$_List_val@U?$_List_simple_types@V?$shared_ptr@UFace@NewDiagram@Voronoi@@@std@@@std@@@std@@@std@@QEAAAEAV01@$$QEAV01@@Z 000000014007b340 f i MinKnapsack.obj
 0002:0004c390       ??4?$_List_iterator@V?$_List_val@U?$_List_simple_types@V?$shared_ptr@UFace@NewDiagram@Voronoi@@@std@@@std@@@std@@@std@@QEAAAEAV01@AEBV01@@Z 000000014007b390 f i MinKnapsack.obj
 0002:0004c400       ??4?$_List_unchecked_const_iterator@V?$_List_val@U?$_List_simple_types@PEAUSpecial_vertex@@@std@@@std@@U_Iterator_base12@2@@std@@QEAAAEAV01@$$QEAV01@@Z 000000014007b400 f i MinKnapsack.obj
 0002:0004c470       ??4?$_List_unchecked_const_iterator@V?$_List_val@U?$_List_simple_types@V?$shared_ptr@UFace@NewDiagram@Voronoi@@@std@@@std@@@std@@U_Iterator_base12@2@@std@@QEAAAEAV01@$$QEAV01@@Z 000000014007b470 f i MinKnapsack.obj
 0002:0004c4e0       ??4?$_List_unchecked_const_iterator@V?$_List_val@U?$_List_simple_types@V?$shared_ptr@UFace@NewDiagram@Voronoi@@@std@@@std@@@std@@U_Iterator_base12@2@@std@@QEAAAEAV01@AEBV01@@Z 000000014007b4e0 f i MinKnapsack.obj
 0002:0004c5d0       ??4?$vector@V?$shared_ptr@USite@NewDiagram@Voronoi@@@std@@V?$allocator@V?$shared_ptr@USite@NewDiagram@Voronoi@@@std@@@2@@std@@QEAAAEAV01@$$QEAV01@@Z 000000014007b5d0 f i MinKnapsack.obj
 0002:0004c720       ??6Voronoi@@YAAEAV?$basic_ostream@DU?$char_traits@D@std@@@std@@AEAV12@AEBUFace@NewDiagram@0@@Z 000000014007b720 f i MinKnapsack.obj
 0002:0004c860       ?deallocate@?$allocator@V?$shared_ptr@UHalfEdge@NewDiagram@Voronoi@@@std@@@std@@QEAAXQEAV?$shared_ptr@UHalfEdge@NewDiagram@Voronoi@@@2@_K@Z 000000014007b860 f i MinKnapsack.obj
 0002:0004c970       ??8?$_List_unchecked_const_iterator@V?$_List_val@U?$_List_simple_types@PEAUSpecial_vertex@@@std@@@std@@U_Iterator_base0@2@@std@@QEBA_NAEBV01@@Z 000000014007b970 f i MinKnapsack.obj
 0002:0004c9f0       ??9?$_List_const_iterator@V?$_List_val@U?$_List_simple_types@PEAUSpecial_vertex@@@std@@@std@@@std@@QEBA_NAEBV01@@Z 000000014007b9f0 f i MinKnapsack.obj
 0002:0004ca70       ??9?$_List_const_iterator@V?$_List_val@U?$_List_simple_types@V?$shared_ptr@UFace@NewDiagram@Voronoi@@@std@@@std@@@std@@@std@@QEBA_NAEBV01@@Z 000000014007ba70 f i MinKnapsack.obj
 0002:0004cae0       ??9?$_List_unchecked_const_iterator@V?$_List_val@U?$_List_simple_types@PEAUSpecial_vertex@@@std@@@std@@U_Iterator_base0@2@@std@@QEBA_NAEBV01@@Z 000000014007bae0 f i MinKnapsack.obj
 0002:0004cb50       ?front@?$vector@V?$shared_ptr@USite@NewDiagram@Voronoi@@@std@@V?$allocator@V?$shared_ptr@USite@NewDiagram@Voronoi@@@std@@@2@@std@@QEAAAEAV?$shared_ptr@USite@NewDiagram@Voronoi@@@2@XZ 000000014007bb50 f i MinKnapsack.obj
 0002:0004cc90       ??B?$shared_ptr@UVertex@NewDiagram@Voronoi@@@std@@QEBA_NXZ 000000014007bc90 f i MinKnapsack.obj
 0002:0004ccf0       ??E?$_List_const_iterator@V?$_List_val@U?$_List_simple_types@V?$shared_ptr@UFace@NewDiagram@Voronoi@@@std@@@std@@@std@@@std@@QEAAAEAV01@XZ 000000014007bcf0 f i MinKnapsack.obj
 0002:0004cee0       ??D?$_List_iterator@V?$_List_val@U?$_List_simple_types@PEAUSpecial_vertex@@@std@@@std@@@std@@QEBAAEAPEAUSpecial_vertex@@XZ 000000014007bee0 f i MinKnapsack.obj
 0002:0004cf30       ??D?$_List_iterator@V?$_List_val@U?$_List_simple_types@V?$shared_ptr@UFace@NewDiagram@Voronoi@@@std@@@std@@@std@@@std@@QEBAAEAV?$shared_ptr@UFace@NewDiagram@Voronoi@@@1@XZ 000000014007bf30 f i MinKnapsack.obj
 0002:0004cf80       ??D?$unique_ptr@V?$vector@V?$shared_ptr@UFace@NewDiagram@Voronoi@@@std@@V?$allocator@V?$shared_ptr@UFace@NewDiagram@Voronoi@@@std@@@2@@std@@U?$default_delete@V?$vector@V?$shared_ptr@UFace@NewDiagram@Voronoi@@@std@@V?$allocator@V?$shared_ptr@UFace@NewDiagram@Voronoi@@@std@@@2@@std@@@2@@std@@QEBAAEAV?$vector@V?$shared_ptr@UFace@NewDiagram@Voronoi@@@std@@V?$allocator@V?$shared_ptr@UFace@NewDiagram@Voronoi@@@std@@@2@@1@XZ 000000014007bf80 f i MinKnapsack.obj
 0002:0004cfd0       ??D?$unique_ptr@V?$vector@V?$shared_ptr@UHalfEdge@NewDiagram@Voronoi@@@std@@V?$allocator@V?$shared_ptr@UHalfEdge@NewDiagram@Voronoi@@@std@@@2@@std@@U?$default_delete@V?$vector@V?$shared_ptr@UHalfEdge@NewDiagram@Voronoi@@@std@@V?$allocator@V?$shared_ptr@UHalfEdge@NewDiagram@Voronoi@@@std@@@2@@std@@@2@@std@@QEBAAEAV?$vector@V?$shared_ptr@UHalfEdge@NewDiagram@Voronoi@@@std@@V?$allocator@V?$shared_ptr@UHalfEdge@NewDiagram@Voronoi@@@std@@@2@@1@XZ 000000014007bfd0 f i MinKnapsack.obj
 0002:0004d010       ??E?$_List_unchecked_iterator@V?$_List_val@U?$_List_simple_types@PEAUSpecial_vertex@@@std@@@std@@@std@@QEAAAEAV01@XZ 000000014007c010 f i MinKnapsack.obj
 0002:0004d190       ??D?$unique_ptr@V?$vector@V?$shared_ptr@USite@NewDiagram@Voronoi@@@std@@V?$allocator@V?$shared_ptr@USite@NewDiagram@Voronoi@@@std@@@2@@std@@U?$default_delete@V?$vector@V?$shared_ptr@USite@NewDiagram@Voronoi@@@std@@V?$allocator@V?$shared_ptr@USite@NewDiagram@Voronoi@@@std@@@2@@std@@@2@@std@@QEBAAEAV?$vector@V?$shared_ptr@USite@NewDiagram@Voronoi@@@std@@V?$allocator@V?$shared_ptr@USite@NewDiagram@Voronoi@@@std@@@2@@1@XZ 000000014007c190 f i MinKnapsack.obj
 0002:0004d1d0       ??F?$_List_const_iterator@V?$_List_val@U?$_List_simple_types@PEAUSpecial_vertex@@@std@@@std@@@std@@QEAAAEAV01@XZ 000000014007c1d0 f i MinKnapsack.obj
 0002:0004d3f0       ??E?$_List_iterator@V?$_List_val@U?$_List_simple_types@PEAUSpecial_vertex@@@std@@@std@@@std@@QEAAAEAV01@XZ 000000014007c3f0 f i MinKnapsack.obj
 0002:0004d450       ??E?$_List_iterator@V?$_List_val@U?$_List_simple_types@V?$shared_ptr@UFace@NewDiagram@Voronoi@@@std@@@std@@@std@@@std@@QEAAAEAV01@XZ 000000014007c450 f i MinKnapsack.obj
 0002:0004d4e0       ?chooseDirection@@YAXPEAUSpecial_vertex@@@Z 000000014007c4e0 f   MinKnapsack.obj
 0002:0004d590       ?circumcenter@@YA?AVPoint2D@@V1@00@Z 000000014007c590 f   MinKnapsack.obj
 0002:0004d810       ??F?$_List_iterator@V?$_List_val@U?$_List_simple_types@PEAUSpecial_vertex@@@std@@@std@@@std@@QEAAAEAV01@XZ 000000014007c810 f i MinKnapsack.obj
 0002:0004d8a0       ??R?$default_delete@V?$vector@V?$shared_ptr@UFace@NewDiagram@Voronoi@@@std@@V?$allocator@V?$shared_ptr@UFace@NewDiagram@Voronoi@@@std@@@2@@std@@@std@@QEBAXPEAV?$vector@V?$shared_ptr@UFace@NewDiagram@Voronoi@@@std@@V?$allocator@V?$shared_ptr@UFace@NewDiagram@Voronoi@@@std@@@2@@1@@Z 000000014007c8a0 f i MinKnapsack.obj
 0002:0004d930       ??R?$default_delete@V?$vector@V?$shared_ptr@UHalfEdge@NewDiagram@Voronoi@@@std@@V?$allocator@V?$shared_ptr@UHalfEdge@NewDiagram@Voronoi@@@std@@@2@@std@@@std@@QEBAXPEAV?$vector@V?$shared_ptr@UHalfEdge@NewDiagram@Voronoi@@@std@@V?$allocator@V?$shared_ptr@UHalfEdge@NewDiagram@Voronoi@@@std@@@2@@1@@Z 000000014007c930 f i MinKnapsack.obj
 0002:0004d9a0       ??R?$default_delete@V?$vector@V?$shared_ptr@USite@NewDiagram@Voronoi@@@std@@V?$allocator@V?$shared_ptr@USite@NewDiagram@Voronoi@@@std@@@2@@std@@@std@@QEBAXPEAV?$vector@V?$shared_ptr@USite@NewDiagram@Voronoi@@@std@@V?$allocator@V?$shared_ptr@USite@NewDiagram@Voronoi@@@std@@@2@@1@@Z 000000014007c9a0 f i MinKnapsack.obj
 0002:0004da10       ??_G?$shared_ptr@UHalfEdge@NewDiagram@Voronoi@@@std@@QEAAPEAXI@Z 000000014007ca10 f i MinKnapsack.obj
 0002:0004da80       ??_G?$vector@V?$shared_ptr@UFace@NewDiagram@Voronoi@@@std@@V?$allocator@V?$shared_ptr@UFace@NewDiagram@Voronoi@@@std@@@2@@std@@QEAAPEAXI@Z 000000014007ca80 f i MinKnapsack.obj
 0002:0004daf0       ??_G?$vector@V?$shared_ptr@UHalfEdge@NewDiagram@Voronoi@@@std@@V?$allocator@V?$shared_ptr@UHalfEdge@NewDiagram@Voronoi@@@std@@@2@@std@@QEAAPEAXI@Z 000000014007caf0 f i MinKnapsack.obj
 0002:0004db50       ?erase@?$list@PEAUSpecial_vertex@@V?$allocator@PEAUSpecial_vertex@@@std@@@std@@QEAA?AV?$_List_iterator@V?$_List_val@U?$_List_simple_types@PEAUSpecial_vertex@@@std@@@std@@@2@V?$_List_const_iterator@V?$_List_val@U?$_List_simple_types@PEAUSpecial_vertex@@@std@@@std@@@2@@Z 000000014007cb50 f i MinKnapsack.obj
 0002:0004ddd0       ?_Allocate@?$_Alloc_construct_ptr@V?$allocator@U?$_List_node@PEAUSpecial_vertex@@PEAX@std@@@std@@@std@@QEAAXXZ 000000014007cdd0 f i MinKnapsack.obj
 0002:0004deb0       ?_Calculate_growth@?$vector@V?$shared_ptr@UFace@NewDiagram@Voronoi@@@std@@V?$allocator@V?$shared_ptr@UFace@NewDiagram@Voronoi@@@std@@@2@@std@@AEBA_K_K@Z 000000014007ceb0 f i MinKnapsack.obj
 0002:0004e020       ?_Calculate_growth@?$vector@V?$shared_ptr@UHalfEdge@NewDiagram@Voronoi@@@std@@V?$allocator@V?$shared_ptr@UHalfEdge@NewDiagram@Voronoi@@@std@@@2@@std@@AEBA_K_K@Z 000000014007d020 f i MinKnapsack.obj
 0002:0004e210       ?_Get_first@?$_Compressed_pair@U?$default_delete@V?$vector@V?$shared_ptr@UFace@NewDiagram@Voronoi@@@std@@V?$allocator@V?$shared_ptr@UFace@NewDiagram@Voronoi@@@std@@@2@@std@@@std@@PEAV?$vector@V?$shared_ptr@UFace@NewDiagram@Voronoi@@@std@@V?$allocator@V?$shared_ptr@UFace@NewDiagram@Voronoi@@@std@@@2@@2@$00@std@@QEAAAEAU?$default_delete@V?$vector@V?$shared_ptr@UFace@NewDiagram@Voronoi@@@std@@V?$allocator@V?$shared_ptr@UFace@NewDiagram@Voronoi@@@std@@@2@@std@@@2@XZ 000000014007d210 f i MinKnapsack.obj
 0002:0004e250       ?_Get_first@?$_Compressed_pair@U?$default_delete@V?$vector@V?$shared_ptr@UHalfEdge@NewDiagram@Voronoi@@@std@@V?$allocator@V?$shared_ptr@UHalfEdge@NewDiagram@Voronoi@@@std@@@2@@std@@@std@@PEAV?$vector@V?$shared_ptr@UHalfEdge@NewDiagram@Voronoi@@@std@@V?$allocator@V?$shared_ptr@UHalfEdge@NewDiagram@Voronoi@@@std@@@2@@2@$00@std@@QEAAAEAU?$default_delete@V?$vector@V?$shared_ptr@UHalfEdge@NewDiagram@Voronoi@@@std@@V?$allocator@V?$shared_ptr@UHalfEdge@NewDiagram@Voronoi@@@std@@@2@@std@@@2@XZ 000000014007d250 f i MinKnapsack.obj
 0002:0004e290       ?_Get_first@?$_Compressed_pair@U?$default_delete@V?$vector@V?$shared_ptr@USite@NewDiagram@Voronoi@@@std@@V?$allocator@V?$shared_ptr@USite@NewDiagram@Voronoi@@@std@@@2@@std@@@std@@PEAV?$vector@V?$shared_ptr@USite@NewDiagram@Voronoi@@@std@@V?$allocator@V?$shared_ptr@USite@NewDiagram@Voronoi@@@std@@@2@@2@$00@std@@QEAAAEAU?$default_delete@V?$vector@V?$shared_ptr@USite@NewDiagram@Voronoi@@@std@@V?$allocator@V?$shared_ptr@USite@NewDiagram@Voronoi@@@std@@@2@@std@@@2@XZ 000000014007d290 f i MinKnapsack.obj
 0002:0004e2d0       ?_Get_first@?$_Compressed_pair@V?$allocator@U?$_List_node@PEAUSpecial_vertex@@PEAX@std@@@std@@V?$_List_val@U?$_List_simple_types@PEAUSpecial_vertex@@@std@@@2@$00@std@@QEAAAEAV?$allocator@U?$_List_node@PEAUSpecial_vertex@@PEAX@std@@@2@XZ 000000014007d2d0 f i MinKnapsack.obj
 0002:0004e310       ?_Get_first@?$_Compressed_pair@V?$allocator@U?$_List_node@PEAUSpecial_vertex@@PEAX@std@@@std@@V?$_List_val@U?$_List_simple_types@PEAUSpecial_vertex@@@std@@@2@$00@std@@QEBAAEBV?$allocator@U?$_List_node@PEAUSpecial_vertex@@PEAX@std@@@2@XZ 000000014007d310 f i MinKnapsack.obj
 0002:0004e350       ?_Get_first@?$_Compressed_pair@V?$allocator@V?$shared_ptr@UFace@NewDiagram@Voronoi@@@std@@@std@@V?$_Vector_val@U?$_Simple_types@V?$shared_ptr@UFace@NewDiagram@Voronoi@@@std@@@std@@@2@$00@std@@QEAAAEAV?$allocator@V?$shared_ptr@UFace@NewDiagram@Voronoi@@@std@@@2@XZ 000000014007d350 f i MinKnapsack.obj
 0002:0004e390       ?_Get_first@?$_Compressed_pair@V?$allocator@V?$shared_ptr@UFace@NewDiagram@Voronoi@@@std@@@std@@V?$_Vector_val@U?$_Simple_types@V?$shared_ptr@UFace@NewDiagram@Voronoi@@@std@@@std@@@2@$00@std@@QEBAAEBV?$allocator@V?$shared_ptr@UFace@NewDiagram@Voronoi@@@std@@@2@XZ 000000014007d390 f i MinKnapsack.obj
 0002:0004e3d0       ?_Get_first@?$_Compressed_pair@V?$allocator@V?$shared_ptr@UHalfEdge@NewDiagram@Voronoi@@@std@@@std@@V?$_Vector_val@U?$_Simple_types@V?$shared_ptr@UHalfEdge@NewDiagram@Voronoi@@@std@@@std@@@2@$00@std@@QEAAAEAV?$allocator@V?$shared_ptr@UHalfEdge@NewDiagram@Voronoi@@@std@@@2@XZ 000000014007d3d0 f i MinKnapsack.obj
 0002:0004e420       ?_Get_first@?$_Compressed_pair@V?$allocator@V?$shared_ptr@UHalfEdge@NewDiagram@Voronoi@@@std@@@std@@V?$_Vector_val@U?$_Simple_types@V?$shared_ptr@UHalfEdge@NewDiagram@Voronoi@@@std@@@std@@@2@$00@std@@QEBAAEBV?$allocator@V?$shared_ptr@UHalfEdge@NewDiagram@Voronoi@@@std@@@2@XZ 000000014007d420 f i MinKnapsack.obj
 0002:0004e470       ?_Getal@?$list@PEAUSpecial_vertex@@V?$allocator@PEAUSpecial_vertex@@@std@@@std@@AEAAAEAV?$allocator@U?$_List_node@PEAUSpecial_vertex@@PEAX@std@@@2@XZ 000000014007d470 f i MinKnapsack.obj
 0002:0004e4c0       ?_Getal@?$list@PEAUSpecial_vertex@@V?$allocator@PEAUSpecial_vertex@@@std@@@std@@AEBAAEBV?$allocator@U?$_List_node@PEAUSpecial_vertex@@PEAX@std@@@2@XZ 000000014007d4c0 f i MinKnapsack.obj
 0002:0004e510       ?_Getal@?$vector@V?$shared_ptr@UFace@NewDiagram@Voronoi@@@std@@V?$allocator@V?$shared_ptr@UFace@NewDiagram@Voronoi@@@std@@@2@@std@@AEAAAEAV?$allocator@V?$shared_ptr@UFace@NewDiagram@Voronoi@@@std@@@2@XZ 000000014007d510 f i MinKnapsack.obj
 0002:0004e560       ?_Getal@?$vector@V?$shared_ptr@UFace@NewDiagram@Voronoi@@@std@@V?$allocator@V?$shared_ptr@UFace@NewDiagram@Voronoi@@@std@@@2@@std@@AEBAAEBV?$allocator@V?$shared_ptr@UFace@NewDiagram@Voronoi@@@std@@@2@XZ 000000014007d560 f i MinKnapsack.obj
 0002:0004e5b0       ?_Getal@?$vector@V?$shared_ptr@UHalfEdge@NewDiagram@Voronoi@@@std@@V?$allocator@V?$shared_ptr@UHalfEdge@NewDiagram@Voronoi@@@std@@@2@@std@@AEAAAEAV?$allocator@V?$shared_ptr@UHalfEdge@NewDiagram@Voronoi@@@std@@@2@XZ 000000014007d5b0 f i MinKnapsack.obj
 0002:0004e630       ?_Getal@?$vector@V?$shared_ptr@UHalfEdge@NewDiagram@Voronoi@@@std@@V?$allocator@V?$shared_ptr@UHalfEdge@NewDiagram@Voronoi@@@std@@@2@@std@@AEBAAEBV?$allocator@V?$shared_ptr@UHalfEdge@NewDiagram@Voronoi@@@std@@@2@XZ 000000014007d630 f i MinKnapsack.obj
 0002:0004e6b0       ?_Make_iter@?$list@PEAUSpecial_vertex@@V?$allocator@PEAUSpecial_vertex@@@std@@@std@@QEBA?AV?$_List_iterator@V?$_List_val@U?$_List_simple_types@PEAUSpecial_vertex@@@std@@@std@@@2@PEAU?$_List_node@PEAUSpecial_vertex@@PEAX@2@@Z 000000014007d6b0 f i MinKnapsack.obj
 0002:0004e800       ?_Make_iter@?$list@V?$shared_ptr@UFace@NewDiagram@Voronoi@@@std@@V?$allocator@V?$shared_ptr@UFace@NewDiagram@Voronoi@@@std@@@2@@std@@QEBA?AV?$_List_iterator@V?$_List_val@U?$_List_simple_types@V?$shared_ptr@UFace@NewDiagram@Voronoi@@@std@@@std@@@std@@@2@PEAU?$_List_node@V?$shared_ptr@UFace@NewDiagram@Voronoi@@@std@@PEAX@2@@Z 000000014007d800 f i MinKnapsack.obj
 0002:0004e970       ?_Orphan_non_end@?$_List_val@U?$_List_simple_types@PEAUSpecial_vertex@@@std@@@std@@QEAAXXZ 000000014007d970 f i MinKnapsack.obj
 0002:0004ebc0       ?_Orphan_range@?$vector@V?$shared_ptr@UFace@NewDiagram@Voronoi@@@std@@V?$allocator@V?$shared_ptr@UFace@NewDiagram@Voronoi@@@std@@@2@@std@@AEBAXPEAV?$shared_ptr@UFace@NewDiagram@Voronoi@@@2@0@Z 000000014007dbc0 f i MinKnapsack.obj
 0002:0004eca0       ?_Orphan_range@?$vector@V?$shared_ptr@UHalfEdge@NewDiagram@Voronoi@@@std@@V?$allocator@V?$shared_ptr@UHalfEdge@NewDiagram@Voronoi@@@std@@@2@@std@@AEBAXPEAV?$shared_ptr@UHalfEdge@NewDiagram@Voronoi@@@2@0@Z 000000014007dca0 f i MinKnapsack.obj
 0002:0004ed80       ?_Orphan_range_locked@?$vector@V?$shared_ptr@UFace@NewDiagram@Voronoi@@@std@@V?$allocator@V?$shared_ptr@UFace@NewDiagram@Voronoi@@@std@@@2@@std@@AEBAXPEAV?$shared_ptr@UFace@NewDiagram@Voronoi@@@2@0@Z 000000014007dd80 f i MinKnapsack.obj
 0002:0004ee60       ?_Orphan_range_locked@?$vector@V?$shared_ptr@UHalfEdge@NewDiagram@Voronoi@@@std@@V?$allocator@V?$shared_ptr@UHalfEdge@NewDiagram@Voronoi@@@std@@@2@@std@@AEBAXPEAV?$shared_ptr@UHalfEdge@NewDiagram@Voronoi@@@2@0@Z 000000014007de60 f i MinKnapsack.obj
 0002:0004f000       ?_Release@?$_Uninitialized_backout_al@V?$allocator@V?$shared_ptr@UFace@NewDiagram@Voronoi@@@std@@@std@@@std@@QEAAPEAV?$shared_ptr@UFace@NewDiagram@Voronoi@@@2@XZ 000000014007e000 f i MinKnapsack.obj
 0002:0004f170       ?_Take_contents@?$_Vector_val@U?$_Simple_types@V?$shared_ptr@USite@NewDiagram@Voronoi@@@std@@@std@@@std@@QEAAXAEAV12@@Z 000000014007e170 f i MinKnapsack.obj
 0002:0004f2a0       ?_Tidy@?$list@PEAUSpecial_vertex@@V?$allocator@PEAUSpecial_vertex@@@std@@@std@@AEAAXXZ 000000014007e2a0 f i MinKnapsack.obj
 0002:0004f3d0       ?_Tidy@?$vector@V?$shared_ptr@UFace@NewDiagram@Voronoi@@@std@@V?$allocator@V?$shared_ptr@UFace@NewDiagram@Voronoi@@@std@@@2@@std@@AEAAXXZ 000000014007e3d0 f i MinKnapsack.obj
 0002:0004f4c0       ?erase@?$list@V?$shared_ptr@UFace@NewDiagram@Voronoi@@@std@@V?$allocator@V?$shared_ptr@UFace@NewDiagram@Voronoi@@@std@@@2@@std@@QEAA?AV?$_List_iterator@V?$_List_val@U?$_List_simple_types@V?$shared_ptr@UFace@NewDiagram@Voronoi@@@std@@@std@@@std@@@2@V?$_List_const_iterator@V?$_List_val@U?$_List_simple_types@V?$shared_ptr@UFace@NewDiagram@Voronoi@@@std@@@std@@@std@@@2@@Z 000000014007e4c0 f i MinKnapsack.obj
 0002:0004f690       ?_Unlinknode@?$_List_val@U?$_List_simple_types@PEAUSpecial_vertex@@@std@@@std@@QEAAPEAU?$_List_node@PEAUSpecial_vertex@@PEAX@2@PEAU32@@Z 000000014007e690 f i MinKnapsack.obj
 0002:0004f730       ?_Unlinknode@?$_List_val@U?$_List_simple_types@V?$shared_ptr@UFace@NewDiagram@Voronoi@@@std@@@std@@@std@@QEAAPEAU?$_List_node@V?$shared_ptr@UFace@NewDiagram@Voronoi@@@std@@PEAX@2@PEAU32@@Z 000000014007e730 f i MinKnapsack.obj
 0002:0004f8c0       ?_Xlength@?$vector@V?$shared_ptr@UFace@NewDiagram@Voronoi@@@std@@V?$allocator@V?$shared_ptr@UFace@NewDiagram@Voronoi@@@std@@@2@@std@@CAXXZ 000000014007e8c0 f i MinKnapsack.obj
 0002:0004f900       ?_Xlength@?$vector@V?$shared_ptr@UHalfEdge@NewDiagram@Voronoi@@@std@@V?$allocator@V?$shared_ptr@UHalfEdge@NewDiagram@Voronoi@@@std@@@2@@std@@CAXXZ 000000014007e900 f i MinKnapsack.obj
 0002:0004f940       ?_Xrange@?$vector@V?$shared_ptr@UFace@NewDiagram@Voronoi@@@std@@V?$allocator@V?$shared_ptr@UFace@NewDiagram@Voronoi@@@std@@@2@@std@@CAXXZ 000000014007e940 f i MinKnapsack.obj
 0002:0004f980       ?_Xrange@?$vector@V?$shared_ptr@UHalfEdge@NewDiagram@Voronoi@@@std@@V?$allocator@V?$shared_ptr@UHalfEdge@NewDiagram@Voronoi@@@std@@@2@@std@@CAXXZ 000000014007e980 f i MinKnapsack.obj
 0002:0004f9c0       ?_Xrange@?$vector@V?$shared_ptr@USite@NewDiagram@Voronoi@@@std@@V?$allocator@V?$shared_ptr@USite@NewDiagram@Voronoi@@@std@@@2@@std@@CAXXZ 000000014007e9c0 f i MinKnapsack.obj
 0002:0004fa00       ?__autoclassinit2@?$_List_iterator@V?$_List_val@U?$_List_simple_types@PEAUSpecial_vertex@@@std@@@std@@@std@@QEAAX_K@Z 000000014007ea00 f i MinKnapsack.obj
 0002:0004fa40       ?__autoclassinit2@?$_List_iterator@V?$_List_val@U?$_List_simple_types@V?$shared_ptr@UFace@NewDiagram@Voronoi@@@std@@@std@@@std@@@std@@QEAAX_K@Z 000000014007ea40 f i MinKnapsack.obj
 0002:0004fa80       ?__autoclassinit2@?$_List_unchecked_iterator@V?$_List_val@U?$_List_simple_types@PEAUSpecial_vertex@@@std@@@std@@@std@@QEAAX_K@Z 000000014007ea80 f i MinKnapsack.obj
 0002:0004fac0       ?__autoclassinit2@?$_Uninitialized_backout_al@V?$allocator@V?$shared_ptr@UFace@NewDiagram@Voronoi@@@std@@@std@@@std@@QEAAX_K@Z 000000014007eac0 f i MinKnapsack.obj
 0002:0004fb00       ?__autoclassinit2@?$_Uninitialized_backout_al@V?$allocator@V?$shared_ptr@UHalfEdge@NewDiagram@Voronoi@@@std@@@std@@@std@@QEAAX_K@Z 000000014007eb00 f i MinKnapsack.obj
 0002:0004fb40       ?__autoclassinit2@?$list@PEAUSpecial_vertex@@V?$allocator@PEAUSpecial_vertex@@@std@@@std@@QEAAX_K@Z 000000014007eb40 f i MinKnapsack.obj
 0002:0004fb80       ?__autoclassinit2@?$unique_ptr@V?$vector@V?$shared_ptr@UFace@NewDiagram@Voronoi@@@std@@V?$allocator@V?$shared_ptr@UFace@NewDiagram@Voronoi@@@std@@@2@@std@@U?$default_delete@V?$vector@V?$shared_ptr@UFace@NewDiagram@Voronoi@@@std@@V?$allocator@V?$shared_ptr@UFace@NewDiagram@Voronoi@@@std@@@2@@std@@@2@@std@@QEAAX_K@Z 000000014007eb80 f i MinKnapsack.obj
 0002:0004fbc0       ?__autoclassinit2@?$unique_ptr@V?$vector@V?$shared_ptr@UHalfEdge@NewDiagram@Voronoi@@@std@@V?$allocator@V?$shared_ptr@UHalfEdge@NewDiagram@Voronoi@@@std@@@2@@std@@U?$default_delete@V?$vector@V?$shared_ptr@UHalfEdge@NewDiagram@Voronoi@@@std@@V?$allocator@V?$shared_ptr@UHalfEdge@NewDiagram@Voronoi@@@std@@@2@@std@@@2@@std@@QEAAX_K@Z 000000014007ebc0 f i MinKnapsack.obj
 0002:0004fc00       ?__autoclassinit2@?$unique_ptr@V?$vector@V?$shared_ptr@USite@NewDiagram@Voronoi@@@std@@V?$allocator@V?$shared_ptr@USite@NewDiagram@Voronoi@@@std@@@2@@std@@U?$default_delete@V?$vector@V?$shared_ptr@USite@NewDiagram@Voronoi@@@std@@V?$allocator@V?$shared_ptr@USite@NewDiagram@Voronoi@@@std@@@2@@std@@@2@@std@@QEAAX_K@Z 000000014007ec00 f i MinKnapsack.obj
 0002:0004fc40       ?__autoclassinit2@?$vector@V?$shared_ptr@UFace@NewDiagram@Voronoi@@@std@@V?$allocator@V?$shared_ptr@UFace@NewDiagram@Voronoi@@@std@@@2@@std@@QEAAX_K@Z 000000014007ec40 f i MinKnapsack.obj
 0002:0004fca0       ?__autoclassinit2@?$vector@V?$shared_ptr@UHalfEdge@NewDiagram@Voronoi@@@std@@V?$allocator@V?$shared_ptr@UHalfEdge@NewDiagram@Voronoi@@@std@@@2@@std@@QEAAX_K@Z 000000014007eca0 f i MinKnapsack.obj
 0002:0004fd00       ?allocate@?$allocator@U?$_List_node@PEAUSpecial_vertex@@PEAX@std@@@std@@QEAAPEAU?$_List_node@PEAUSpecial_vertex@@PEAX@2@_K@Z 000000014007ed00 f i MinKnapsack.obj
 0002:0004fd60       ?allocate@?$allocator@V?$shared_ptr@UFace@NewDiagram@Voronoi@@@std@@@std@@QEAAPEAV?$shared_ptr@UFace@NewDiagram@Voronoi@@@2@_K@Z 000000014007ed60 f i MinKnapsack.obj
 0002:0004fdf0       ?allocate@?$allocator@V?$shared_ptr@UHalfEdge@NewDiagram@Voronoi@@@std@@@std@@QEAAPEAV?$shared_ptr@UHalfEdge@NewDiagram@Voronoi@@@2@_K@Z 000000014007edf0 f i MinKnapsack.obj
 0002:0004fe80       ?at@?$vector@V?$shared_ptr@UFace@NewDiagram@Voronoi@@@std@@V?$allocator@V?$shared_ptr@UFace@NewDiagram@Voronoi@@@std@@@2@@std@@QEAAAEAV?$shared_ptr@UFace@NewDiagram@Voronoi@@@2@_K@Z 000000014007ee80 f i MinKnapsack.obj
 0002:0004ff10       ?at@?$vector@V?$shared_ptr@UHalfEdge@NewDiagram@Voronoi@@@std@@V?$allocator@V?$shared_ptr@UHalfEdge@NewDiagram@Voronoi@@@std@@@2@@std@@QEAAAEAV?$shared_ptr@UHalfEdge@NewDiagram@Voronoi@@@2@_K@Z 000000014007ef10 f i MinKnapsack.obj
 0002:00050020       ?at@?$vector@V?$shared_ptr@USite@NewDiagram@Voronoi@@@std@@V?$allocator@V?$shared_ptr@USite@NewDiagram@Voronoi@@@std@@@2@@std@@QEAAAEAV?$shared_ptr@USite@NewDiagram@Voronoi@@@2@_K@Z 000000014007f020 f i MinKnapsack.obj
 0002:00050270       ?begin@?$list@PEAUSpecial_vertex@@V?$allocator@PEAUSpecial_vertex@@@std@@@std@@QEAA?AV?$_List_iterator@V?$_List_val@U?$_List_simple_types@PEAUSpecial_vertex@@@std@@@std@@@2@XZ 000000014007f270 f i MinKnapsack.obj
 0002:000502f0       ?begin@?$list@V?$shared_ptr@UFace@NewDiagram@Voronoi@@@std@@V?$allocator@V?$shared_ptr@UFace@NewDiagram@Voronoi@@@std@@@2@@std@@QEAA?AV?$_List_iterator@V?$_List_val@U?$_List_simple_types@V?$shared_ptr@UFace@NewDiagram@Voronoi@@@std@@@std@@@std@@@2@XZ 000000014007f2f0 f i MinKnapsack.obj
 0002:00050370       ?build_minKnapsack@@YAXAEAVNewDiagram@Voronoi@@AEAV?$vector@U?$pair@VPoint2D@@N@std@@V?$allocator@U?$pair@VPoint2D@@N@std@@@2@@std@@N@Z 000000014007f370 f   MinKnapsack.obj
 0002:000508d0       ?capacity@?$vector@V?$shared_ptr@UFace@NewDiagram@Voronoi@@@std@@V?$allocator@V?$shared_ptr@UFace@NewDiagram@Voronoi@@@std@@@2@@std@@QEBA_KXZ 000000014007f8d0 f i MinKnapsack.obj
 0002:000509b0       ?capacity@?$vector@V?$shared_ptr@UHalfEdge@NewDiagram@Voronoi@@@std@@V?$allocator@V?$shared_ptr@UHalfEdge@NewDiagram@Voronoi@@@std@@@2@@std@@QEBA_KXZ 000000014007f9b0 f i MinKnapsack.obj
 0002:00050a60       ?createPendingEdge@@YAXV?$shared_ptr@UHalfEdge@NewDiagram@Voronoi@@@std@@0@Z 000000014007fa60 f   MinKnapsack.obj
 0002:00050f30       ?circumcenter@@YA?AVPoint2D@@V?$vector@V?$shared_ptr@USite@NewDiagram@Voronoi@@@std@@V?$allocator@V?$shared_ptr@USite@NewDiagram@Voronoi@@@std@@@2@@std@@@Z 000000014007ff30 f   MinKnapsack.obj
 0002:00051060       ?circumcenterInside@@YAHAEAV?$_List_iterator@V?$_List_val@U?$_List_simple_types@PEAUSpecial_vertex@@@std@@@std@@@std@@AEAV?$list@PEAUSpecial_vertex@@V?$allocator@PEAUSpecial_vertex@@@std@@@2@H_N@Z 0000000140080060 f   MinKnapsack.obj
 0002:000526a0       ?createRegion@@YA?AV?$shared_ptr@UFace@NewDiagram@Voronoi@@@std@@AEAV?$list@V?$shared_ptr@UFace@NewDiagram@Voronoi@@@std@@V?$allocator@V?$shared_ptr@UFace@NewDiagram@Voronoi@@@std@@@2@@2@AEAV12@V?$shared_ptr@USite@NewDiagram@Voronoi@@@2@V?$shared_ptr@UHalfEdge@NewDiagram@Voronoi@@@2@@Z 00000001400816a0 f   MinKnapsack.obj
 0002:00052d70       ?clear@?$list@PEAUSpecial_vertex@@V?$allocator@PEAUSpecial_vertex@@@std@@@std@@QEAAXXZ 0000000140081d70 f i MinKnapsack.obj
 0002:00053240       ?deallocate@?$_Default_allocator_traits@V?$allocator@U?$_List_node@PEAUSpecial_vertex@@PEAX@std@@@std@@@std@@SAXAEAV?$allocator@U?$_List_node@PEAUSpecial_vertex@@PEAX@std@@@2@QEAU?$_List_node@PEAUSpecial_vertex@@PEAX@2@_K@Z 0000000140082240 f i MinKnapsack.obj
 0002:00053350       ?deallocate@?$allocator@U?$_List_node@PEAUSpecial_vertex@@PEAX@std@@@std@@QEAAXQEAU?$_List_node@PEAUSpecial_vertex@@PEAX@2@_K@Z 0000000140082350 f i MinKnapsack.obj
 0002:00053570       ?dist@@YANVPoint2D@@0@Z    0000000140082570 f   MinKnapsack.obj
 0002:00053610       ?end@?$initializer_list@V?$shared_ptr@USite@NewDiagram@Voronoi@@@std@@@std@@QEBAPEBV?$shared_ptr@USite@NewDiagram@Voronoi@@@2@XZ 0000000140082610 f i MinKnapsack.obj
 0002:000536b0       ?end@?$list@PEAUSpecial_vertex@@V?$allocator@PEAUSpecial_vertex@@@std@@@std@@QEAA?AV?$_List_iterator@V?$_List_val@U?$_List_simple_types@PEAUSpecial_vertex@@@std@@@std@@@2@XZ 00000001400826b0 f i MinKnapsack.obj
 0002:00053870       ?end@?$list@V?$shared_ptr@UFace@NewDiagram@Voronoi@@@std@@V?$allocator@V?$shared_ptr@UFace@NewDiagram@Voronoi@@@std@@@2@@std@@QEAA?AV?$_List_iterator@V?$_List_val@U?$_List_simple_types@V?$shared_ptr@UFace@NewDiagram@Voronoi@@@std@@@std@@@std@@@2@XZ 0000000140082870 f i MinKnapsack.obj
 0002:00053cb0       ?max_size@?$_Default_allocator_traits@V?$allocator@U?$_List_node@PEAUSpecial_vertex@@PEAX@std@@@std@@@std@@SA_KAEBV?$allocator@U?$_List_node@PEAUSpecial_vertex@@PEAX@std@@@2@@Z 0000000140082cb0 f i MinKnapsack.obj
 0002:00053d00       ?max_size@?$_Default_allocator_traits@V?$allocator@V?$shared_ptr@UFace@NewDiagram@Voronoi@@@std@@@std@@@std@@SA_KAEBV?$allocator@V?$shared_ptr@UFace@NewDiagram@Voronoi@@@std@@@2@@Z 0000000140082d00 f i MinKnapsack.obj
 0002:00053d80       ?max_size@?$_Default_allocator_traits@V?$allocator@V?$shared_ptr@UHalfEdge@NewDiagram@Voronoi@@@std@@@std@@@std@@SA_KAEBV?$allocator@V?$shared_ptr@UHalfEdge@NewDiagram@Voronoi@@@std@@@2@@Z 0000000140082d80 f i MinKnapsack.obj
 0002:00053e00       ?max_size@?$list@PEAUSpecial_vertex@@V?$allocator@PEAUSpecial_vertex@@@std@@@std@@QEBA_KXZ 0000000140082e00 f i MinKnapsack.obj
 0002:00053e80       ?max_size@?$vector@V?$shared_ptr@UFace@NewDiagram@Voronoi@@@std@@V?$allocator@V?$shared_ptr@UFace@NewDiagram@Voronoi@@@std@@@2@@std@@QEBA_KXZ 0000000140082e80 f i MinKnapsack.obj
 0002:00053ef0       ?max_size@?$vector@V?$shared_ptr@UHalfEdge@NewDiagram@Voronoi@@@std@@V?$allocator@V?$shared_ptr@UHalfEdge@NewDiagram@Voronoi@@@std@@@2@@std@@QEBA_KXZ 0000000140082ef0 f i MinKnapsack.obj
 0002:00053f60       ?partition@@YAXAEAV?$shared_ptr@UFace@NewDiagram@Voronoi@@@std@@AEAV?$list@V?$shared_ptr@UFace@NewDiagram@Voronoi@@@std@@V?$allocator@V?$shared_ptr@UFace@NewDiagram@Voronoi@@@std@@@2@@2@@Z 0000000140082f60 f   MinKnapsack.obj
 0002:00056bd0       ?push_back@?$list@PEAUSpecial_vertex@@V?$allocator@PEAUSpecial_vertex@@@std@@@std@@QEAAX$$QEAPEAUSpecial_vertex@@@Z 0000000140085bd0 f i MinKnapsack.obj
 0002:00056c30       ?push_back@?$list@V?$shared_ptr@UFace@NewDiagram@Voronoi@@@std@@V?$allocator@V?$shared_ptr@UFace@NewDiagram@Voronoi@@@std@@@2@@std@@QEAAXAEBV?$shared_ptr@UFace@NewDiagram@Voronoi@@@2@@Z 0000000140085c30 f i MinKnapsack.obj
 0002:00056c90       ?push_back@?$vector@V?$shared_ptr@UFace@NewDiagram@Voronoi@@@std@@V?$allocator@V?$shared_ptr@UFace@NewDiagram@Voronoi@@@std@@@2@@std@@QEAAX$$QEAV?$shared_ptr@UFace@NewDiagram@Voronoi@@@2@@Z 0000000140085c90 f i MinKnapsack.obj
 0002:00056cf0       ?push_back@?$vector@V?$shared_ptr@UHalfEdge@NewDiagram@Voronoi@@@std@@V?$allocator@V?$shared_ptr@UHalfEdge@NewDiagram@Voronoi@@@std@@@2@@std@@QEAAXAEBV?$shared_ptr@UHalfEdge@NewDiagram@Voronoi@@@2@@Z 0000000140085cf0 f i MinKnapsack.obj
 0002:00056d40       ?push_back@?$vector@V?$shared_ptr@USite@NewDiagram@Voronoi@@@std@@V?$allocator@V?$shared_ptr@USite@NewDiagram@Voronoi@@@std@@@2@@std@@QEAAXAEBV?$shared_ptr@USite@NewDiagram@Voronoi@@@2@@Z 0000000140085d40 f i MinKnapsack.obj
 0002:00056d90       ?select_on_container_copy_construction@?$_Default_allocator_traits@V?$allocator@V?$shared_ptr@USite@NewDiagram@Voronoi@@@std@@@std@@@std@@SA?AV?$allocator@V?$shared_ptr@USite@NewDiagram@Voronoi@@@std@@@2@AEBV32@@Z 0000000140085d90 f i MinKnapsack.obj
 0002:00056de0       ??$?0AEBV?$allocator@D@std@@$$V@?$_Compressed_pair@V?$allocator@D@std@@V?$_String_val@U?$_Simple_types@D@std@@@2@$00@std@@QEAA@U_One_then_variadic_args_t@1@AEBV?$allocator@D@1@@Z 0000000140085de0 f i Point2D.obj
 0002:00056e40       ??$_Allocate_at_least_helper@V?$allocator@VPoint2D@@@std@@@std@@YAPEAVPoint2D@@AEAV?$allocator@VPoint2D@@@0@AEA_K@Z 0000000140085e40 f i Point2D.obj
 0002:00056ea0       ??$_Destroy_range@V?$allocator@VPoint2D@@@std@@@std@@YAXPEAVPoint2D@@QEAV1@AEAV?$allocator@VPoint2D@@@0@@Z 0000000140085ea0 f i Point2D.obj
 0002:00056ef0       ??$_Emplace_back@AEAVPoint2D@@@?$_Uninitialized_backout_al@V?$allocator@VPoint2D@@@std@@@std@@QEAAXAEAVPoint2D@@@Z 0000000140085ef0 f i Point2D.obj
 0002:00056fa0       ??$_Emplace_back@VPoint2D@@@?$_Uninitialized_backout_al@V?$allocator@VPoint2D@@@std@@@std@@QEAAX$$QEAVPoint2D@@@Z 0000000140085fa0 f i Point2D.obj
 0002:00057050       ??$_Emplace_back_with_unused_capacity@AEBVPoint2D@@@?$vector@VPoint2D@@V?$allocator@VPoint2D@@@std@@@std@@AEAAAEAVPoint2D@@AEBV2@@Z 0000000140086050 f i Point2D.obj
 0002:00057150       ??$_Emplace_one_at_back@AEBVPoint2D@@@?$vector@VPoint2D@@V?$allocator@VPoint2D@@@std@@@std@@AEAAAEAVPoint2D@@AEBV2@@Z 0000000140086150 f i Point2D.obj
 0002:00057200       ??$_Emplace_reallocate@AEBVPoint2D@@@?$vector@VPoint2D@@V?$allocator@VPoint2D@@@std@@@std@@AEAAPEAVPoint2D@@QEAV2@AEBV2@@Z 0000000140086200 f i Point2D.obj
 0002:00057530       ??$_Get_unwrapped@AEBQEAVPoint2D@@@std@@YA?A_TAEBQEAVPoint2D@@@Z 0000000140086530 f i Point2D.obj
 0002:00057580       ??$_Get_unwrapped@PEAVPoint2D@@@std@@YA?A_T$$QEAPEAVPoint2D@@@Z 0000000140086580 f i Point2D.obj
 0002:000575d0       ??$_Reallocate_for@V<lambda_1>@?1??assign@?$basic_string@DU?$char_traits@D@std@@V?$allocator@D@2@@std@@QEAAAEAV34@QEBD_K@Z@PEBD@?$basic_string@DU?$char_traits@D@std@@V?$allocator@D@2@@std@@AEAAAEAV01@_KV<lambda_1>@?1??assign@01@QEAAAEAV01@QEBD0@Z@PEBD@Z 00000001400865d0 f i Point2D.obj
 0002:000577d0       ??$_Unfancy@VPoint2D@@@std@@YAPEAVPoint2D@@PEAV1@@Z 00000001400867d0 f i Point2D.obj
 0002:00057810       ??$_Uninitialized_copy@PEAVPoint2D@@PEAV1@V?$allocator@VPoint2D@@@std@@@std@@YAPEAVPoint2D@@PEAV1@00AEAV?$allocator@VPoint2D@@@0@@Z 0000000140086810 f i Point2D.obj
 0002:00057970       ??$_Uninitialized_move@PEAVPoint2D@@V?$allocator@VPoint2D@@@std@@@std@@YAPEAVPoint2D@@QEAV1@0PEAV1@AEAV?$allocator@VPoint2D@@@0@@Z 0000000140086970 f i Point2D.obj
 0002:00057ad0       ??$addressof@D@std@@YAPEADAEAD@Z 0000000140086ad0 f i Point2D.obj
 0002:00057b10       ??$addressof@V?$basic_stringbuf@DU?$char_traits@D@std@@V?$allocator@D@2@@std@@@std@@YAPEAV?$basic_stringbuf@DU?$char_traits@D@std@@V?$allocator@D@2@@0@AEAV10@@Z 0000000140086b10 f i Point2D.obj
 0002:00057b50       ??$construct@VPoint2D@@AEAV1@@?$_Default_allocator_traits@V?$allocator@VPoint2D@@@std@@@std@@SAXAEAV?$allocator@VPoint2D@@@1@QEAVPoint2D@@AEAV3@@Z 0000000140086b50 f i Point2D.obj
 0002:00057bd0       ??$construct@VPoint2D@@AEBV1@@?$_Default_allocator_traits@V?$allocator@VPoint2D@@@std@@@std@@SAXAEAV?$allocator@VPoint2D@@@1@QEAVPoint2D@@AEBV3@@Z 0000000140086bd0 f i Point2D.obj
 0002:00057c50       ??$construct@VPoint2D@@V1@@?$_Default_allocator_traits@V?$allocator@VPoint2D@@@std@@@std@@SAXAEAV?$allocator@VPoint2D@@@1@QEAVPoint2D@@$$QEAV3@@Z 0000000140086c50 f i Point2D.obj
 0002:00057cd0       ??$max@PEAD@std@@YAAEBQEADAEBQEAD0@Z 0000000140086cd0 f i Point2D.obj
 0002:00057d70       ??0?$_Uninitialized_backout_al@V?$allocator@VPoint2D@@@std@@@std@@QEAA@PEAVPoint2D@@AEAV?$allocator@VPoint2D@@@1@@Z 0000000140086d70 f i Point2D.obj
 0002:00057e00       ??0?$basic_string@DU?$char_traits@D@std@@V?$allocator@D@2@@std@@QEAA@AEBV?$allocator@D@1@@Z 0000000140086e00 f i Point2D.obj
 0002:00057e90       ??0?$basic_stringbuf@DU?$char_traits@D@std@@V?$allocator@D@2@@std@@QEAA@H@Z 0000000140086e90 f i Point2D.obj
 0002:00057f40       ??0?$basic_stringstream@DU?$char_traits@D@std@@V?$allocator@D@2@@std@@QEAA@XZ 0000000140086f40 f i Point2D.obj
 0002:000580c0       ??0Point2D@@QEAA@AEBV0@@Z  00000001400870c0 f   Point2D.obj
 0002:00058140       ??0Point2D@@QEAA@NN@Z      0000000140087140 f   Point2D.obj
 0002:000581c0       ??1?$_Uninitialized_backout_al@V?$allocator@VPoint2D@@@std@@@std@@QEAA@XZ 00000001400871c0 f i Point2D.obj
 0002:00058230       ??1?$basic_stringbuf@DU?$char_traits@D@std@@V?$allocator@D@2@@std@@UEAA@XZ 0000000140087230 f i Point2D.obj
 0002:000582a0       ??1?$basic_stringstream@DU?$char_traits@D@std@@V?$allocator@D@2@@std@@UEAA@XZ 00000001400872a0 f i Point2D.obj
 0002:00058390       ??6@YAAEAV?$basic_ostream@DU?$char_traits@D@std@@@std@@AEAV01@AEBVPoint2D@@@Z 0000000140087390 f   Point2D.obj
 0002:00058490       ??6@YAAEAV?$vector@VPoint2D@@V?$allocator@VPoint2D@@@std@@@std@@AEAV01@AEBVPoint2D@@@Z 0000000140087490 f   Point2D.obj
 0002:000584f0       ??APoint2D@@QEAANH@Z       00000001400874f0 f   Point2D.obj
 0002:00058560       ??D@YA?AVPoint2D@@AEBV0@N@Z 0000000140087560 f   Point2D.obj
 0002:000585f0       ??D@YA?AVPoint2D@@NAEBV0@@Z 00000001400875f0 f   Point2D.obj
 0002:00058680       ??G@YA?AVPoint2D@@AEBV0@0@Z 0000000140087680 f   Point2D.obj
 0002:00058720       ??G@YA?AVPoint2D@@AEBV0@@Z 0000000140087720 f   Point2D.obj
 0002:000587b0       ??H@YA?AVPoint2D@@AEBV0@0@Z 00000001400877b0 f   Point2D.obj
 0002:00058850       ??K@YA?AVPoint2D@@AEBV0@0@Z 0000000140087850 f   Point2D.obj
 0002:000588f0       ??K@YA?AVPoint2D@@AEBV0@N@Z 00000001400878f0 f   Point2D.obj
 0002:00058980       ??R<lambda_1>@?1??assign@?$basic_string@DU?$char_traits@D@std@@V?$allocator@D@2@@std@@QEAAAEAV23@QEBD_K@Z@QEBA@QEAD10@Z 0000000140087980 f i Point2D.obj
 0002:00058a20       ??XPoint2D@@QEAAAEAV0@N@Z  0000000140087a20 f   Point2D.obj
 0002:00058ac0       ??YPoint2D@@QEAAAEAV0@AEBV0@@Z 0000000140087ac0 f   Point2D.obj
 0002:00058b60       ??ZPoint2D@@QEAAAEAV0@AEBV0@@Z 0000000140087b60 f   Point2D.obj
 0002:00058c00       ??_0Point2D@@QEAAAEAV0@N@Z 0000000140087c00 f   Point2D.obj
 0002:00058ca0       ??_D?$basic_stringstream@DU?$char_traits@D@std@@V?$allocator@D@2@@std@@QEAAXXZ 0000000140087ca0 f i Point2D.obj
 0002:00058cfc       ??_E?$basic_stringstream@DU?$char_traits@D@std@@V?$allocator@D@2@@std@@$4PPPPPPPM@A@EAAPEAXI@Z 0000000140087cfc f i Point2D.obj
 0002:00058d10       ??_E?$basic_stringbuf@DU?$char_traits@D@std@@V?$allocator@D@2@@std@@UEAAPEAXI@Z 0000000140087d10 f i Point2D.obj
 0002:00058d10       ??_G?$basic_stringbuf@DU?$char_traits@D@std@@V?$allocator@D@2@@std@@UEAAPEAXI@Z 0000000140087d10 f i Point2D.obj
 0002:00058d80       ??_E?$basic_stringstream@DU?$char_traits@D@std@@V?$allocator@D@2@@std@@UEAAPEAXI@Z 0000000140087d80 f i Point2D.obj
 0002:00058d80       ??_G?$basic_stringstream@DU?$char_traits@D@std@@V?$allocator@D@2@@std@@UEAAPEAXI@Z 0000000140087d80 f i Point2D.obj
 0002:00058e10       ?_Calculate_growth@?$vector@VPoint2D@@V?$allocator@VPoint2D@@@std@@@std@@AEBA_K_K@Z 0000000140087e10 f i Point2D.obj
 0002:00058ef0       ?_Change_array@?$vector@VPoint2D@@V?$allocator@VPoint2D@@@std@@@std@@AEAAXQEAVPoint2D@@_K1@Z 0000000140087ef0 f i Point2D.obj
 0002:00059060       ?_Get_buffer_view@?$basic_stringbuf@DU?$char_traits@D@std@@V?$allocator@D@2@@std@@QEBA?AU_Buffer_view@12@XZ 0000000140088060 f i Point2D.obj
 0002:00059270       ?_Get_first@?$_Compressed_pair@V?$allocator@VPoint2D@@@std@@V?$_Vector_val@U?$_Simple_types@VPoint2D@@@std@@@2@$00@std@@QEAAAEAV?$allocator@VPoint2D@@@2@XZ 0000000140088270 f i Point2D.obj
 0002:000592b0       ?_Get_first@?$_Compressed_pair@V?$allocator@VPoint2D@@@std@@V?$_Vector_val@U?$_Simple_types@VPoint2D@@@std@@@2@$00@std@@QEBAAEBV?$allocator@VPoint2D@@@2@XZ 00000001400882b0 f i Point2D.obj
 0002:000592f0       ?_Getal@?$vector@VPoint2D@@V?$allocator@VPoint2D@@@std@@@std@@AEAAAEAV?$allocator@VPoint2D@@@2@XZ 00000001400882f0 f i Point2D.obj
 0002:00059340       ?_Getal@?$vector@VPoint2D@@V?$allocator@VPoint2D@@@std@@@std@@AEBAAEBV?$allocator@VPoint2D@@@2@XZ 0000000140088340 f i Point2D.obj
 0002:00059390       ?_Getstate@?$basic_stringbuf@DU?$char_traits@D@std@@V?$allocator@D@2@@std@@CAHH@Z 0000000140088390 f i Point2D.obj
 0002:00059440       ?_Orphan_range@?$vector@VPoint2D@@V?$allocator@VPoint2D@@@std@@@std@@AEBAXPEAVPoint2D@@0@Z 0000000140088440 f i Point2D.obj
 0002:000594b0       ?_Orphan_range_locked@?$vector@VPoint2D@@V?$allocator@VPoint2D@@@std@@@std@@AEBAXPEAVPoint2D@@0@Z 00000001400884b0 f i Point2D.obj
 0002:00059590       ?_Orphan_range_unlocked@?$vector@VPoint2D@@V?$allocator@VPoint2D@@@std@@@std@@AEBAXPEAVPoint2D@@0@Z 0000000140088590 f i Point2D.obj
 0002:00059670       ?_Release@?$_Uninitialized_backout_al@V?$allocator@VPoint2D@@@std@@@std@@QEAAPEAVPoint2D@@XZ 0000000140088670 f i Point2D.obj
 0002:000596d0       ?_Tidy@?$basic_stringbuf@DU?$char_traits@D@std@@V?$allocator@D@2@@std@@IEAAXXZ 00000001400886d0 f i Point2D.obj
 0002:00059860       ?_Xlength@?$vector@VPoint2D@@V?$allocator@VPoint2D@@@std@@@std@@CAXXZ 0000000140088860 f i Point2D.obj
 0002:000598a0       ?__autoclassinit2@?$_Uninitialized_backout_al@V?$allocator@VPoint2D@@@std@@@std@@QEAAX_K@Z 00000001400888a0 f i Point2D.obj
 0002:000598e0       ?__autoclassinit2@?$basic_stringstream@DU?$char_traits@D@std@@V?$allocator@D@2@@std@@QEAAX_K@Z 00000001400888e0 f i Point2D.obj
 0002:00059920       ?allocate@?$allocator@VPoint2D@@@std@@QEAAPEAVPoint2D@@_K@Z 0000000140088920 f i Point2D.obj
 0002:00059980       ?assign@?$basic_string@DU?$char_traits@D@std@@V?$allocator@D@2@@std@@QEAAAEAV12@QEBD_K@Z 0000000140088980 f i Point2D.obj
 0002:00059ab0       ?capacity@?$vector@VPoint2D@@V?$allocator@VPoint2D@@@std@@@std@@QEBA_KXZ 0000000140088ab0 f i Point2D.obj
 0002:00059b10       ?crossProduct@@YANAEBVPoint2D@@0@Z 0000000140088b10 f   Point2D.obj
 0002:00059b90       ?deallocate@?$allocator@VPoint2D@@@std@@QEAAXQEAVPoint2D@@_K@Z 0000000140088b90 f i Point2D.obj
 0002:00059ca0       ?dotProduct@@YANAEBVPoint2D@@0@Z 0000000140088ca0 f   Point2D.obj
 0002:00059d20       ?eq@?$_Narrow_char_traits@DH@std@@SA_NDD@Z 0000000140088d20 f i Point2D.obj
 0002:00059da0       ?equal@@YA_NAEBVPoint2D@@0N@Z 0000000140088da0 f   Point2D.obj
 0002:00059e70       ?equal@@YA_NNNN@Z          0000000140088e70 f   Point2D.obj
 0002:00059f10       ?getRotated90CCW@Point2D@@QEAA?AV1@XZ 0000000140088f10 f   Point2D.obj
 0002:00059f90       ?getRotated90CW@Point2D@@QEAA?AV1@XZ 0000000140088f90 f   Point2D.obj
 0002:0005a010       ?isHorizontal@Point2D@@QEAA_NXZ 0000000140089010 f   Point2D.obj
 0002:0005a0c0       ?isLeftTurn@Point2D@@SA_NAEBV1@00@Z 00000001400890c0 f   Point2D.obj
 0002:0005a1a0       ?isRightTurn@Point2D@@SA_NAEBV1@00@Z 00000001400891a0 f   Point2D.obj
 0002:0005a280       ?isValid@Point2D@@QEAA_NXZ 0000000140089280 f   Point2D.obj
 0002:0005a350       ?isVertical@Point2D@@QEAA_NXZ 0000000140089350 f   Point2D.obj
 0002:0005a400       ?max_size@?$_Default_allocator_traits@V?$allocator@VPoint2D@@@std@@@std@@SA_KAEBV?$allocator@VPoint2D@@@2@@Z 0000000140089400 f i Point2D.obj
 0002:0005a450       ?max_size@?$vector@VPoint2D@@V?$allocator@VPoint2D@@@std@@@std@@QEBA_KXZ 0000000140089450 f i Point2D.obj
 0002:0005a4d0       ?norm2@Point2D@@QEAANXZ    00000001400894d0 f   Point2D.obj
 0002:0005a550       ?norm@Point2D@@QEAANXZ     0000000140089550 f   Point2D.obj
 0002:0005a5d0       ?normalize@Point2D@@QEAAXXZ 00000001400895d0 f   Point2D.obj
 0002:0005a660       ?normalized@Point2D@@QEAA?AV1@XZ 0000000140089660 f   Point2D.obj
 0002:0005a6d0       ?overflow@?$basic_stringbuf@DU?$char_traits@D@std@@V?$allocator@D@2@@std@@MEAAHH@Z 00000001400896d0 f i Point2D.obj
 0002:0005ab20       ?pbackfail@?$basic_stringbuf@DU?$char_traits@D@std@@V?$allocator@D@2@@std@@MEAAHH@Z 0000000140089b20 f i Point2D.obj
 0002:0005aca0       ?pointer_to@?$pointer_traits@PEAD@std@@SAPEADAEAD@Z 0000000140089ca0 f i Point2D.obj
 0002:0005acf0       ?push_back@?$vector@VPoint2D@@V?$allocator@VPoint2D@@@std@@@std@@QEAAXAEBVPoint2D@@@Z 0000000140089cf0 f i Point2D.obj
 0002:0005ad50       ?seekoff@?$basic_stringbuf@DU?$char_traits@D@std@@V?$allocator@D@2@@std@@MEAA?AV?$fpos@U_Mbstatet@@@2@_JHH@Z 0000000140089d50 f i Point2D.obj
 0002:0005b220       ?seekpos@?$basic_stringbuf@DU?$char_traits@D@std@@V?$allocator@D@2@@std@@MEAA?AV?$fpos@U_Mbstatet@@@2@V32@H@Z 000000014008a220 f i Point2D.obj
 0002:0005b5a0       ?setX@Point2D@@QEAAXN@Z    000000014008a5a0 f   Point2D.obj
 0002:0005b600       ?setY@Point2D@@QEAAXN@Z    000000014008a600 f   Point2D.obj
 0002:0005b660       ?str@?$basic_stringbuf@DU?$char_traits@D@std@@V?$allocator@D@2@@std@@QEBA?AV?$basic_string@DU?$char_traits@D@std@@V?$allocator@D@2@@2@XZ 000000014008a660 f i Point2D.obj
 0002:0005b790       ?str@?$basic_stringstream@DU?$char_traits@D@std@@V?$allocator@D@2@@std@@QEBA?AV?$basic_string@DU?$char_traits@D@std@@V?$allocator@D@2@@2@XZ 000000014008a790 f i Point2D.obj
 0002:0005b830       ?toString@Point2D@@QEBA?AV?$basic_string@DU?$char_traits@D@std@@V?$allocator@D@2@@std@@XZ 000000014008a830 f   Point2D.obj
 0002:0005b9f0       ?underflow@?$basic_stringbuf@DU?$char_traits@D@std@@V?$allocator@D@2@@std@@MEAAHXZ 000000014008a9f0 f i Point2D.obj
 0002:0005bbe0       ?setPosition@Transformable@sf@@QEAAXMM@Z 000000014008abe0 f   sfml-graphics-d:sfml-graphics-d-2.dll
 0002:0005bbe6       ?setOrigin@Transformable@sf@@QEAAXMM@Z 000000014008abe6 f   sfml-graphics-d:sfml-graphics-d-2.dll
 0002:0005bbec       ??0Color@sf@@QEAA@EEEE@Z   000000014008abec f   sfml-graphics-d:sfml-graphics-d-2.dll
 0002:0005bbf2       ??0Vertex@sf@@QEAA@AEBV?$Vector2@M@1@AEBVColor@1@@Z 000000014008abf2 f   sfml-graphics-d:sfml-graphics-d-2.dll
 0002:0005bbf8       ??0VertexArray@sf@@QEAA@W4PrimitiveType@1@_K@Z 000000014008abf8 f   sfml-graphics-d:sfml-graphics-d-2.dll
 0002:0005bbfe       ??AVertexArray@sf@@QEAAAEAVVertex@1@_K@Z 000000014008abfe f   sfml-graphics-d:sfml-graphics-d-2.dll
 0002:0005bc04       ?append@VertexArray@sf@@QEAAXAEBVVertex@2@@Z 000000014008ac04 f   sfml-graphics-d:sfml-graphics-d-2.dll
 0002:0005bc0a       ??1VertexArray@sf@@UEAA@XZ 000000014008ac0a f   sfml-graphics-d:sfml-graphics-d-2.dll
 0002:0005bc10       ?setFillColor@Shape@sf@@QEAAXAEBVColor@2@@Z 000000014008ac10 f   sfml-graphics-d:sfml-graphics-d-2.dll
 0002:0005bc16       ??0CircleShape@sf@@QEAA@M_K@Z 000000014008ac16 f   sfml-graphics-d:sfml-graphics-d-2.dll
 0002:0005bc1c       ??1CircleShape@sf@@UEAA@XZ 000000014008ac1c f   sfml-graphics-d:sfml-graphics-d-2.dll
 0002:0005bc22       ??0CircleShape@sf@@QEAA@AEBV01@@Z 000000014008ac22 f   sfml-graphics-d:sfml-graphics-d-2.dll
 0002:0005bc28       ??0CircleShape@sf@@QEAA@$$QEAV01@@Z 000000014008ac28 f   sfml-graphics-d:sfml-graphics-d-2.dll
 0002:0005bc2e       ??0View@sf@@QEAA@XZ        000000014008ac2e f   sfml-graphics-d:sfml-graphics-d-2.dll
 0002:0005bc34       ?setCenter@View@sf@@QEAAXMM@Z 000000014008ac34 f   sfml-graphics-d:sfml-graphics-d-2.dll
 0002:0005bc3a       ?setSize@View@sf@@QEAAXMM@Z 000000014008ac3a f   sfml-graphics-d:sfml-graphics-d-2.dll
 0002:0005bc40       ?clear@RenderTarget@sf@@QEAAXAEBVColor@2@@Z 000000014008ac40 f   sfml-graphics-d:sfml-graphics-d-2.dll
 0002:0005bc46       ?setView@RenderTarget@sf@@QEAAXAEBVView@2@@Z 000000014008ac46 f   sfml-graphics-d:sfml-graphics-d-2.dll
 0002:0005bc4c       ?draw@RenderTarget@sf@@QEAAXAEBVDrawable@2@AEBVRenderStates@2@@Z 000000014008ac4c f   sfml-graphics-d:sfml-graphics-d-2.dll
 0002:0005bc52       ??0RenderWindow@sf@@QEAA@VVideoMode@1@AEBVString@1@IAEBUContextSettings@1@@Z 000000014008ac52 f   sfml-graphics-d:sfml-graphics-d-2.dll
 0002:0005bc58       ??1RenderWindow@sf@@UEAA@XZ 000000014008ac58 f   sfml-graphics-d:sfml-graphics-d-2.dll
 0002:0005bc5e       ?draw@Shape@sf@@EEBAXAEAVRenderTarget@2@VRenderStates@2@@Z 000000014008ac5e f   sfml-graphics-d:sfml-graphics-d-2.dll
 0002:0005bc64       ?getPointCount@CircleShape@sf@@UEBA_KXZ 000000014008ac64 f   sfml-graphics-d:sfml-graphics-d-2.dll
 0002:0005bc6a       ?getPoint@CircleShape@sf@@UEBA?AV?$Vector2@M@2@_K@Z 000000014008ac6a f   sfml-graphics-d:sfml-graphics-d-2.dll
 0002:0005bc70       ??0VideoMode@sf@@QEAA@III@Z 000000014008ac70 f   sfml-window-d:sfml-window-d-2.dll
 0002:0005bc76       ?isOpen@WindowBase@sf@@QEBA_NXZ 000000014008ac76 f   sfml-window-d:sfml-window-d-2.dll
 0002:0005bc7c       ?pollEvent@WindowBase@sf@@QEAA_NAEAVEvent@2@@Z 000000014008ac7c f   sfml-window-d:sfml-window-d-2.dll
 0002:0005bc82       ?close@Window@sf@@UEAAXXZ  000000014008ac82 f   sfml-window-d:sfml-window-d-2.dll
 0002:0005bc88       ?display@Window@sf@@QEAAXXZ 000000014008ac88 f   sfml-window-d:sfml-window-d-2.dll
 0002:0005bc8e       ??0String@sf@@QEAA@PEBDAEBVlocale@std@@@Z 000000014008ac8e f   sfml-system-d:sfml-system-d-2.dll
 0002:0005bc94       ??1String@sf@@QEAA@XZ      000000014008ac94 f   sfml-system-d:sfml-system-d-2.dll
 0002:0005bc9a       ??0_Lockit@std@@QEAA@H@Z   000000014008ac9a f   msvcprtd:MSVCP140D.dll
 0002:0005bca0       ??1_Lockit@std@@QEAA@XZ    000000014008aca0 f   msvcprtd:MSVCP140D.dll
 0002:0005bca6       ?_Xbad_alloc@std@@YAXXZ    000000014008aca6 f   msvcprtd:MSVCP140D.dll
 0002:0005bcac       ?_Xlength_error@std@@YAXPEBD@Z 000000014008acac f   msvcprtd:MSVCP140D.dll
 0002:0005bcb2       ?_Xout_of_range@std@@YAXPEBD@Z 000000014008acb2 f   msvcprtd:MSVCP140D.dll
 0002:0005bcb8       ?uncaught_exception@std@@YA_NXZ 000000014008acb8 f   msvcprtd:MSVCP140D.dll
 0002:0005bcc0       ??0_Fac_node@std@@QEAA@PEAU01@PEAV_Facet_base@1@@Z 000000014008acc0 f i msvcprtd:locale0_implib.obj
 0002:0005bd00       ??1_Fac_node@std@@QEAA@XZ  000000014008ad00 f i msvcprtd:locale0_implib.obj
 0002:0005bdb0       ??1_Fac_tidy_reg_t@std@@QEAA@XZ 000000014008adb0 f i msvcprtd:locale0_implib.obj
 0002:0005be30       ??2_Fac_node@std@@SAPEAX_K@Z 000000014008ae30 f i msvcprtd:locale0_implib.obj
 0002:0005beb0       ??3_Fac_node@std@@SAXPEAX@Z 000000014008aeb0 f i msvcprtd:locale0_implib.obj
 0002:0005bee0       ??_G_Fac_node@std@@QEAAPEAXI@Z 000000014008aee0 f i msvcprtd:locale0_implib.obj
 0002:0005bf50       ?_Facet_Register@std@@YAXPEAV_Facet_base@1@@Z 000000014008af50 f   msvcprtd:locale0_implib.obj
 0002:0005bfc9       _Mbrtowc                   000000014008afc9 f   msvcprtd:MSVCP140D.dll
 0002:0005bfcf       ?_Getcvt@_Locinfo@std@@QEBA?AU_Cvtvec@@XZ 000000014008afcf f   msvcprtd:MSVCP140D.dll
 0002:0005bfd5       ?_Getdays@_Locinfo@std@@QEBAPEBDXZ 000000014008afd5 f   msvcprtd:MSVCP140D.dll
 0002:0005bfdb       ?_Getmonths@_Locinfo@std@@QEBAPEBDXZ 000000014008afdb f   msvcprtd:MSVCP140D.dll
 0002:0005bfe1       ?_W_Getdays@_Locinfo@std@@QEBAPEBGXZ 000000014008afe1 f   msvcprtd:MSVCP140D.dll
 0002:0005bfe7       ?_W_Getmonths@_Locinfo@std@@QEBAPEBGXZ 000000014008afe7 f   msvcprtd:MSVCP140D.dll
 0002:0005bfed       ??Bid@locale@std@@QEAA_KXZ 000000014008afed f   msvcprtd:MSVCP140D.dll
 0002:0005bff3       ?_Init@locale@std@@CAPEAV_Locimp@12@_N@Z 000000014008aff3 f   msvcprtd:MSVCP140D.dll
 0002:0005bff9       ?_Getgloballocale@locale@std@@CAPEAV_Locimp@12@XZ 000000014008aff9 f   msvcprtd:MSVCP140D.dll
 0002:0005bfff       ?always_noconv@codecvt_base@std@@QEBA_NXZ 000000014008afff f   msvcprtd:MSVCP140D.dll
 0002:0005c005       ?in@?$codecvt@DDU_Mbstatet@@@std@@QEBAHAEAU_Mbstatet@@PEBD1AEAPEBDPEAD3AEAPEAD@Z 000000014008b005 f   msvcprtd:MSVCP140D.dll
 0002:0005c00b       ?out@?$codecvt@DDU_Mbstatet@@@std@@QEBAHAEAU_Mbstatet@@PEBD1AEAPEBDPEAD3AEAPEAD@Z 000000014008b00b f   msvcprtd:MSVCP140D.dll
 0002:0005c011       ?unshift@?$codecvt@DDU_Mbstatet@@@std@@QEBAHAEAU_Mbstatet@@PEAD1AEAPEAD@Z 000000014008b011 f   msvcprtd:MSVCP140D.dll
 0002:0005c017       ?_Getcat@?$codecvt@DDU_Mbstatet@@@std@@SA_KPEAPEBVfacet@locale@2@PEBV42@@Z 000000014008b017 f   msvcprtd:MSVCP140D.dll
 0002:0005c01d       ??Bios_base@std@@QEBA_NXZ  000000014008b01d f   msvcprtd:MSVCP140D.dll
 0002:0005c023       ?good@ios_base@std@@QEBA_NXZ 000000014008b023 f   msvcprtd:MSVCP140D.dll
 0002:0005c029       ?flags@ios_base@std@@QEBAHXZ 000000014008b029 f   msvcprtd:MSVCP140D.dll
 0002:0005c02f       ?width@ios_base@std@@QEBA_JXZ 000000014008b02f f   msvcprtd:MSVCP140D.dll
 0002:0005c035       ?width@ios_base@std@@QEAA_J_J@Z 000000014008b035 f   msvcprtd:MSVCP140D.dll
 0002:0005c03b       ??0?$basic_streambuf@DU?$char_traits@D@std@@@std@@IEAA@XZ 000000014008b03b f   msvcprtd:MSVCP140D.dll
 0002:0005c041       ??1?$basic_streambuf@DU?$char_traits@D@std@@@std@@UEAA@XZ 000000014008b041 f   msvcprtd:MSVCP140D.dll
 0002:0005c047       ?getloc@?$basic_streambuf@DU?$char_traits@D@std@@@std@@QEBA?AVlocale@2@XZ 000000014008b047 f   msvcprtd:MSVCP140D.dll
 0002:0005c04d       ?sputc@?$basic_streambuf@DU?$char_traits@D@std@@@std@@QEAAHD@Z 000000014008b04d f   msvcprtd:MSVCP140D.dll
 0002:0005c053       ?sputn@?$basic_streambuf@DU?$char_traits@D@std@@@std@@QEAA_JPEBD_J@Z 000000014008b053 f   msvcprtd:MSVCP140D.dll
 0002:0005c059       ?eback@?$basic_streambuf@DU?$char_traits@D@std@@@std@@IEBAPEADXZ 000000014008b059 f   msvcprtd:MSVCP140D.dll
 0002:0005c05f       ?gptr@?$basic_streambuf@DU?$char_traits@D@std@@@std@@IEBAPEADXZ 000000014008b05f f   msvcprtd:MSVCP140D.dll
 0002:0005c065       ?pptr@?$basic_streambuf@DU?$char_traits@D@std@@@std@@IEBAPEADXZ 000000014008b065 f   msvcprtd:MSVCP140D.dll
 0002:0005c06b       ?egptr@?$basic_streambuf@DU?$char_traits@D@std@@@std@@IEBAPEADXZ 000000014008b06b f   msvcprtd:MSVCP140D.dll
 0002:0005c071       ?gbump@?$basic_streambuf@DU?$char_traits@D@std@@@std@@IEAAXH@Z 000000014008b071 f   msvcprtd:MSVCP140D.dll
 0002:0005c077       ?setg@?$basic_streambuf@DU?$char_traits@D@std@@@std@@IEAAXPEAD00@Z 000000014008b077 f   msvcprtd:MSVCP140D.dll
 0002:0005c07d       ?epptr@?$basic_streambuf@DU?$char_traits@D@std@@@std@@IEBAPEADXZ 000000014008b07d f   msvcprtd:MSVCP140D.dll
 0002:0005c083       ?_Gndec@?$basic_streambuf@DU?$char_traits@D@std@@@std@@IEAAPEADXZ 000000014008b083 f   msvcprtd:MSVCP140D.dll
 0002:0005c089       ?_Gninc@?$basic_streambuf@DU?$char_traits@D@std@@@std@@IEAAPEADXZ 000000014008b089 f   msvcprtd:MSVCP140D.dll
 0002:0005c08f       ?_Gnavail@?$basic_streambuf@DU?$char_traits@D@std@@@std@@IEBA_JXZ 000000014008b08f f   msvcprtd:MSVCP140D.dll
 0002:0005c095       ?pbump@?$basic_streambuf@DU?$char_traits@D@std@@@std@@IEAAXH@Z 000000014008b095 f   msvcprtd:MSVCP140D.dll
 0002:0005c09b       ?_Pninc@?$basic_streambuf@DU?$char_traits@D@std@@@std@@IEAAPEADXZ 000000014008b09b f   msvcprtd:MSVCP140D.dll
 0002:0005c0a1       ?_Pnavail@?$basic_streambuf@DU?$char_traits@D@std@@@std@@IEBA_JXZ 000000014008b0a1 f   msvcprtd:MSVCP140D.dll
 0002:0005c0a7       ?_Init@?$basic_streambuf@DU?$char_traits@D@std@@@std@@IEAAXXZ 000000014008b0a7 f   msvcprtd:MSVCP140D.dll
 0002:0005c0ad       ?_Init@?$basic_streambuf@DU?$char_traits@D@std@@@std@@IEAAXPEAPEAD0PEAH001@Z 000000014008b0ad f   msvcprtd:MSVCP140D.dll
 0002:0005c0b3       ?xsgetn@?$basic_streambuf@DU?$char_traits@D@std@@@std@@MEAA_JPEAD_J@Z 000000014008b0b3 f   msvcprtd:MSVCP140D.dll
 0002:0005c0b9       ?xsputn@?$basic_streambuf@DU?$char_traits@D@std@@@std@@MEAA_JPEBD_J@Z 000000014008b0b9 f   msvcprtd:MSVCP140D.dll
 0002:0005c0bf       ??1?$basic_ios@DU?$char_traits@D@std@@@std@@UEAA@XZ 000000014008b0bf f   msvcprtd:MSVCP140D.dll
 0002:0005c0c5       ?setstate@?$basic_ios@DU?$char_traits@D@std@@@std@@QEAAXH_N@Z 000000014008b0c5 f   msvcprtd:MSVCP140D.dll
 0002:0005c0cb       ?tie@?$basic_ios@DU?$char_traits@D@std@@@std@@QEBAPEAV?$basic_ostream@DU?$char_traits@D@std@@@2@XZ 000000014008b0cb f   msvcprtd:MSVCP140D.dll
 0002:0005c0d1       ?rdbuf@?$basic_ios@DU?$char_traits@D@std@@@std@@QEBAPEAV?$basic_streambuf@DU?$char_traits@D@std@@@2@XZ 000000014008b0d1 f   msvcprtd:MSVCP140D.dll
 0002:0005c0d7       ?fill@?$basic_ios@DU?$char_traits@D@std@@@std@@QEBADXZ 000000014008b0d7 f   msvcprtd:MSVCP140D.dll
 0002:0005c0dd       ?widen@?$basic_ios@DU?$char_traits@D@std@@@std@@QEBADD@Z 000000014008b0dd f   msvcprtd:MSVCP140D.dll
 0002:0005c0e3       ??0?$basic_ios@DU?$char_traits@D@std@@@std@@IEAA@XZ 000000014008b0e3 f   msvcprtd:MSVCP140D.dll
 0002:0005c0e9       ?_Osfx@?$basic_ostream@DU?$char_traits@D@std@@@std@@QEAAXXZ 000000014008b0e9 f   msvcprtd:MSVCP140D.dll
 0002:0005c0ef       ??6?$basic_ostream@DU?$char_traits@D@std@@@std@@QEAAAEAV01@P6AAEAV01@AEAV01@@Z@Z 000000014008b0ef f   msvcprtd:MSVCP140D.dll
 0002:0005c0f5       ??6?$basic_ostream@DU?$char_traits@D@std@@@std@@QEAAAEAV01@N@Z 000000014008b0f5 f   msvcprtd:MSVCP140D.dll
 0002:0005c0fb       ?put@?$basic_ostream@DU?$char_traits@D@std@@@std@@QEAAAEAV12@D@Z 000000014008b0fb f   msvcprtd:MSVCP140D.dll
 0002:0005c101       ?flush@?$basic_ostream@DU?$char_traits@D@std@@@std@@QEAAAEAV12@XZ 000000014008b101 f   msvcprtd:MSVCP140D.dll
 0002:0005c107       ??0?$basic_istream@DU?$char_traits@D@std@@@std@@QEAA@PEAV?$basic_streambuf@DU?$char_traits@D@std@@@1@_N@Z 000000014008b107 f   msvcprtd:MSVCP140D.dll
 0002:0005c10d       ??1?$basic_istream@DU?$char_traits@D@std@@@std@@UEAA@XZ 000000014008b10d f   msvcprtd:MSVCP140D.dll
 0002:0005c113       ??5?$basic_istream@DU?$char_traits@D@std@@@std@@QEAAAEAV01@AEAH@Z 000000014008b113 f   msvcprtd:MSVCP140D.dll
 0002:0005c119       ??5?$basic_istream@DU?$char_traits@D@std@@@std@@QEAAAEAV01@AEAN@Z 000000014008b119 f   msvcprtd:MSVCP140D.dll
 0002:0005c11f       ?_Fiopen@std@@YAPEAU_iobuf@@PEBDHH@Z 000000014008b11f f   msvcprtd:MSVCP140D.dll
 0002:0005c125       ?showmanyc@?$basic_streambuf@DU?$char_traits@D@std@@@std@@MEAA_JXZ 000000014008b125 f   msvcprtd:MSVCP140D.dll
 0002:0005c12b       ??6?$basic_ostream@DU?$char_traits@D@std@@@std@@QEAAAEAV01@J@Z 000000014008b12b f   msvcprtd:MSVCP140D.dll
 0002:0005c131       ?pbase@?$basic_streambuf@DU?$char_traits@D@std@@@std@@IEBAPEADXZ 000000014008b131 f   msvcprtd:MSVCP140D.dll
 0002:0005c137       ?setp@?$basic_streambuf@DU?$char_traits@D@std@@@std@@IEAAXPEAD0@Z 000000014008b137 f   msvcprtd:MSVCP140D.dll
 0002:0005c13d       ?setp@?$basic_streambuf@DU?$char_traits@D@std@@@std@@IEAAXPEAD00@Z 000000014008b13d f   msvcprtd:MSVCP140D.dll
 0002:0005c143       ??0?$basic_iostream@DU?$char_traits@D@std@@@std@@QEAA@PEAV?$basic_streambuf@DU?$char_traits@D@std@@@1@@Z 000000014008b143 f   msvcprtd:MSVCP140D.dll
 0002:0005c149       ??1?$basic_iostream@DU?$char_traits@D@std@@@std@@UEAA@XZ 000000014008b149 f   msvcprtd:MSVCP140D.dll
 0002:0005c14f       ?imbue@?$basic_streambuf@DU?$char_traits@D@std@@@std@@MEAAXAEBVlocale@2@@Z 000000014008b14f f   msvcprtd:MSVCP140D.dll
 0002:0005c155       ?sync@?$basic_streambuf@DU?$char_traits@D@std@@@std@@MEAAHXZ 000000014008b155 f   msvcprtd:MSVCP140D.dll
 0002:0005c15b       ?setbuf@?$basic_streambuf@DU?$char_traits@D@std@@@std@@MEAAPEAV12@PEAD_J@Z 000000014008b15b f   msvcprtd:MSVCP140D.dll
 0002:0005c161       ?uflow@?$basic_streambuf@DU?$char_traits@D@std@@@std@@MEAAHXZ 000000014008b161 f   msvcprtd:MSVCP140D.dll
 0002:0005c167       ?_Unlock@?$basic_streambuf@DU?$char_traits@D@std@@@std@@UEAAXXZ 000000014008b167 f   msvcprtd:MSVCP140D.dll
 0002:0005c16d       ?_Lock@?$basic_streambuf@DU?$char_traits@D@std@@@std@@UEAAXXZ 000000014008b16d f   msvcprtd:MSVCP140D.dll
 0002:0005c180       ??_M@YAXPEAX_K1P6AX0@Z@Z   000000014008b180 f   MSVCRTD:ehvecdtr.obj
 0002:0005c270       ??_M@YAXPEAX_KHP6AX0@Z@Z   000000014008b270 f   MSVCRTD:ehvecdtr.obj
 0002:0005c340       ?__ArrayUnwind@@YAXPEAX_K1P6AX0@Z@Z 000000014008b340 f   MSVCRTD:ehvecdtr.obj
 0002:0005c3e0       ??2@YAPEAX_K@Z             000000014008b3e0 f   MSVCRTD:new_scalar.obj
 0002:0005c450       ??3@YAXPEAX_K@Z            000000014008b450 f   MSVCRTD:delete_scalar_size.obj
 0002:0005c480       ?configure_argv@__scrt_narrow_argv_policy@@SAHXZ 000000014008b480 f i MSVCRTD:utility.obj
 0002:0005c5a0       ?initialize_environment@__scrt_narrow_environment_policy@@SAHXZ 000000014008b5a0 f i MSVCRTD:utility.obj
 0002:0005c670       NtCurrentTeb               000000014008b670 f i MSVCRTD:utility.obj
 0002:0005c680       __scrt_acquire_startup_lock 000000014008b680 f   MSVCRTD:utility.obj
 0002:0005c700       __scrt_dllmain_after_initialize_c 000000014008b700 f   MSVCRTD:utility.obj
 0002:0005c740       __scrt_dllmain_before_initialize_c 000000014008b740 f   MSVCRTD:utility.obj
 0002:0005c770       __scrt_dllmain_crt_thread_attach 000000014008b770 f   MSVCRTD:utility.obj
 0002:0005c7b0       __scrt_dllmain_crt_thread_detach 000000014008b7b0 f   MSVCRTD:utility.obj
 0002:0005c7d0       __scrt_dllmain_exception_filter 000000014008b7d0 f   MSVCRTD:utility.obj
 0002:0005c850       __scrt_dllmain_uninitialize_c 000000014008b850 f   MSVCRTD:utility.obj
 0002:0005c890       __scrt_dllmain_uninitialize_critical 000000014008b890 f   MSVCRTD:utility.obj
 0002:0005c8b0       __scrt_initialize_crt      000000014008b8b0 f   MSVCRTD:utility.obj
 0002:0005c910       __scrt_initialize_onexit_tables 000000014008b910 f   MSVCRTD:utility.obj
 0002:0005ca60       __scrt_is_nonwritable_in_current_image 000000014008ba60 f   MSVCRTD:utility.obj
 0002:0005cb10       __scrt_release_startup_lock 000000014008bb10 f   MSVCRTD:utility.obj
 0002:0005cb50       __scrt_uninitialize_crt    000000014008bb50 f   MSVCRTD:utility.obj
 0002:0005cba0       _onexit                    000000014008bba0 f   MSVCRTD:utility.obj
 0002:0005cc40       at_quick_exit              000000014008bc40 f   MSVCRTD:utility.obj
 0002:0005cca0       atexit                     000000014008bca0 f   MSVCRTD:utility.obj
 0002:0005cce0       _Init_thread_abort         000000014008bce0 f   MSVCRTD:thread_safe_statics.obj
 0002:0005cd20       _Init_thread_footer        000000014008bd20 f   MSVCRTD:thread_safe_statics.obj
 0002:0005cda0       _Init_thread_header        000000014008bda0 f   MSVCRTD:thread_safe_statics.obj
 0002:0005ce50       _Init_thread_lock          000000014008be50 f   MSVCRTD:thread_safe_statics.obj
 0002:0005ce70       _Init_thread_notify        000000014008be70 f   MSVCRTD:thread_safe_statics.obj
 0002:0005ce90       _Init_thread_unlock        000000014008be90 f   MSVCRTD:thread_safe_statics.obj
 0002:0005ceb0       _Init_thread_wait_v2       000000014008beb0 f   MSVCRTD:thread_safe_statics.obj
 0002:0005cee0       _RTC_AllocaHelper          000000014008bee0 f   MSVCRTD:stack.obj
 0002:0005cf30       _RTC_CheckStackVars        000000014008bf30 f   MSVCRTD:stack.obj
 0002:0005cfe0       _RTC_CheckStackVars2       000000014008bfe0 f   MSVCRTD:stack.obj
 0002:0005d130       _CRT_RTC_INIT              000000014008c130 f   MSVCRTD:init.obj
 0002:0005d140       _CRT_RTC_INITW             000000014008c140 f   MSVCRTD:init.obj
 0002:0005d150       _RTC_InitBase              000000014008c150 f   MSVCRTD:init.obj
 0002:0005d1a0       _RTC_Shutdown              000000014008c1a0 f   MSVCRTD:init.obj
 0002:0005d1d0       __CheckForDebuggerJustMyCode 000000014008c1d0 f   MSVCRTD:debugger_jmc.obj
 0002:0005d220       __GSHandlerCheck           000000014008c220 f   MSVCRTD:gshandler.obj
 0002:0005d270       __GSHandlerCheckCommon     000000014008c270 f   MSVCRTD:gshandler.obj
 0002:0005d3b0       __GSHandlerCheck_EH4       000000014008c3b0 f   MSVCRTD:gshandlereh4.obj
 0002:0005d490       __chkstk                   000000014008c490 f   MSVCRTD:chkstk.obj
 0002:0005d490       _alloca_probe              000000014008c490 f   MSVCRTD:chkstk.obj
 0002:0005d510       __security_check_cookie    000000014008c510 f   MSVCRTD:amdsecgs.obj
 0002:0005d540       ??1type_info@@UEAA@XZ      000000014008c540 f   MSVCRTD:std_type_info_static.obj
 0002:0005d560       ??_Etype_info@@UEAAPEAXI@Z 000000014008c560 f i MSVCRTD:std_type_info_static.obj
 0002:0005d560       ??_Gtype_info@@UEAAPEAXI@Z 000000014008c560 f i MSVCRTD:std_type_info_static.obj
 0002:0005d970       ?set_app_type@__scrt_main_policy@@SAXXZ 000000014008c970 f i MSVCRTD:exe_main.obj
 0002:0005d990       ?set_commode@__scrt_file_policy@@SAXXZ 000000014008c990 f i MSVCRTD:exe_main.obj
 0002:0005d9c0       ?set_fmode@__scrt_file_policy@@SAXXZ 000000014008c9c0 f i MSVCRTD:exe_main.obj
 0002:0005d9e0       mainCRTStartup             000000014008c9e0 f   MSVCRTD:exe_main.obj
 0002:0005da00       _guard_check_icall_nop     000000014008ca00 f i MSVCRTD:guard_support.obj
 0002:0005da10       ReadNoFence64              000000014008ca10 f i MSVCRTD:guard_support.obj
 0002:0005da40       ReadPointerNoFence         000000014008ca40 f i MSVCRTD:guard_support.obj
 0002:0005da60       __castguard_check_failure_debugbreak 000000014008ca60 f i MSVCRTD:guard_support.obj
 0002:0005da90       __castguard_check_failure_fastfail 000000014008ca90 f i MSVCRTD:guard_support.obj
 0002:0005dac0       __castguard_check_failure_nop 000000014008cac0 f i MSVCRTD:guard_support.obj
 0002:0005dad0       __castguard_check_failure_os_handled 000000014008cad0 f i MSVCRTD:guard_support.obj
 0002:0005db40       __castguard_check_failure_user_handled 000000014008cb40 f i MSVCRTD:guard_support.obj
 0002:0005dc60       __castguard_set_user_handler 000000014008cc60 f i MSVCRTD:guard_support.obj
 0002:0005dc90       __castguard_slow_path_check_debugbreak 000000014008cc90 f i MSVCRTD:guard_support.obj
 0002:0005dce0       __castguard_slow_path_check_fastfail 000000014008cce0 f i MSVCRTD:guard_support.obj
 0002:0005dd40       __castguard_slow_path_check_nop 000000014008cd40 f i MSVCRTD:guard_support.obj
 0002:0005dd60       __castguard_slow_path_check_os_handled 000000014008cd60 f i MSVCRTD:guard_support.obj
 0002:0005ddc0       __castguard_slow_path_check_user_handled 000000014008cdc0 f i MSVCRTD:guard_support.obj
 0002:0005deb0       _guard_icall_checks_enforced 000000014008ceb0 f i MSVCRTD:guard_support.obj
 0002:0005df00       _guard_rf_checks_enforced  000000014008cf00 f i MSVCRTD:guard_support.obj
 0002:0005df10       ??0bad_alloc@std@@QEAA@XZ  000000014008cf10 f i MSVCRTD:throw_bad_alloc.obj
 0002:0005df60       ?__scrt_throw_std_bad_alloc@@YAXXZ 000000014008cf60 f   MSVCRTD:throw_bad_alloc.obj
 0002:0005df90       ?__scrt_throw_std_bad_array_new_length@@YAXXZ 000000014008cf90 f   MSVCRTD:throw_bad_alloc.obj
 0002:0005dfc0       ??3@YAXPEAX@Z              000000014008cfc0 f   MSVCRTD:delete_scalar.obj
 0002:0005dff0       __isa_available_init       000000014008cff0 f   MSVCRTD:cpu_disp.obj
 0002:0005e620       _get_startup_argv_mode     000000014008d620 f   MSVCRTD:argv_mode.obj
 0002:0005e630       __scrt_is_ucrt_dll_in_use  000000014008d630 f   MSVCRTD:ucrt_detection.obj
 0002:0005e660       __crt_debugger_hook        000000014008d660 f   MSVCRTD:utility_desktop.obj
 0002:0005e680       __scrt_fastfail            000000014008d680 f   MSVCRTD:utility_desktop.obj
 0002:0005e880       __scrt_get_show_window_mode 000000014008d880 f   MSVCRTD:utility_desktop.obj
 0002:0005e8f0       __scrt_initialize_mta      000000014008d8f0 f   MSVCRTD:utility_desktop.obj
 0002:0005e910       __scrt_initialize_winrt    000000014008d910 f   MSVCRTD:utility_desktop.obj
 0002:0005e920       __scrt_is_managed_app      000000014008d920 f   MSVCRTD:utility_desktop.obj
 0002:0005e9f0       __scrt_set_unhandled_exception_filter 000000014008d9f0 f   MSVCRTD:utility_desktop.obj
 0002:0005ea10       __scrt_exe_initialize_mta  000000014008da10 f   MSVCRTD:utility_desktop.obj
 0002:0005ea10       __scrt_stub_for_initialize_mta 000000014008da10 f   MSVCRTD:utility_desktop.obj
 0002:0005ea20       __scrt_unhandled_exception_filter 000000014008da20 f   MSVCRTD:utility_desktop.obj
 0002:0005eba0       ?_RTC_AllocaFailure@@YAXPEAXPEAU_RTC_ALLOCA_NODE@@H@Z 000000014008dba0 f   MSVCRTD:error.obj
 0002:0005ed50       ?_RTC_Failure@@YAXPEAXH@Z  000000014008dd50 f   MSVCRTD:error.obj
 0002:0005edc0       ?_RTC_StackFailure@@YAXPEAXPEBD@Z 000000014008ddc0 f   MSVCRTD:error.obj
 0002:0005f320       _RTC_UninitUse             000000014008e320 f   MSVCRTD:error.obj
 0002:0005f420       __local_stdio_printf_options 000000014008e420 f i MSVCRTD:error.obj
 0002:0005f430       _vsprintf_s_l              000000014008e430 f i MSVCRTD:error.obj
 0002:0005f4b0       sprintf_s                  000000014008e4b0 f i MSVCRTD:error.obj
 0002:0005f4e0       ?_RTC_GetErrorFunc@@YAP6AHHPEBDH00ZZPEBX@Z 000000014008e4e0 f   MSVCRTD:userapi.obj
 0002:0005f4f0       ?_RTC_GetErrorFuncW@@YAP6AHHPEB_WH00ZZPEBX@Z 000000014008e4f0 f   MSVCRTD:userapi.obj
 0002:0005f500       _RTC_GetErrDesc            000000014008e500 f   MSVCRTD:userapi.obj
 0002:0005f520       _RTC_NumErrors             000000014008e520 f   MSVCRTD:userapi.obj
 0002:0005f530       _RTC_SetErrorFunc          000000014008e530 f   MSVCRTD:userapi.obj
 0002:0005f550       _RTC_SetErrorFuncW         000000014008e550 f   MSVCRTD:userapi.obj
 0002:0005f570       _RTC_SetErrorType          000000014008e570 f   MSVCRTD:userapi.obj
 0002:0005f5a0       __raise_securityfailure    000000014008e5a0 f   MSVCRTD:gs_report.obj
 0002:0005f5f0       __report_gsfailure         000000014008e5f0 f   MSVCRTD:gs_report.obj
 0002:0005f700       __report_rangecheckfailure 000000014008e700 f   MSVCRTD:gs_report.obj
 0002:0005f720       __report_securityfailure   000000014008e720 f   MSVCRTD:gs_report.obj
 0002:0005f7f0       __report_securityfailureEx 000000014008e7f0 f   MSVCRTD:gs_report.obj
 0002:0005fbe0       __security_init_cookie     000000014008ebe0 f   MSVCRTD:gs_support.obj
 0002:0005fc80       _matherr                   000000014008ec80 f   MSVCRTD:matherr.obj
 0002:0005fc90       _get_startup_commit_mode   000000014008ec90 f   MSVCRTD:commit_mode.obj
 0002:0005fca0       _get_startup_file_mode     000000014008eca0 f   MSVCRTD:file_mode.obj
 0002:0005fcb0       _get_startup_new_mode      000000014008ecb0 f   MSVCRTD:new_mode.obj
 0002:0005fcc0       _get_startup_thread_locale_mode 000000014008ecc0 f   MSVCRTD:thread_locale.obj
 0002:0005fcd0       ?__scrt_initialize_type_info@@YAXXZ 000000014008ecd0 f   MSVCRTD:tncleanup.obj
 0002:0005fcf0       ?__scrt_uninitialize_type_info@@YAXXZ 000000014008ecf0 f   MSVCRTD:tncleanup.obj
 0002:0005fd10       _should_initialize_environment 000000014008ed10 f   MSVCRTD:env_mode.obj
 0002:0005fd20       _initialize_invalid_parameter_handler 000000014008ed20 f   MSVCRTD:invalid_parameter_handler.obj
 0002:0005fd30       _initialize_denormal_control 000000014008ed30 f   MSVCRTD:denormal_control.obj
 0002:0005fd40       __local_stdio_scanf_options 000000014008ed40 f i MSVCRTD:default_local_stdio_options.obj
 0002:0005fd50       __scrt_initialize_default_local_stdio_options 000000014008ed50 f   MSVCRTD:default_local_stdio_options.obj
 0002:0005fdb0       __scrt_is_user_matherr_present 000000014008edb0 f   MSVCRTD:matherr_detection.obj
 0002:0005fde0       __scrt_get_dyn_tls_init_callback 000000014008ede0 f   MSVCRTD:dyn_tls_init.obj
 0002:0005fdf0       __scrt_get_dyn_tls_dtor_callback 000000014008edf0 f   MSVCRTD:dyn_tls_dtor.obj
 0002:0005fe00       _RTC_Initialize            000000014008ee00 f   MSVCRTD:initsect.obj
 0002:0005fe60       _RTC_Terminate             000000014008ee60 f   MSVCRTD:initsect.obj
 0002:00060530       ?_RTC_GetSrcLine@@YAHPEAEPEA_WKPEAH1K@Z 000000014008f530 f   MSVCRTD:pdblkup.obj
 0002:000609e7       memcpy                     000000014008f9e7 f   vcruntimed:VCRUNTIME140D.dll
 0002:000609ed       memmove                    000000014008f9ed f   vcruntimed:VCRUNTIME140D.dll
 0002:000609f3       __std_exception_copy       000000014008f9f3 f   vcruntimed:VCRUNTIME140D.dll
 0002:000609f9       __std_exception_destroy    000000014008f9f9 f   vcruntimed:VCRUNTIME140D.dll
 0002:000609ff       _CxxThrowException         000000014008f9ff f   vcruntimed:VCRUNTIME140D.dll
 0002:00060a05       __CxxFrameHandler4         000000014008fa05 f   vcruntimed:VCRUNTIME140_1D.dll
 0002:00060a0b       __current_exception        000000014008fa0b f   vcruntimed:VCRUNTIME140D.dll
 0002:00060a11       __current_exception_context 000000014008fa11 f   vcruntimed:VCRUNTIME140D.dll
 0002:00060a17       __C_specific_handler       000000014008fa17 f   vcruntimed:VCRUNTIME140D.dll
 0002:00060a1d       __C_specific_handler_noexcept 000000014008fa1d f   vcruntimed:VCRUNTIME140D.dll
 0002:00060a23       __std_type_info_destroy_list 000000014008fa23 f   vcruntimed:VCRUNTIME140D.dll
 0002:00060a29       __vcrt_GetModuleFileNameW  000000014008fa29 f   vcruntimed:VCRUNTIME140D.dll
 0002:00060a2f       __vcrt_GetModuleHandleW    000000014008fa2f f   vcruntimed:VCRUNTIME140D.dll
 0002:00060a35       __vcrt_LoadLibraryExW      000000014008fa35 f   vcruntimed:VCRUNTIME140D.dll
 0002:00060a3b       _invalid_parameter         000000014008fa3b f   ucrtd:ucrtbased.dll
 0002:00060a41       _calloc_dbg                000000014008fa41 f   ucrtd:ucrtbased.dll
 0002:00060a47       _CrtDbgReport              000000014008fa47 f   ucrtd:ucrtbased.dll
 0002:00060a4d       sqrt                       000000014008fa4d f   ucrtd:ucrtbased.dll
 0002:00060a53       ceilf                      000000014008fa53 f   ucrtd:ucrtbased.dll
 0002:00060a59       _get_stream_buffer_pointers 000000014008fa59 f   ucrtd:ucrtbased.dll
 0002:00060a5f       fclose                     000000014008fa5f f   ucrtd:ucrtbased.dll
 0002:00060a65       fflush                     000000014008fa65 f   ucrtd:ucrtbased.dll
 0002:00060a6b       fgetc                      000000014008fa6b f   ucrtd:ucrtbased.dll
 0002:00060a71       fgetpos                    000000014008fa71 f   ucrtd:ucrtbased.dll
 0002:00060a77       fputc                      000000014008fa77 f   ucrtd:ucrtbased.dll
 0002:00060a7d       fread                      000000014008fa7d f   ucrtd:ucrtbased.dll
 0002:00060a83       fsetpos                    000000014008fa83 f   ucrtd:ucrtbased.dll
 0002:00060a89       _fseeki64                  000000014008fa89 f   ucrtd:ucrtbased.dll
 0002:00060a8f       fwrite                     000000014008fa8f f   ucrtd:ucrtbased.dll
 0002:00060a95       setvbuf                    000000014008fa95 f   ucrtd:ucrtbased.dll
 0002:00060a9b       ungetc                     000000014008fa9b f   ucrtd:ucrtbased.dll
 0002:00060aa1       _lock_file                 000000014008faa1 f   ucrtd:ucrtbased.dll
 0002:00060aa7       _unlock_file               000000014008faa7 f   ucrtd:ucrtbased.dll
 0002:00060aad       wcslen                     000000014008faad f   ucrtd:ucrtbased.dll
 0002:00060ab3       strlen                     000000014008fab3 f   ucrtd:ucrtbased.dll
 0002:00060ab9       fabs                       000000014008fab9 f   ucrtd:ucrtbased.dll
 0002:00060abf       pow                        000000014008fabf f   ucrtd:ucrtbased.dll
 0002:00060ac5       _isnan                     000000014008fac5 f   ucrtd:ucrtbased.dll
 0002:00060acb       _free_dbg                  000000014008facb f   ucrtd:ucrtbased.dll
 0002:00060ad1       _malloc_dbg                000000014008fad1 f   ucrtd:ucrtbased.dll
 0002:00060ad7       terminate                  000000014008fad7 f   ucrtd:ucrtbased.dll
 0002:00060add       _callnewh                  000000014008fadd f   ucrtd:ucrtbased.dll
 0002:00060ae3       malloc                     000000014008fae3 f   ucrtd:ucrtbased.dll
 0002:00060ae9       _seh_filter_dll            000000014008fae9 f   ucrtd:ucrtbased.dll
 0002:00060aef       _configure_narrow_argv     000000014008faef f   ucrtd:ucrtbased.dll
 0002:00060af5       _initialize_narrow_environment 000000014008faf5 f   ucrtd:ucrtbased.dll
 0002:00060afb       _initialize_onexit_table   000000014008fafb f   ucrtd:ucrtbased.dll
 0002:00060b01       _register_onexit_function  000000014008fb01 f   ucrtd:ucrtbased.dll
 0002:00060b07       _execute_onexit_table      000000014008fb07 f   ucrtd:ucrtbased.dll
 0002:00060b0d       _crt_atexit                000000014008fb0d f   ucrtd:ucrtbased.dll
 0002:00060b13       _crt_at_quick_exit         000000014008fb13 f   ucrtd:ucrtbased.dll
 0002:00060b19       _cexit                     000000014008fb19 f   ucrtd:ucrtbased.dll
 0002:00060b1f       _CrtDbgReportW             000000014008fb1f f   ucrtd:ucrtbased.dll
 0002:00060b25       _seh_filter_exe            000000014008fb25 f   ucrtd:ucrtbased.dll
 0002:00060b2b       _set_app_type              000000014008fb2b f   ucrtd:ucrtbased.dll
 0002:00060b31       __setusermatherr           000000014008fb31 f   ucrtd:ucrtbased.dll
 0002:00060b37       _get_initial_narrow_environment 000000014008fb37 f   ucrtd:ucrtbased.dll
 0002:00060b3d       _initterm                  000000014008fb3d f   ucrtd:ucrtbased.dll
 0002:00060b43       _initterm_e                000000014008fb43 f   ucrtd:ucrtbased.dll
 0002:00060b49       exit                       000000014008fb49 f   ucrtd:ucrtbased.dll
 0002:00060b4f       _exit                      000000014008fb4f f   ucrtd:ucrtbased.dll
 0002:00060b55       _set_fmode                 000000014008fb55 f   ucrtd:ucrtbased.dll
 0002:00060b5b       __p___argc                 000000014008fb5b f   ucrtd:ucrtbased.dll
 0002:00060b61       __p___argv                 000000014008fb61 f   ucrtd:ucrtbased.dll
 0002:00060b67       _c_exit                    000000014008fb67 f   ucrtd:ucrtbased.dll
 0002:00060b6d       _register_thread_local_exe_atexit_callback 000000014008fb6d f   ucrtd:ucrtbased.dll
 0002:00060b73       _configthreadlocale        000000014008fb73 f   ucrtd:ucrtbased.dll
 0002:00060b79       _set_new_mode              000000014008fb79 f   ucrtd:ucrtbased.dll
 0002:00060b7f       __p__commode               000000014008fb7f f   ucrtd:ucrtbased.dll
 0002:00060b85       strcpy_s                   000000014008fb85 f   ucrtd:ucrtbased.dll
 0002:00060b8b       strcat_s                   000000014008fb8b f   ucrtd:ucrtbased.dll
 0002:00060b91       __stdio_common_vsprintf_s  000000014008fb91 f   ucrtd:ucrtbased.dll
 0002:00060b97       _wmakepath_s               000000014008fb97 f   ucrtd:ucrtbased.dll
 0002:00060b9d       _wsplitpath_s              000000014008fb9d f   ucrtd:ucrtbased.dll
 0002:00060ba3       wcscpy_s                   000000014008fba3 f   ucrtd:ucrtbased.dll
 0002:00060ba9       ReleaseSRWLockExclusive    000000014008fba9 f   kernel32:KERNEL32.dll
 0002:00060baf       AcquireSRWLockExclusive    000000014008fbaf f   kernel32:KERNEL32.dll
 0002:00060bb5       WakeAllConditionVariable   000000014008fbb5 f   kernel32:KERNEL32.dll
 0002:00060bbb       SleepConditionVariableSRW  000000014008fbbb f   kernel32:KERNEL32.dll
 0002:00060bc1       GetCurrentThreadId         000000014008fbc1 f   kernel32:KERNEL32.dll
 0002:00060bc7       RtlCaptureContext          000000014008fbc7 f   kernel32:KERNEL32.dll
 0002:00060bcd       RtlLookupFunctionEntry     000000014008fbcd f   kernel32:KERNEL32.dll
 0002:00060bd3       RtlVirtualUnwind           000000014008fbd3 f   kernel32:KERNEL32.dll
 0002:00060bd9       IsDebuggerPresent          000000014008fbd9 f   kernel32:KERNEL32.dll
 0002:00060bdf       UnhandledExceptionFilter   000000014008fbdf f   kernel32:KERNEL32.dll
 0002:00060be5       SetUnhandledExceptionFilter 000000014008fbe5 f   kernel32:KERNEL32.dll
 0002:00060beb       GetStartupInfoW            000000014008fbeb f   kernel32:KERNEL32.dll
 0002:00060bf1       IsProcessorFeaturePresent  000000014008fbf1 f   kernel32:KERNEL32.dll
 0002:00060bf7       GetModuleHandleW           000000014008fbf7 f   kernel32:KERNEL32.dll
 0002:00060bfd       RaiseException             000000014008fbfd f   kernel32:KERNEL32.dll
 0002:00060c03       MultiByteToWideChar        000000014008fc03 f   kernel32:KERNEL32.dll
 0002:00060c09       WideCharToMultiByte        000000014008fc09 f   kernel32:KERNEL32.dll
 0002:00060c0f       GetCurrentProcess          000000014008fc0f f   kernel32:KERNEL32.dll
 0002:00060c15       TerminateProcess           000000014008fc15 f   kernel32:KERNEL32.dll
 0002:00060c1b       QueryPerformanceCounter    000000014008fc1b f   kernel32:KERNEL32.dll
 0002:00060c21       GetCurrentProcessId        000000014008fc21 f   kernel32:KERNEL32.dll
 0002:00060c27       GetSystemTimeAsFileTime    000000014008fc27 f   kernel32:KERNEL32.dll
 0002:00060c2d       InitializeSListHead        000000014008fc2d f   kernel32:KERNEL32.dll
 0002:00060c33       GetLastError               000000014008fc33 f   kernel32:KERNEL32.dll
 0002:00060c39       HeapAlloc                  000000014008fc39 f   kernel32:KERNEL32.dll
 0002:00060c3f       HeapFree                   000000014008fc3f f   kernel32:KERNEL32.dll
 0002:00060c45       GetProcessHeap             000000014008fc45 f   kernel32:KERNEL32.dll
 0002:00060c4b       VirtualQuery               000000014008fc4b f   kernel32:KERNEL32.dll
 0002:00060c51       FreeLibrary                000000014008fc51 f   kernel32:KERNEL32.dll
 0002:00060c57       GetProcAddress             000000014008fc57 f   kernel32:KERNEL32.dll
 0002:00060c60       __acrt_initialize          000000014008fc60 f   MSVCRTD:ucrt_stubs.obj
 0002:00060c60       __scrt_stub_for_acrt_initialize 000000014008fc60 f   MSVCRTD:ucrt_stubs.obj
 0002:00060c60       __vcrt_initialize          000000014008fc60 f   MSVCRTD:ucrt_stubs.obj
 0002:00060c70       __acrt_thread_attach       000000014008fc70 f   MSVCRTD:ucrt_stubs.obj
 0002:00060c70       __scrt_stub_for_acrt_thread_attach 000000014008fc70 f   MSVCRTD:ucrt_stubs.obj
 0002:00060c70       __vcrt_thread_attach       000000014008fc70 f   MSVCRTD:ucrt_stubs.obj
 0002:00060c80       __acrt_thread_detach       000000014008fc80 f   MSVCRTD:ucrt_stubs.obj
 0002:00060c80       __scrt_stub_for_acrt_thread_detach 000000014008fc80 f   MSVCRTD:ucrt_stubs.obj
 0002:00060c80       __vcrt_thread_detach       000000014008fc80 f   MSVCRTD:ucrt_stubs.obj
 0002:00060c90       __acrt_uninitialize        000000014008fc90 f   MSVCRTD:ucrt_stubs.obj
 0002:00060c90       __scrt_stub_for_acrt_uninitialize 000000014008fc90 f   MSVCRTD:ucrt_stubs.obj
 0002:00060c90       __vcrt_uninitialize        000000014008fc90 f   MSVCRTD:ucrt_stubs.obj
 0002:00060ca0       __acrt_uninitialize_critical 000000014008fca0 f   MSVCRTD:ucrt_stubs.obj
 0002:00060ca0       __scrt_stub_for_acrt_uninitialize_critical 000000014008fca0 f   MSVCRTD:ucrt_stubs.obj
 0002:00060ca0       __vcrt_uninitialize_critical 000000014008fca0 f   MSVCRTD:ucrt_stubs.obj
 0002:00060cb0       __scrt_stub_for_is_c_termination_complete 000000014008fcb0 f   MSVCRTD:ucrt_stubs.obj
 0002:00060cb0       _is_c_termination_complete 000000014008fcb0 f   MSVCRTD:ucrt_stubs.obj
 0002:00062f60       _guard_dispatch_icall_nop  0000000140091f60 f   MSVCRTD:guard_dispatch.obj
 0002:00062f80       _guard_xfg_dispatch_icall_nop 0000000140091f80 f   MSVCRTD:guard_xfg_dispatch.obj
 0002:00068030       ??__Fnull_vertex@?1??getNullVertex@Vertex@NewDiagram@Voronoi@@SA?AV?$shared_ptr@UVertex@NewDiagram@Voronoi@@@std@@XZ@YAXXZ 0000000140097030 f i Main.obj
 0003:00000000       __xc_a                     0000000140099000     MSVCRTD:initializers.obj
 0003:00000440       __xc_z                     0000000140099440     MSVCRTD:initializers.obj
 0003:00000550       __xi_a                     0000000140099550     MSVCRTD:initializers.obj
 0003:00000880       __xi_z                     0000000140099880     MSVCRTD:initializers.obj
 0003:00000990       __xl_a                     0000000140099990     MSVCRTD:tlssup.obj
 0003:00000998       __xl_z                     0000000140099998     MSVCRTD:tlssup.obj
 0003:000009a0       __xp_a                     00000001400999a0     MSVCRTD:initializers.obj
 0003:00000ab0       __xp_z                     0000000140099ab0     MSVCRTD:initializers.obj
 0003:00000bc0       __xt_a                     0000000140099bc0     MSVCRTD:initializers.obj
 0003:00000cd0       __xt_z                     0000000140099cd0     MSVCRTD:initializers.obj
 0003:00000e40       ??_C@_0BJ@DHFDPMIM@invalid?5vector?5subscript@ 0000000140099e40     MinKnapsack.obj
 0003:00000ec0       __real@0000000000000000    0000000140099ec0     MinKnapsack.obj
 0003:00000ec8       __real@3e7ad7f29abcaf48    0000000140099ec8     MinKnapsack.obj
 0003:00000f40       ??_C@_0BB@PALMLHNB@Region?5with?5ID?3?5@ 0000000140099f40     MinKnapsack.obj
 0003:000012d0       ??_C@_0CC@KEJJOMBH@list?5erase?5iterator?5outside?5ran@ 000000014009a2d0     MinKnapsack.obj
 0003:00001670       ??_C@_0CF@JCBFHMPL@cannot?5dereference?5end?5list?5ite@ 000000014009a670     MinKnapsack.obj
 0003:000017d0       ??_C@_0CE@EJBAKAEF@list?5emplace?5iterator?5outside?5r@ 000000014009a7d0     MinKnapsack.obj
 0003:000020d0       ??_C@_0DG@GAGDEJEE@list?5iterators?5in?5range?5are?5fro@ 000000014009b0d0     MinKnapsack.obj
 0003:00007323       ?piecewise_construct@std@@3Upiecewise_construct_t@1@B 00000001400a0323     Main.obj
 0003:00007330       ??_7exception@std@@6B@     00000001400a0330     Main.obj
 0003:00007348       ??_C@_0BC@EOODALEL@Unknown?5exception@ 00000001400a0348     Main.obj
 0003:00007368       ??_7bad_alloc@std@@6B@     00000001400a0368     Main.obj
 0003:00007388       ??_7bad_array_new_length@std@@6B@ 00000001400a0388     Main.obj
 0003:000073a0       ??_C@_0BF@KINCDENJ@bad?5array?5new?5length@ 00000001400a03a0     Main.obj
 0003:000073c0       ??_C@_0BB@FCMFBGOM@invalid?5argument@ 00000001400a03c0     Main.obj
 0003:000073d4       ??_C@_02DKCKIIND@?$CFs@    00000001400a03d4     Main.obj
 0003:000073e0       ??_C@_0GC@KIHIELAM@C?3?2Program?5Files?2Microsoft?5Visu@ 00000001400a03e0     Main.obj
 0003:00007460       ??_C@_1ME@NMPKGKJL@?$AAC?$AA?3?$AA?2?$AAP?$AAr?$AAo?$AAg?$AAr?$AAa?$AAm?$AA?5?$AAF?$AAi?$AAl?$AAe@ 00000001400a0460     Main.obj
 0003:0000754c       ??_C@_11LOCGONAA@@         00000001400a054c     Main.obj
 0003:00007550       ??_C@_1CG@JNLFBNGN@?$AA?$CC?$AAi?$AAn?$AAv?$AAa?$AAl?$AAi?$AAd?$AA?5?$AAa?$AAr?$AAg?$AAu?$AAm?$AAe@ 00000001400a0550     Main.obj
 0003:00007580       ??_C@_0BJ@LFDBABJJ@ITERATOR?5LIST?5CORRUPTED?$CB@ 00000001400a0580     Main.obj
 0003:000075a0       ??_C@_1DG@PLBPCAEM@?$AA?$CC?$AAI?$AAT?$AAE?$AAR?$AAA?$AAT?$AAO?$AAR?$AA?5?$AAL?$AAI?$AAS?$AAT?$AA?5@ 00000001400a05a0     Main.obj
 0003:000075e0       ??_C@_0BA@JFNIOLAK@string?5too?5long@ 00000001400a05e0     Main.obj
 0003:00007600       ??_7bad_cast@std@@6B@      00000001400a0600     Main.obj
 0003:00007618       ??_C@_08EPJLHIJG@bad?5cast@ 00000001400a0618     Main.obj
 0003:00007630       ??_C@_0GC@LEHJKL@C?3?2Program?5Files?2Microsoft?5Visu@ 00000001400a0630     Main.obj
 0003:000076b0       ??_C@_0GC@IDPJHLAK@C?3?2Program?5Files?2Microsoft?5Visu@ 00000001400a06b0     Main.obj
 0003:00007728       ??_C@_01EEMJAFIK@?6@       00000001400a0728     Main.obj
 0003:00007738       ??_SCircleShape@sf@@6BDrawable@1@@ 00000001400a0738     Main.obj
 0003:00007768       ??_SCircleShape@sf@@6BTransformable@1@@ 00000001400a0768     Main.obj
 0003:00007780       ??_7?$basic_filebuf@DU?$char_traits@D@std@@@std@@6B@ 00000001400a0780     Main.obj
 0003:00007820       ??_7?$basic_ifstream@DU?$char_traits@D@std@@@std@@6B@ 00000001400a0820     Main.obj
 0003:0000782c       ??_8?$basic_ifstream@DU?$char_traits@D@std@@@std@@7B@ 00000001400a082c     Main.obj
 0003:00007838       ?_Min_buckets@?$_Hash@V?$_Umap_traits@PEAUVertex@?$Diagram@N@mygal@@V?$shared_ptr@UVertex@NewDiagram@Voronoi@@@std@@V?$_Uhash_compare@PEAUVertex@?$Diagram@N@mygal@@U?$hash@PEAUVertex@?$Diagram@N@mygal@@@std@@U?$equal_to@PEAUVertex@?$Diagram@N@mygal@@@5@@5@V?$allocator@U?$pair@QEAUVertex@?$Diagram@N@mygal@@V?$shared_ptr@UVertex@NewDiagram@Voronoi@@@std@@@std@@@5@$0A@@std@@@std@@2_KB 00000001400a0838     Main.obj
 0003:00007848       ?_Min_buckets@?$_Hash@V?$_Umap_traits@PEAUHalfEdge@?$Diagram@N@mygal@@V?$shared_ptr@UHalfEdge@NewDiagram@Voronoi@@@std@@V?$_Uhash_compare@PEAUHalfEdge@?$Diagram@N@mygal@@U?$hash@PEAUHalfEdge@?$Diagram@N@mygal@@@std@@U?$equal_to@PEAUHalfEdge@?$Diagram@N@mygal@@@5@@5@V?$allocator@U?$pair@QEAUHalfEdge@?$Diagram@N@mygal@@V?$shared_ptr@UHalfEdge@NewDiagram@Voronoi@@@std@@@std@@@5@$0A@@std@@@std@@2_KB 00000001400a0848     Main.obj
 0003:00007858       ?_Min_buckets@?$_Hash@V?$_Umap_traits@PEAUFace@?$Diagram@N@mygal@@V?$shared_ptr@UFace@NewDiagram@Voronoi@@@std@@V?$_Uhash_compare@PEAUFace@?$Diagram@N@mygal@@U?$hash@PEAUFace@?$Diagram@N@mygal@@@std@@U?$equal_to@PEAUFace@?$Diagram@N@mygal@@@5@@5@V?$allocator@U?$pair@QEAUFace@?$Diagram@N@mygal@@V?$shared_ptr@UFace@NewDiagram@Voronoi@@@std@@@std@@@5@$0A@@std@@@std@@2_KB 00000001400a0858     Main.obj
 0003:00007868       ??_C@_0BI@BLIEGIH@Twin?5consistency?5issue?$CB@ 00000001400a0868     Main.obj
 0003:00007888       ??_C@_0BD@BNJDICKJ@Data?1example_3?4txt@ 00000001400a0888     Main.obj
 0003:000078a0       ??_C@_06OBCAPPDL@Head?3?5@ 00000001400a08a0     Main.obj
 0003:000078a8       ??_C@_0BB@JABJGMJH@infinite?5vertex?6@ 00000001400a08a8     Main.obj
 0003:000078bc       ??_C@_06CPALCILJ@Tail?3?5@ 00000001400a08bc     Main.obj
 0003:000078c8       ??_C@_0BD@KMPIONNG@CHANGED?5STRUCTURE?6@ 00000001400a08c8     Main.obj
 0003:000078e0       ??_C@_0M@FEAMODJM@Plot?5Points@ 00000001400a08e0     Main.obj
 0003:000078f0       ??_C@_0BM@BALDKKHE@list?5iterators?5incompatible@ 00000001400a08f0     Main.obj
 0003:00007920       ??_C@_0FP@JKOEFCJG@C?3?2Program?5Files?2Microsoft?5Visu@ 00000001400a0920     Main.obj
 0003:000079a0       ??_C@_1LO@DEGMOPKM@?$AAC?$AA?3?$AA?2?$AAP?$AAr?$AAo?$AAg?$AAr?$AAa?$AAm?$AA?5?$AAF?$AAi?$AAl?$AAe@ 00000001400a09a0     Main.obj
 0003:00007a88       ??_C@_1DM@KDLJAKOP@?$AA?$CC?$AAl?$AAi?$AAs?$AAt?$AA?5?$AAi?$AAt?$AAe?$AAr?$AAa?$AAt?$AAo?$AAr?$AAs@ 00000001400a0a88     Main.obj
 0003:00007ad0       ??_C@_0CA@MMOGIFNF@invalid?5unordered_map?$DMK?0?5T?$DO?5key@ 00000001400a0ad0     Main.obj
 0003:00007af8       ??_C@_0BO@OKMPKPLD@back?$CI?$CJ?5called?5on?5empty?5vector@ 00000001400a0af8     Main.obj
 0003:00007b20       ??_C@_0GB@CIHAIELA@C?3?2Program?5Files?2Microsoft?5Visu@ 00000001400a0b20     Main.obj
 0003:00007ba0       ??_C@_1MC@ODEKBODI@?$AAC?$AA?3?$AA?2?$AAP?$AAr?$AAo?$AAg?$AAr?$AAa?$AAm?$AA?5?$AAF?$AAi?$AAl?$AAe@ 00000001400a0ba0     Main.obj
 0003:00007c90       ??_C@_1EA@OBAHGFFK@?$AA?$CC?$AAb?$AAa?$AAc?$AAk?$AA?$CI?$AA?$CJ?$AA?5?$AAc?$AAa?$AAl?$AAl?$AAe?$AAd?$AA?5@ 00000001400a0c90     Main.obj
 0003:00007ce0       ??_C@_0BI@PJHAPDF@vector?5empty?5before?5pop@ 00000001400a0ce0     Main.obj
 0003:00007d00       ??_C@_1DE@IPIBMNGD@?$AA?$CC?$AAv?$AAe?$AAc?$AAt?$AAo?$AAr?$AA?5?$AAe?$AAm?$AAp?$AAt?$AAy?$AA?5?$AAb@ 00000001400a0d00     Main.obj
 0003:00007d40       ??_C@_0N@LPFKKEBD@?3AM?3am?3PM?3pm@ 00000001400a0d40     Main.obj
 0003:00007d50       ??_C@_0BO@PFKOHNJC@vector?5subscript?5out?5of?5range@ 00000001400a0d50     Main.obj
 0003:00007d80       ??_C@_1EA@LEKOKFNB@?$AA?$CC?$AAv?$AAe?$AAc?$AAt?$AAo?$AAr?$AA?5?$AAs?$AAu?$AAb?$AAs?$AAc?$AAr?$AAi@ 00000001400a0d80     Main.obj
 0003:00007dd0       ??_C@_0BM@JDPDBGEE@back?$CI?$CJ?5called?5on?5empty?5list@ 00000001400a0dd0     Main.obj
 0003:00007df8       ??_C@_1DM@EADKENAA@?$AA?$CC?$AAb?$AAa?$AAc?$AAk?$AA?$CI?$AA?$CJ?$AA?5?$AAc?$AAa?$AAl?$AAl?$AAe?$AAd?$AA?5@ 00000001400a0df8     Main.obj
 0003:00007e40       ??_C@_0GC@FBLFEHOF@C?3?2Program?5Files?2Microsoft?5Visu@ 00000001400a0e40     Main.obj
 0003:00007ec0       ??_C@_1ME@DCHGJDEK@?$AAC?$AA?3?$AA?2?$AAP?$AAr?$AAo?$AAg?$AAr?$AAa?$AAm?$AA?5?$AAF?$AAi?$AAl?$AAe@ 00000001400a0ec0     Main.obj
 0003:00007fb0       ??_C@_0BA@FOIKENOD@vector?5too?5long@ 00000001400a0fb0     Main.obj
 0003:00007fc8       ??_C@_0BP@PFIPNLNI@front?$CI?$CJ?5called?5on?5empty?5string@ 00000001400a0fc8     Main.obj
 0003:00007ff0       ??_C@_1EC@DINNLDHA@?$AA?$CC?$AAf?$AAr?$AAo?$AAn?$AAt?$AA?$CI?$AA?$CJ?$AA?5?$AAc?$AAa?$AAl?$AAl?$AAe?$AAd@ 00000001400a0ff0     Main.obj
 0003:00008040       ??_C@_0DG@KGHKKGBC@null?5pointer?5cannot?5point?5to?5a?5@ 00000001400a1040     Main.obj
 0003:00008080       ??_C@_1HA@FACCKGGH@?$AA?$CC?$AAn?$AAu?$AAl?$AAl?$AA?5?$AAp?$AAo?$AAi?$AAn?$AAt?$AAe?$AAr?$AA?5?$AAc@ 00000001400a1080     Main.obj
 0003:00008108       ??_C@_0BI@CFPLBAOH@invalid?5string?5position@ 00000001400a1108     Main.obj
 0003:00008128       ??_C@_0BJ@HAJGEHKO@transposed?5pointer?5range@ 00000001400a1128     Main.obj
 0003:00008150       ??_C@_0GD@MKOFDADA@C?3?2Program?5Files?2Microsoft?5Visu@ 00000001400a1150     Main.obj
 0003:000081d0       ??_C@_1MG@DCBCCKGP@?$AAC?$AA?3?$AA?2?$AAP?$AAr?$AAo?$AAg?$AAr?$AAa?$AAm?$AA?5?$AAF?$AAi?$AAl?$AAe@ 00000001400a11d0     Main.obj
 0003:000082c0       ??_C@_1DG@FJIKMGFD@?$AA?$CC?$AAt?$AAr?$AAa?$AAn?$AAs?$AAp?$AAo?$AAs?$AAe?$AAd?$AA?5?$AAp?$AAo?$AAi@ 00000001400a12c0     Main.obj
 0003:00008308       ??_7?$_Ref_count_obj2@UVertex@NewDiagram@Voronoi@@@std@@6B@ 00000001400a1308     Main.obj
 0003:00008338       ??_7?$_Ref_count_obj2@USite@NewDiagram@Voronoi@@@std@@6B@ 00000001400a1338     Main.obj
 0003:00008368       ??_7?$_Ref_count_obj2@UHalfEdge@NewDiagram@Voronoi@@@std@@6B@ 00000001400a1368     Main.obj
 0003:00008398       ??_7?$_Ref_count_obj2@UFace@NewDiagram@Voronoi@@@std@@6B@ 00000001400a1398     Main.obj
 0003:000083c0       ??_C@_0O@NKNMEGII@list?5too?5long@ 00000001400a13c0     Main.obj
 0003:000083d0       ??_C@_1BK@MHIKGOKE@?$AA?3?$AAA?$AAM?$AA?3?$AAa?$AAm?$AA?3?$AAP?$AAM?$AA?3?$AAp?$AAm@ 00000001400a13d0     Main.obj
 0003:000083f0       ??_C@_01PKGAHCOL@?$CJ@     00000001400a13f0     Main.obj
 0003:000083f4       ??_C@_02KEGNLNML@?0?5@     00000001400a13f4     Main.obj
 0003:000083f8       ??_C@_01ODHLEDKK@?$CI@     00000001400a13f8     Main.obj
 0003:00008400       ??_C@_0BL@GOIGLPKN@unordered_map?1set?5too?5long@ 00000001400a1400     Main.obj
 0003:00008420       ??_C@_0BK@OGNNAFAB@invalid?5hash?5bucket?5count@ 00000001400a1420     Main.obj
 0003:00008440       ??_C@_0DB@MCPEHPCC@cannot?5decrement?5value?9initiali@ 00000001400a1440     Main.obj
 0003:00008480       ??_C@_1GG@FLDKPFOH@?$AA?$CC?$AAc?$AAa?$AAn?$AAn?$AAo?$AAt?$AA?5?$AAd?$AAe?$AAc?$AAr?$AAe?$AAm?$AAe@ 00000001400a1480     Main.obj
 0003:00008500       ??_C@_0CF@BAAFPBMN@cannot?5decrement?5begin?5list?5ite@ 00000001400a1500     Main.obj
 0003:00008530       ??_C@_1EO@PPPLIDNC@?$AA?$CC?$AAc?$AAa?$AAn?$AAn?$AAo?$AAt?$AA?5?$AAd?$AAe?$AAc?$AAr?$AAe?$AAm?$AAe@ 00000001400a1530     Main.obj
 0003:00008590       ??_C@_0DB@ENBCPNKO@cannot?5increment?5value?9initiali@ 00000001400a1590     Main.obj
 0003:000085d0       ??_C@_1GG@JLMAGPNK@?$AA?$CC?$AAc?$AAa?$AAn?$AAn?$AAo?$AAt?$AA?5?$AAi?$AAn?$AAc?$AAr?$AAe?$AAm?$AAe@ 00000001400a15d0     Main.obj
 0003:00008650       ??_C@_0CD@PMFMCEG@cannot?5increment?5end?5list?5itera@ 00000001400a1650     Main.obj
 0003:00008680       ??_C@_1EK@OKKCFDJN@?$AA?$CC?$AAc?$AAa?$AAn?$AAn?$AAo?$AAt?$AA?5?$AAi?$AAn?$AAc?$AAr?$AAe?$AAm?$AAe@ 00000001400a1680     Main.obj
 0003:000086d8       __real@3c23d70a            00000001400a16d8     Main.obj
 0003:000086e0       __real@3cb0000000000000    00000001400a16e0     Main.obj
 0003:000086ec       __real@3f000000            00000001400a16ec     Main.obj
 0003:000086f0       __real@3f800000            00000001400a16f0     Main.obj
 0003:000086f8       __real@3fe0000000000000    00000001400a16f8     Main.obj
 0003:00008708       __real@3ff0000000000000    00000001400a1708     Main.obj
 0003:00008718       __real@4000000000000000    00000001400a1718     Main.obj
 0003:00008728       __real@4010000000000000    00000001400a1728     Main.obj
 0003:00008738       __real@408f400000000000    00000001400a1738     Main.obj
 0003:00008744       __real@5f000000            00000001400a1744     Main.obj
 0003:00008748       __real@7ff0000000000000    00000001400a1748     Main.obj
 0003:00008754       __real@bf800000            00000001400a1754     Main.obj
 0003:00008760       __xmm@80000000000000008000000000000000 00000001400a1760     Main.obj
 0003:00009f58       ??_C@_0L@KBNCCJGH@?0?5weight?3?5@ 00000001400a2f58     MinKnapsack.obj
 0003:00009f88       ??_C@_09OHKHBDLN@?0?5pivot?3?5@ 00000001400a2f88     MinKnapsack.obj
 0003:00009fa8       ??_C@_0BA@JCPDNNDH@?0?5pivot?3?5null?5?6@ 00000001400a2fa8     MinKnapsack.obj
 0003:00009fd0       ??_C@_1EI@FHIDKIBN@?$AA?$CC?$AAl?$AAi?$AAs?$AAt?$AA?5?$AAe?$AAr?$AAa?$AAs?$AAe?$AA?5?$AAi?$AAt?$AAe@ 00000001400a2fd0     MinKnapsack.obj
 0003:0000a028       ??_C@_0BF@JNIKKICP@I?5added?5the?5region?3?5@ 00000001400a3028     MinKnapsack.obj
 0003:0000a050       ??_C@_1EC@GDGFILAB@?$AA?$CC?$AAf?$AAr?$AAo?$AAn?$AAt?$AA?$CI?$AA?$CJ?$AA?5?$AAc?$AAa?$AAl?$AAl?$AAe?$AAd@ 00000001400a3050     MinKnapsack.obj
 0003:0000a0a0       ??_C@_0M@JMJAMMLE@I?5examine?3?5@ 00000001400a30a0     MinKnapsack.obj
 0003:0000a0e0       ??_C@_1GK@NKIMOCIG@?$AA?$CC?$AAc?$AAa?$AAn?$AAn?$AAo?$AAt?$AA?5?$AAd?$AAe?$AAr?$AAe?$AAf?$AAe?$AAr@ 00000001400a30e0     MinKnapsack.obj
 0003:0000a160       ??_C@_0BG@JFGNNHLI@I?5divide?5the?5region?3?5@ 00000001400a3160     MinKnapsack.obj
 0003:0000a190       ??_C@_1EO@CNEFBDCF@?$AA?$CC?$AAc?$AAa?$AAn?$AAn?$AAo?$AAt?$AA?5?$AAd?$AAe?$AAr?$AAe?$AAf?$AAe?$AAr@ 00000001400a3190     MinKnapsack.obj
 0003:0000a210       ??_C@_0BP@KGLJJIBC@front?$CI?$CJ?5called?5on?5empty?5vector@ 00000001400a3210     MinKnapsack.obj
 0003:0000a240       ??_C@_1EM@MOLMOEHB@?$AA?$CC?$AAl?$AAi?$AAs?$AAt?$AA?5?$AAe?$AAm?$AAp?$AAl?$AAa?$AAc?$AAe?$AA?5?$AAi@ 00000001400a3240     MinKnapsack.obj
 0003:0000a2a0       ??_C@_0DD@MBIHGLJE@cannot?5dereference?5value?9initia@ 00000001400a32a0     MinKnapsack.obj
 0003:0000a2e0       ??_C@_1HA@KAMKPLHN@?$AA?$CC?$AAl?$AAi?$AAs?$AAt?$AA?5?$AAi?$AAt?$AAe?$AAr?$AAa?$AAt?$AAo?$AAr?$AAs@ 00000001400a32e0     MinKnapsack.obj
 0003:0000a388       ?Inf@Point2D@@2NB          00000001400a3388     Point2D.obj
 0003:0000a994       ??_C@_01IHBHIGKO@?0@       00000001400a3994     Point2D.obj
 0003:0000a9a0       ??_7?$basic_stringbuf@DU?$char_traits@D@std@@V?$allocator@D@2@@std@@6B@ 00000001400a39a0     Point2D.obj
 0003:0000aa40       ??_7?$basic_stringstream@DU?$char_traits@D@std@@V?$allocator@D@2@@std@@6B@ 00000001400a3a40     Point2D.obj
 0003:0000aa4c       ??_8?$basic_stringstream@DU?$char_traits@D@std@@V?$allocator@D@2@@std@@7B?$basic_istream@DU?$char_traits@D@std@@@1@@ 00000001400a3a4c     Point2D.obj
 0003:0000aa58       ??_8?$basic_stringstream@DU?$char_traits@D@std@@V?$allocator@D@2@@std@@7B?$basic_ostream@DU?$char_traits@D@std@@@1@@ 00000001400a3a58     Point2D.obj
 0003:0000aa64       ??_C@_01CLKCMJKC@?5@       00000001400a3a64     Point2D.obj
 0003:0000aa68       ??_C@_0DK@PCBCHJKC@D?3?2a?2_work?21?2s?2src?2vctools?2crt?2@ 00000001400a3a68     msvcprtd:locale0_implib.obj
 0003:0000aab8       ??_7type_info@@6B@         00000001400a3ab8     MSVCRTD:std_type_info_static.obj
 0003:0000aac8       ??_C@_0P@GHFPNOJB@bad?5allocation@ 00000001400a3ac8     MSVCRTD:throw_bad_alloc.obj
 0003:0000abc0       ??_C@_0NN@JMPELKLB@The?5value?5of?5ESP?5was?5not?5proper@ 00000001400a3bc0     MSVCRTD:error.obj
 0003:0000acd0       ??_C@_0BBN@ELNNILBE@A?5cast?5to?5a?5smaller?5data?5type?5h@ 00000001400a3cd0     MSVCRTD:error.obj
 0003:0000ae28       ??_C@_0BN@BPOGFMJL@Stack?5memory?5was?5corrupted?$AN?6@ 00000001400a3e28     MSVCRTD:error.obj
 0003:0000ae50       ??_C@_0DG@DAJCDLPN@A?5local?5variable?5was?5used?5befor@ 00000001400a3e50     MSVCRTD:error.obj
 0003:0000ae90       ??_C@_0CM@JMIDGKLA@Stack?5memory?5around?5_alloca?5was@ 00000001400a3e90     MSVCRTD:error.obj
 0003:0000aec8       ??_C@_0BO@CHIONIOI@Unknown?5Runtime?5Check?5Error?$AN?6@ 00000001400a3ec8     MSVCRTD:error.obj
 0003:0000aef0       ??_C@_1GM@CNOOJIHC@?$AAR?$AAu?$AAn?$AAt?$AAi?$AAm?$AAe?$AA?5?$AAC?$AAh?$AAe?$AAc?$AAk?$AA?5?$AAE@ 00000001400a3ef0     MSVCRTD:error.obj
 0003:0000af80       ??_C@_1EA@NFKNIFJP@?$AAR?$AAu?$AAn?$AA?9?$AAT?$AAi?$AAm?$AAe?$AA?5?$AAC?$AAh?$AAe?$AAc?$AAk?$AA?5@ 00000001400a3f80     MSVCRTD:error.obj
 0003:0000afd0       ??_C@_0BB@PFFGGCJP@Unknown?5Filename@ 00000001400a3fd0     MSVCRTD:error.obj
 0003:0000afe8       ??_C@_0BE@GNBOBNCK@Unknown?5Module?5Name@ 00000001400a3fe8     MSVCRTD:error.obj
 0003:0000b000       ??_C@_0CA@IODNCDPG@Run?9Time?5Check?5Failure?5?$CD?$CFd?5?9?5?$CFs@ 00000001400a4000     MSVCRTD:error.obj
 0003:0000b028       ??_C@_0CG@IAFNJNEE@Stack?5corrupted?5near?5unknown?5va@ 00000001400a4028     MSVCRTD:error.obj
 0003:0000b058       ??_C@_05MKKEDADM@?$CF?42X?5@ 00000001400a4058     MSVCRTD:error.obj
 0003:0000b060       ??_C@_0EJ@LJKNEOLN@Stack?5area?5around?5_alloca?5memor@ 00000001400a4060     MSVCRTD:error.obj
 0003:0000b0b8       ??_C@_02LLMPMKNF@?$DO?5@   00000001400a40b8     MSVCRTD:error.obj
 0003:0000b0c0       ??_C@_08OMAHNMHJ@?6Data?3?5?$DM@ 00000001400a40c0     MSVCRTD:error.obj
 0003:0000b0d0       ??_C@_0CK@DKGBICFE@?6Allocation?5number?5within?5this?5@ 00000001400a40d0     MSVCRTD:error.obj
